
kernel8.elf:     file format elf64-littleaarch64


Disassembly of section .text:

ffff000000080000 <_kernel_start>:
ffff000000080000:	aa0003f5 	mov	x21, x0
ffff000000080004:	d53800a1 	mrs	x1, mpidr_el1
ffff000000080008:	92400421 	and	x1, x1, #0x3
ffff00000008000c:	b4000061 	cbz	x1, ffff000000080018 <master_cpu>

ffff000000080010 <hang>:
ffff000000080010:	d503205f 	wfe
ffff000000080014:	17ffffff 	b	ffff000000080010 <hang>

ffff000000080018 <master_cpu>:
ffff000000080018:	94000025 	bl	ffff0000000800ac <from_el2_to_el1>

ffff00000008001c <vm_setting>:
ffff00000008001c:	58000560 	ldr	x0, ffff0000000800c8 <from_el2_to_el1+0x1c>
ffff000000080020:	d5182040 	msr	tcr_el1, x0
ffff000000080024:	58000560 	ldr	x0, ffff0000000800d0 <from_el2_to_el1+0x24>
ffff000000080028:	d518a200 	msr	mair_el1, x0
ffff00000008002c:	58000560 	ldr	x0, ffff0000000800d8 <from_el2_to_el1+0x2c>
ffff000000080030:	58000581 	ldr	x1, ffff0000000800e0 <from_el2_to_el1+0x34>
ffff000000080034:	580005a2 	ldr	x2, ffff0000000800e8 <from_el2_to_el1+0x3c>
ffff000000080038:	aa020022 	orr	x2, x1, x2
ffff00000008003c:	f9000002 	str	x2, [x0]
ffff000000080040:	58000582 	ldr	x2, ffff0000000800f0 <from_el2_to_el1+0x44>
ffff000000080044:	d2800003 	mov	x3, #0x0                   	// #0
ffff000000080048:	aa030043 	orr	x3, x2, x3
ffff00000008004c:	f9000023 	str	x3, [x1]
ffff000000080050:	d2a80003 	mov	x3, #0x40000000            	// #1073741824
ffff000000080054:	aa030043 	orr	x3, x2, x3
ffff000000080058:	f9000423 	str	x3, [x1, #8]
ffff00000008005c:	d5182000 	msr	ttbr0_el1, x0
ffff000000080060:	d5182020 	msr	ttbr1_el1, x0
ffff000000080064:	d5381002 	mrs	x2, sctlr_el1
ffff000000080068:	b2400042 	orr	x2, x2, #0x1
ffff00000008006c:	d5181002 	msr	sctlr_el1, x2
ffff000000080070:	58000442 	ldr	x2, ffff0000000800f8 <from_el2_to_el1+0x4c>
ffff000000080074:	d61f0040 	br	x2

ffff000000080078 <other_master_cpu>:
ffff000000080078:	10063c40 	adr	x0, ffff00000008c800 <vector>
ffff00000008007c:	d518c000 	msr	vbar_el1, x0
ffff000000080080:	58000401 	ldr	x1, ffff000000080100 <from_el2_to_el1+0x54>
ffff000000080084:	9100003f 	mov	sp, x1
ffff000000080088:	58000402 	ldr	x2, ffff000000080108 <from_el2_to_el1+0x5c>
ffff00000008008c:	58000421 	ldr	x1, ffff000000080110 <from_el2_to_el1+0x64>
ffff000000080090:	cb020021 	sub	x1, x1, x2

ffff000000080094 <memzero>:
ffff000000080094:	b4000081 	cbz	x1, ffff0000000800a4 <run>
ffff000000080098:	f800845f 	str	xzr, [x2], #8
ffff00000008009c:	d1002021 	sub	x1, x1, #0x8
ffff0000000800a0:	b5ffffa1 	cbnz	x1, ffff000000080094 <memzero>

ffff0000000800a4 <run>:
ffff0000000800a4:	94001423 	bl	ffff000000085130 <main>
ffff0000000800a8:	17ffffda 	b	ffff000000080010 <hang>

ffff0000000800ac <from_el2_to_el1>:
ffff0000000800ac:	d2b00000 	mov	x0, #0x80000000            	// #2147483648
ffff0000000800b0:	d51c1100 	msr	hcr_el2, x0
ffff0000000800b4:	d28078a0 	mov	x0, #0x3c5                 	// #965
ffff0000000800b8:	d51c4000 	msr	spsr_el2, x0
ffff0000000800bc:	d51c403e 	msr	elr_el2, x30
ffff0000000800c0:	d69f03e0 	eret
ffff0000000800c4:	00000000 	udf	#0
ffff0000000800c8:	80100010 	.inst	0x80100010 ; undefined
ffff0000000800cc:	00000000 	udf	#0
ffff0000000800d0:	00004400 	udf	#17408
ffff0000000800d4:	00000000 	udf	#0
ffff0000000800d8:	00001000 	udf	#4096
ffff0000000800dc:	00000000 	udf	#0
ffff0000000800e0:	00002000 	udf	#8192
ffff0000000800e4:	00000000 	udf	#0
ffff0000000800e8:	00000003 	udf	#3
ffff0000000800ec:	00000000 	udf	#0
ffff0000000800f0:	00000401 	udf	#1025
ffff0000000800f4:	00000000 	udf	#0
ffff0000000800f8:	00080078 	.inst	0x00080078 ; undefined
ffff0000000800fc:	ffff0000 	.inst	0xffff0000 ; undefined
ffff000000080100:	00080000 	.inst	0x00080000 ; undefined
ffff000000080104:	ffff0000 	.inst	0xffff0000 ; undefined
ffff000000080108:	000928d8 	.inst	0x000928d8 ; undefined
ffff00000008010c:	ffff0000 	.inst	0xffff0000 ; undefined
ffff000000080110:	000950c0 	.inst	0x000950c0 ; undefined
ffff000000080114:	ffff0000 	.inst	0xffff0000 ; undefined

ffff000000080118 <print_range>:
ffff000000080118:	a9bd7bfd 	stp	x29, x30, [sp, #-48]!
ffff00000008011c:	910003fd 	mov	x29, sp
ffff000000080120:	f9000fe0 	str	x0, [sp, #24]
ffff000000080124:	b90017e1 	str	w1, [sp, #20]
ffff000000080128:	d0000080 	adrp	x0, ffff000000092000 <pool_slots+0xe38>
ffff00000008012c:	f943d400 	ldr	x0, [x0, #1960]
ffff000000080130:	f9400000 	ldr	x0, [x0]
ffff000000080134:	f9400fe1 	ldr	x1, [sp, #24]
ffff000000080138:	cb000020 	sub	x0, x1, x0
ffff00000008013c:	d34cfc00 	lsr	x0, x0, #12
ffff000000080140:	f90017e0 	str	x0, [sp, #40]
ffff000000080144:	b94017e0 	ldr	w0, [sp, #20]
ffff000000080148:	52800021 	mov	w1, #0x1                   	// #1
ffff00000008014c:	1ac02020 	lsl	w0, w1, w0
ffff000000080150:	93407c01 	sxtw	x1, w0
ffff000000080154:	f94017e0 	ldr	x0, [sp, #40]
ffff000000080158:	8b000020 	add	x0, x1, x0
ffff00000008015c:	d1000400 	sub	x0, x0, #0x1
ffff000000080160:	f90013e0 	str	x0, [sp, #32]
ffff000000080164:	b0000060 	adrp	x0, ffff00000008d000 <sync_invalid_el1t+0x7c>
ffff000000080168:	91336000 	add	x0, x0, #0xcd8
ffff00000008016c:	94001b24 	bl	ffff000000086dfc <uart_write_str_raw>
ffff000000080170:	f94017e0 	ldr	x0, [sp, #40]
ffff000000080174:	94001b39 	bl	ffff000000086e58 <uart_write_int_raw>
ffff000000080178:	b0000060 	adrp	x0, ffff00000008d000 <sync_invalid_el1t+0x7c>
ffff00000008017c:	9133c000 	add	x0, x0, #0xcf0
ffff000000080180:	94001b1f 	bl	ffff000000086dfc <uart_write_str_raw>
ffff000000080184:	f94013e0 	ldr	x0, [sp, #32]
ffff000000080188:	94001b34 	bl	ffff000000086e58 <uart_write_int_raw>
ffff00000008018c:	b0000060 	adrp	x0, ffff00000008d000 <sync_invalid_el1t+0x7c>
ffff000000080190:	9133e000 	add	x0, x0, #0xcf8
ffff000000080194:	94001b1a 	bl	ffff000000086dfc <uart_write_str_raw>
ffff000000080198:	d503201f 	nop
ffff00000008019c:	a8c37bfd 	ldp	x29, x30, [sp], #48
ffff0000000801a0:	d65f03c0 	ret

ffff0000000801a4 <left_child>:
ffff0000000801a4:	d10043ff 	sub	sp, sp, #0x10
ffff0000000801a8:	b9000fe0 	str	w0, [sp, #12]
ffff0000000801ac:	b9400fe0 	ldr	w0, [sp, #12]
ffff0000000801b0:	531f7800 	lsl	w0, w0, #1
ffff0000000801b4:	11000400 	add	w0, w0, #0x1
ffff0000000801b8:	910043ff 	add	sp, sp, #0x10
ffff0000000801bc:	d65f03c0 	ret

ffff0000000801c0 <right_child>:
ffff0000000801c0:	d10043ff 	sub	sp, sp, #0x10
ffff0000000801c4:	b9000fe0 	str	w0, [sp, #12]
ffff0000000801c8:	b9400fe0 	ldr	w0, [sp, #12]
ffff0000000801cc:	11000400 	add	w0, w0, #0x1
ffff0000000801d0:	531f7800 	lsl	w0, w0, #1
ffff0000000801d4:	910043ff 	add	sp, sp, #0x10
ffff0000000801d8:	d65f03c0 	ret

ffff0000000801dc <parent>:
ffff0000000801dc:	d10043ff 	sub	sp, sp, #0x10
ffff0000000801e0:	b9000fe0 	str	w0, [sp, #12]
ffff0000000801e4:	b9400fe0 	ldr	w0, [sp, #12]
ffff0000000801e8:	51000400 	sub	w0, w0, #0x1
ffff0000000801ec:	531f7c01 	lsr	w1, w0, #31
ffff0000000801f0:	0b000020 	add	w0, w1, w0
ffff0000000801f4:	13017c00 	asr	w0, w0, #1
ffff0000000801f8:	910043ff 	add	sp, sp, #0x10
ffff0000000801fc:	d65f03c0 	ret

ffff000000080200 <node_index_to_addr>:
ffff000000080200:	d10083ff 	sub	sp, sp, #0x20
ffff000000080204:	b9000fe0 	str	w0, [sp, #12]
ffff000000080208:	b9000be1 	str	w1, [sp, #8]
ffff00000008020c:	d0000080 	adrp	x0, ffff000000092000 <pool_slots+0xe38>
ffff000000080210:	f9441400 	ldr	x0, [x0, #2088]
ffff000000080214:	b9400001 	ldr	w1, [x0]
ffff000000080218:	b9400be0 	ldr	w0, [sp, #8]
ffff00000008021c:	4b000020 	sub	w0, w1, w0
ffff000000080220:	52800021 	mov	w1, #0x1                   	// #1
ffff000000080224:	1ac02020 	lsl	w0, w1, w0
ffff000000080228:	51000400 	sub	w0, w0, #0x1
ffff00000008022c:	b9001fe0 	str	w0, [sp, #28]
ffff000000080230:	b9400fe1 	ldr	w1, [sp, #12]
ffff000000080234:	b9401fe0 	ldr	w0, [sp, #28]
ffff000000080238:	4b000020 	sub	w0, w1, w0
ffff00000008023c:	b9001be0 	str	w0, [sp, #24]
ffff000000080240:	b9801be1 	ldrsw	x1, [sp, #24]
ffff000000080244:	b9400be0 	ldr	w0, [sp, #8]
ffff000000080248:	11003000 	add	w0, w0, #0xc
ffff00000008024c:	9ac02021 	lsl	x1, x1, x0
ffff000000080250:	d0000080 	adrp	x0, ffff000000092000 <pool_slots+0xe38>
ffff000000080254:	f943d400 	ldr	x0, [x0, #1960]
ffff000000080258:	f9400000 	ldr	x0, [x0]
ffff00000008025c:	8b000020 	add	x0, x1, x0
ffff000000080260:	910083ff 	add	sp, sp, #0x20
ffff000000080264:	d65f03c0 	ret

ffff000000080268 <get_page_index>:
ffff000000080268:	a9bd7bfd 	stp	x29, x30, [sp, #-48]!
ffff00000008026c:	910003fd 	mov	x29, sp
ffff000000080270:	b9001fe0 	str	w0, [sp, #28]
ffff000000080274:	b9001be1 	str	w1, [sp, #24]
ffff000000080278:	b9401be1 	ldr	w1, [sp, #24]
ffff00000008027c:	b9401fe0 	ldr	w0, [sp, #28]
ffff000000080280:	97ffffe0 	bl	ffff000000080200 <node_index_to_addr>
ffff000000080284:	f90017e0 	str	x0, [sp, #40]
ffff000000080288:	d0000080 	adrp	x0, ffff000000092000 <pool_slots+0xe38>
ffff00000008028c:	f943d400 	ldr	x0, [x0, #1960]
ffff000000080290:	f9400000 	ldr	x0, [x0]
ffff000000080294:	f94017e1 	ldr	x1, [sp, #40]
ffff000000080298:	cb000020 	sub	x0, x1, x0
ffff00000008029c:	d34cfc00 	lsr	x0, x0, #12
ffff0000000802a0:	a8c37bfd 	ldp	x29, x30, [sp], #48
ffff0000000802a4:	d65f03c0 	ret

ffff0000000802a8 <addr_to_node_index>:
ffff0000000802a8:	a9bc7bfd 	stp	x29, x30, [sp, #-64]!
ffff0000000802ac:	910003fd 	mov	x29, sp
ffff0000000802b0:	f9000fe0 	str	x0, [sp, #24]
ffff0000000802b4:	b90017e1 	str	w1, [sp, #20]
ffff0000000802b8:	b9003fff 	str	wzr, [sp, #60]
ffff0000000802bc:	d0000080 	adrp	x0, ffff000000092000 <pool_slots+0xe38>
ffff0000000802c0:	f9441400 	ldr	x0, [x0, #2088]
ffff0000000802c4:	b9400000 	ldr	w0, [x0]
ffff0000000802c8:	b9003be0 	str	w0, [sp, #56]
ffff0000000802cc:	14000027 	b	ffff000000080368 <addr_to_node_index+0xc0>
ffff0000000802d0:	b9403be1 	ldr	w1, [sp, #56]
ffff0000000802d4:	b9403fe0 	ldr	w0, [sp, #60]
ffff0000000802d8:	97ffffca 	bl	ffff000000080200 <node_index_to_addr>
ffff0000000802dc:	f9001be0 	str	x0, [sp, #48]
ffff0000000802e0:	b9403be1 	ldr	w1, [sp, #56]
ffff0000000802e4:	b94017e0 	ldr	w0, [sp, #20]
ffff0000000802e8:	6b00003f 	cmp	w1, w0
ffff0000000802ec:	540000e1 	b.ne	ffff000000080308 <addr_to_node_index+0x60>  // b.any
ffff0000000802f0:	f9401be1 	ldr	x1, [sp, #48]
ffff0000000802f4:	f9400fe0 	ldr	x0, [sp, #24]
ffff0000000802f8:	eb00003f 	cmp	x1, x0
ffff0000000802fc:	54000061 	b.ne	ffff000000080308 <addr_to_node_index+0x60>  // b.any
ffff000000080300:	b9403fe0 	ldr	w0, [sp, #60]
ffff000000080304:	1400001e 	b	ffff00000008037c <addr_to_node_index+0xd4>
ffff000000080308:	b9403be0 	ldr	w0, [sp, #56]
ffff00000008030c:	52820001 	mov	w1, #0x1000                	// #4096
ffff000000080310:	1ac02020 	lsl	w0, w1, w0
ffff000000080314:	531f7c01 	lsr	w1, w0, #31
ffff000000080318:	0b000020 	add	w0, w1, w0
ffff00000008031c:	13017c00 	asr	w0, w0, #1
ffff000000080320:	93407c00 	sxtw	x0, w0
ffff000000080324:	f9401be1 	ldr	x1, [sp, #48]
ffff000000080328:	8b000020 	add	x0, x1, x0
ffff00000008032c:	f90017e0 	str	x0, [sp, #40]
ffff000000080330:	f9400fe1 	ldr	x1, [sp, #24]
ffff000000080334:	f94017e0 	ldr	x0, [sp, #40]
ffff000000080338:	eb00003f 	cmp	x1, x0
ffff00000008033c:	540000a2 	b.cs	ffff000000080350 <addr_to_node_index+0xa8>  // b.hs, b.nlast
ffff000000080340:	b9403fe0 	ldr	w0, [sp, #60]
ffff000000080344:	97ffff98 	bl	ffff0000000801a4 <left_child>
ffff000000080348:	b9003fe0 	str	w0, [sp, #60]
ffff00000008034c:	14000004 	b	ffff00000008035c <addr_to_node_index+0xb4>
ffff000000080350:	b9403fe0 	ldr	w0, [sp, #60]
ffff000000080354:	97ffff9b 	bl	ffff0000000801c0 <right_child>
ffff000000080358:	b9003fe0 	str	w0, [sp, #60]
ffff00000008035c:	b9403be0 	ldr	w0, [sp, #56]
ffff000000080360:	51000400 	sub	w0, w0, #0x1
ffff000000080364:	b9003be0 	str	w0, [sp, #56]
ffff000000080368:	b9403be1 	ldr	w1, [sp, #56]
ffff00000008036c:	b94017e0 	ldr	w0, [sp, #20]
ffff000000080370:	6b00003f 	cmp	w1, w0
ffff000000080374:	54fffaea 	b.ge	ffff0000000802d0 <addr_to_node_index+0x28>  // b.tcont
ffff000000080378:	12800000 	mov	w0, #0xffffffff            	// #-1
ffff00000008037c:	a8c47bfd 	ldp	x29, x30, [sp], #64
ffff000000080380:	d65f03c0 	ret

ffff000000080384 <node_index_to_order>:
ffff000000080384:	d10083ff 	sub	sp, sp, #0x20
ffff000000080388:	b9000fe0 	str	w0, [sp, #12]
ffff00000008038c:	b9001fff 	str	wzr, [sp, #28]
ffff000000080390:	1400001d 	b	ffff000000080404 <node_index_to_order+0x80>
ffff000000080394:	b9401fe0 	ldr	w0, [sp, #28]
ffff000000080398:	52800021 	mov	w1, #0x1                   	// #1
ffff00000008039c:	1ac02020 	lsl	w0, w1, w0
ffff0000000803a0:	51000400 	sub	w0, w0, #0x1
ffff0000000803a4:	b9001be0 	str	w0, [sp, #24]
ffff0000000803a8:	b9401fe0 	ldr	w0, [sp, #28]
ffff0000000803ac:	11000400 	add	w0, w0, #0x1
ffff0000000803b0:	52800021 	mov	w1, #0x1                   	// #1
ffff0000000803b4:	1ac02020 	lsl	w0, w1, w0
ffff0000000803b8:	51000800 	sub	w0, w0, #0x2
ffff0000000803bc:	b90017e0 	str	w0, [sp, #20]
ffff0000000803c0:	b9400fe1 	ldr	w1, [sp, #12]
ffff0000000803c4:	b9401be0 	ldr	w0, [sp, #24]
ffff0000000803c8:	6b00003f 	cmp	w1, w0
ffff0000000803cc:	5400016b 	b.lt	ffff0000000803f8 <node_index_to_order+0x74>  // b.tstop
ffff0000000803d0:	b9400fe1 	ldr	w1, [sp, #12]
ffff0000000803d4:	b94017e0 	ldr	w0, [sp, #20]
ffff0000000803d8:	6b00003f 	cmp	w1, w0
ffff0000000803dc:	540000ec 	b.gt	ffff0000000803f8 <node_index_to_order+0x74>
ffff0000000803e0:	d0000080 	adrp	x0, ffff000000092000 <pool_slots+0xe38>
ffff0000000803e4:	f9441400 	ldr	x0, [x0, #2088]
ffff0000000803e8:	b9400001 	ldr	w1, [x0]
ffff0000000803ec:	b9401fe0 	ldr	w0, [sp, #28]
ffff0000000803f0:	4b000020 	sub	w0, w1, w0
ffff0000000803f4:	1400000b 	b	ffff000000080420 <node_index_to_order+0x9c>
ffff0000000803f8:	b9401fe0 	ldr	w0, [sp, #28]
ffff0000000803fc:	11000400 	add	w0, w0, #0x1
ffff000000080400:	b9001fe0 	str	w0, [sp, #28]
ffff000000080404:	d0000080 	adrp	x0, ffff000000092000 <pool_slots+0xe38>
ffff000000080408:	f9441400 	ldr	x0, [x0, #2088]
ffff00000008040c:	b9400000 	ldr	w0, [x0]
ffff000000080410:	b9401fe1 	ldr	w1, [sp, #28]
ffff000000080414:	6b00003f 	cmp	w1, w0
ffff000000080418:	54fffbed 	b.le	ffff000000080394 <node_index_to_order+0x10>
ffff00000008041c:	12800000 	mov	w0, #0xffffffff            	// #-1
ffff000000080420:	910083ff 	add	sp, sp, #0x20
ffff000000080424:	d65f03c0 	ret

ffff000000080428 <dump_allocated_nodes>:
ffff000000080428:	a9bd7bfd 	stp	x29, x30, [sp, #-48]!
ffff00000008042c:	910003fd 	mov	x29, sp
ffff000000080430:	b0000060 	adrp	x0, ffff00000008d000 <sync_invalid_el1t+0x7c>
ffff000000080434:	91340000 	add	x0, x0, #0xd00
ffff000000080438:	94001921 	bl	ffff0000000868bc <uart_write_str>
ffff00000008043c:	b9002fff 	str	wzr, [sp, #44]
ffff000000080440:	14000031 	b	ffff000000080504 <dump_allocated_nodes+0xdc>
ffff000000080444:	d0000080 	adrp	x0, ffff000000092000 <pool_slots+0xe38>
ffff000000080448:	f943c800 	ldr	x0, [x0, #1936]
ffff00000008044c:	f9400001 	ldr	x1, [x0]
ffff000000080450:	b9802fe0 	ldrsw	x0, [sp, #44]
ffff000000080454:	d37ef400 	lsl	x0, x0, #2
ffff000000080458:	8b000020 	add	x0, x1, x0
ffff00000008045c:	b9400000 	ldr	w0, [x0]
ffff000000080460:	7100081f 	cmp	w0, #0x2
ffff000000080464:	540004a1 	b.ne	ffff0000000804f8 <dump_allocated_nodes+0xd0>  // b.any
ffff000000080468:	b9402fe0 	ldr	w0, [sp, #44]
ffff00000008046c:	97ffffc6 	bl	ffff000000080384 <node_index_to_order>
ffff000000080470:	b9002be0 	str	w0, [sp, #40]
ffff000000080474:	b9402be1 	ldr	w1, [sp, #40]
ffff000000080478:	b9402fe0 	ldr	w0, [sp, #44]
ffff00000008047c:	97ffff7b 	bl	ffff000000080268 <get_page_index>
ffff000000080480:	93407c00 	sxtw	x0, w0
ffff000000080484:	f90013e0 	str	x0, [sp, #32]
ffff000000080488:	b9402be0 	ldr	w0, [sp, #40]
ffff00000008048c:	52800021 	mov	w1, #0x1                   	// #1
ffff000000080490:	1ac02020 	lsl	w0, w1, w0
ffff000000080494:	93407c01 	sxtw	x1, w0
ffff000000080498:	f94013e0 	ldr	x0, [sp, #32]
ffff00000008049c:	8b000020 	add	x0, x1, x0
ffff0000000804a0:	d1000400 	sub	x0, x0, #0x1
ffff0000000804a4:	f9000fe0 	str	x0, [sp, #24]
ffff0000000804a8:	b0000060 	adrp	x0, ffff00000008d000 <sync_invalid_el1t+0x7c>
ffff0000000804ac:	91348000 	add	x0, x0, #0xd20
ffff0000000804b0:	94001903 	bl	ffff0000000868bc <uart_write_str>
ffff0000000804b4:	b9402fe0 	ldr	w0, [sp, #44]
ffff0000000804b8:	940019b7 	bl	ffff000000086b94 <uart_write_int>
ffff0000000804bc:	b0000060 	adrp	x0, ffff00000008d000 <sync_invalid_el1t+0x7c>
ffff0000000804c0:	9134c000 	add	x0, x0, #0xd30
ffff0000000804c4:	940018fe 	bl	ffff0000000868bc <uart_write_str>
ffff0000000804c8:	f94013e0 	ldr	x0, [sp, #32]
ffff0000000804cc:	940019b2 	bl	ffff000000086b94 <uart_write_int>
ffff0000000804d0:	b0000060 	adrp	x0, ffff00000008d000 <sync_invalid_el1t+0x7c>
ffff0000000804d4:	9133c000 	add	x0, x0, #0xcf0
ffff0000000804d8:	940018f9 	bl	ffff0000000868bc <uart_write_str>
ffff0000000804dc:	f9400fe0 	ldr	x0, [sp, #24]
ffff0000000804e0:	940019ad 	bl	ffff000000086b94 <uart_write_int>
ffff0000000804e4:	b0000060 	adrp	x0, ffff00000008d000 <sync_invalid_el1t+0x7c>
ffff0000000804e8:	91350000 	add	x0, x0, #0xd40
ffff0000000804ec:	940018f4 	bl	ffff0000000868bc <uart_write_str>
ffff0000000804f0:	b9402be0 	ldr	w0, [sp, #40]
ffff0000000804f4:	940019a8 	bl	ffff000000086b94 <uart_write_int>
ffff0000000804f8:	b9402fe0 	ldr	w0, [sp, #44]
ffff0000000804fc:	11000400 	add	w0, w0, #0x1
ffff000000080500:	b9002fe0 	str	w0, [sp, #44]
ffff000000080504:	d0000080 	adrp	x0, ffff000000092000 <pool_slots+0xe38>
ffff000000080508:	f943a800 	ldr	x0, [x0, #1872]
ffff00000008050c:	b9400000 	ldr	w0, [x0]
ffff000000080510:	b9402fe1 	ldr	w1, [sp, #44]
ffff000000080514:	6b00003f 	cmp	w1, w0
ffff000000080518:	54fff96b 	b.lt	ffff000000080444 <dump_allocated_nodes+0x1c>  // b.tstop
ffff00000008051c:	d503201f 	nop
ffff000000080520:	d503201f 	nop
ffff000000080524:	a8c37bfd 	ldp	x29, x30, [sp], #48
ffff000000080528:	d65f03c0 	ret

ffff00000008052c <dump_node_info_by_index>:
ffff00000008052c:	a9bc7bfd 	stp	x29, x30, [sp, #-64]!
ffff000000080530:	910003fd 	mov	x29, sp
ffff000000080534:	b9001fe0 	str	w0, [sp, #28]
ffff000000080538:	b9401fe0 	ldr	w0, [sp, #28]
ffff00000008053c:	7100001f 	cmp	w0, #0x0
ffff000000080540:	54000b8b 	b.lt	ffff0000000806b0 <dump_node_info_by_index+0x184>  // b.tstop
ffff000000080544:	d0000080 	adrp	x0, ffff000000092000 <pool_slots+0xe38>
ffff000000080548:	f943a800 	ldr	x0, [x0, #1872]
ffff00000008054c:	b9400000 	ldr	w0, [x0]
ffff000000080550:	b9401fe1 	ldr	w1, [sp, #28]
ffff000000080554:	6b00003f 	cmp	w1, w0
ffff000000080558:	54000aca 	b.ge	ffff0000000806b0 <dump_node_info_by_index+0x184>  // b.tcont
ffff00000008055c:	b9401fe0 	ldr	w0, [sp, #28]
ffff000000080560:	97ffff89 	bl	ffff000000080384 <node_index_to_order>
ffff000000080564:	b9003fe0 	str	w0, [sp, #60]
ffff000000080568:	b9403fe1 	ldr	w1, [sp, #60]
ffff00000008056c:	b9401fe0 	ldr	w0, [sp, #28]
ffff000000080570:	97ffff24 	bl	ffff000000080200 <node_index_to_addr>
ffff000000080574:	f9001be0 	str	x0, [sp, #48]
ffff000000080578:	d0000080 	adrp	x0, ffff000000092000 <pool_slots+0xe38>
ffff00000008057c:	f943d400 	ldr	x0, [x0, #1960]
ffff000000080580:	f9400000 	ldr	x0, [x0]
ffff000000080584:	f9401be1 	ldr	x1, [sp, #48]
ffff000000080588:	cb000020 	sub	x0, x1, x0
ffff00000008058c:	d34cfc00 	lsr	x0, x0, #12
ffff000000080590:	f90017e0 	str	x0, [sp, #40]
ffff000000080594:	b0000060 	adrp	x0, ffff00000008d000 <sync_invalid_el1t+0x7c>
ffff000000080598:	91354000 	add	x0, x0, #0xd50
ffff00000008059c:	940018c8 	bl	ffff0000000868bc <uart_write_str>
ffff0000000805a0:	f9401be0 	ldr	x0, [sp, #48]
ffff0000000805a4:	940019e0 	bl	ffff000000086d24 <uart_write_hex>
ffff0000000805a8:	b0000060 	adrp	x0, ffff00000008d000 <sync_invalid_el1t+0x7c>
ffff0000000805ac:	9135c000 	add	x0, x0, #0xd70
ffff0000000805b0:	940018c3 	bl	ffff0000000868bc <uart_write_str>
ffff0000000805b4:	b9401fe0 	ldr	w0, [sp, #28]
ffff0000000805b8:	94001977 	bl	ffff000000086b94 <uart_write_int>
ffff0000000805bc:	b0000060 	adrp	x0, ffff00000008d000 <sync_invalid_el1t+0x7c>
ffff0000000805c0:	91360000 	add	x0, x0, #0xd80
ffff0000000805c4:	940018be 	bl	ffff0000000868bc <uart_write_str>
ffff0000000805c8:	b9403fe0 	ldr	w0, [sp, #60]
ffff0000000805cc:	94001972 	bl	ffff000000086b94 <uart_write_int>
ffff0000000805d0:	b0000060 	adrp	x0, ffff00000008d000 <sync_invalid_el1t+0x7c>
ffff0000000805d4:	91364000 	add	x0, x0, #0xd90
ffff0000000805d8:	940018b9 	bl	ffff0000000868bc <uart_write_str>
ffff0000000805dc:	f94017e0 	ldr	x0, [sp, #40]
ffff0000000805e0:	9400196d 	bl	ffff000000086b94 <uart_write_int>
ffff0000000805e4:	b0000060 	adrp	x0, ffff00000008d000 <sync_invalid_el1t+0x7c>
ffff0000000805e8:	91368000 	add	x0, x0, #0xda0
ffff0000000805ec:	940018b4 	bl	ffff0000000868bc <uart_write_str>
ffff0000000805f0:	d0000080 	adrp	x0, ffff000000092000 <pool_slots+0xe38>
ffff0000000805f4:	f943c800 	ldr	x0, [x0, #1936]
ffff0000000805f8:	f9400001 	ldr	x1, [x0]
ffff0000000805fc:	b9801fe0 	ldrsw	x0, [sp, #28]
ffff000000080600:	d37ef400 	lsl	x0, x0, #2
ffff000000080604:	8b000020 	add	x0, x1, x0
ffff000000080608:	b9400000 	ldr	w0, [x0]
ffff00000008060c:	7100101f 	cmp	w0, #0x4
ffff000000080610:	54000400 	b.eq	ffff000000080690 <dump_node_info_by_index+0x164>  // b.none
ffff000000080614:	7100101f 	cmp	w0, #0x4
ffff000000080618:	54000448 	b.hi	ffff0000000806a0 <dump_node_info_by_index+0x174>  // b.pmore
ffff00000008061c:	71000c1f 	cmp	w0, #0x3
ffff000000080620:	54000300 	b.eq	ffff000000080680 <dump_node_info_by_index+0x154>  // b.none
ffff000000080624:	71000c1f 	cmp	w0, #0x3
ffff000000080628:	540003c8 	b.hi	ffff0000000806a0 <dump_node_info_by_index+0x174>  // b.pmore
ffff00000008062c:	7100081f 	cmp	w0, #0x2
ffff000000080630:	54000200 	b.eq	ffff000000080670 <dump_node_info_by_index+0x144>  // b.none
ffff000000080634:	7100081f 	cmp	w0, #0x2
ffff000000080638:	54000348 	b.hi	ffff0000000806a0 <dump_node_info_by_index+0x174>  // b.pmore
ffff00000008063c:	7100001f 	cmp	w0, #0x0
ffff000000080640:	54000080 	b.eq	ffff000000080650 <dump_node_info_by_index+0x124>  // b.none
ffff000000080644:	7100041f 	cmp	w0, #0x1
ffff000000080648:	540000c0 	b.eq	ffff000000080660 <dump_node_info_by_index+0x134>  // b.none
ffff00000008064c:	14000015 	b	ffff0000000806a0 <dump_node_info_by_index+0x174>
ffff000000080650:	b0000060 	adrp	x0, ffff00000008d000 <sync_invalid_el1t+0x7c>
ffff000000080654:	9136c000 	add	x0, x0, #0xdb0
ffff000000080658:	94001899 	bl	ffff0000000868bc <uart_write_str>
ffff00000008065c:	14000016 	b	ffff0000000806b4 <dump_node_info_by_index+0x188>
ffff000000080660:	b0000060 	adrp	x0, ffff00000008d000 <sync_invalid_el1t+0x7c>
ffff000000080664:	91370000 	add	x0, x0, #0xdc0
ffff000000080668:	94001895 	bl	ffff0000000868bc <uart_write_str>
ffff00000008066c:	14000012 	b	ffff0000000806b4 <dump_node_info_by_index+0x188>
ffff000000080670:	b0000060 	adrp	x0, ffff00000008d000 <sync_invalid_el1t+0x7c>
ffff000000080674:	91374000 	add	x0, x0, #0xdd0
ffff000000080678:	94001891 	bl	ffff0000000868bc <uart_write_str>
ffff00000008067c:	1400000e 	b	ffff0000000806b4 <dump_node_info_by_index+0x188>
ffff000000080680:	b0000060 	adrp	x0, ffff00000008d000 <sync_invalid_el1t+0x7c>
ffff000000080684:	91376000 	add	x0, x0, #0xdd8
ffff000000080688:	9400188d 	bl	ffff0000000868bc <uart_write_str>
ffff00000008068c:	1400000a 	b	ffff0000000806b4 <dump_node_info_by_index+0x188>
ffff000000080690:	b0000060 	adrp	x0, ffff00000008d000 <sync_invalid_el1t+0x7c>
ffff000000080694:	91378000 	add	x0, x0, #0xde0
ffff000000080698:	94001889 	bl	ffff0000000868bc <uart_write_str>
ffff00000008069c:	14000006 	b	ffff0000000806b4 <dump_node_info_by_index+0x188>
ffff0000000806a0:	b0000060 	adrp	x0, ffff00000008d000 <sync_invalid_el1t+0x7c>
ffff0000000806a4:	9137a000 	add	x0, x0, #0xde8
ffff0000000806a8:	94001885 	bl	ffff0000000868bc <uart_write_str>
ffff0000000806ac:	14000002 	b	ffff0000000806b4 <dump_node_info_by_index+0x188>
ffff0000000806b0:	d503201f 	nop
ffff0000000806b4:	a8c47bfd 	ldp	x29, x30, [sp], #64
ffff0000000806b8:	d65f03c0 	ret

ffff0000000806bc <dump_node_info_by_addr>:
ffff0000000806bc:	a9bb7bfd 	stp	x29, x30, [sp, #-80]!
ffff0000000806c0:	910003fd 	mov	x29, sp
ffff0000000806c4:	f9000fe0 	str	x0, [sp, #24]
ffff0000000806c8:	b90017e1 	str	w1, [sp, #20]
ffff0000000806cc:	b94017e0 	ldr	w0, [sp, #20]
ffff0000000806d0:	3100041f 	cmn	w0, #0x1
ffff0000000806d4:	54001261 	b.ne	ffff000000080920 <dump_node_info_by_addr+0x264>  // b.any
ffff0000000806d8:	b9004fff 	str	wzr, [sp, #76]
ffff0000000806dc:	d0000080 	adrp	x0, ffff000000092000 <pool_slots+0xe38>
ffff0000000806e0:	f9441400 	ldr	x0, [x0, #2088]
ffff0000000806e4:	b9400000 	ldr	w0, [x0]
ffff0000000806e8:	b9004be0 	str	w0, [sp, #72]
ffff0000000806ec:	14000084 	b	ffff0000000808fc <dump_node_info_by_addr+0x240>
ffff0000000806f0:	b9404be1 	ldr	w1, [sp, #72]
ffff0000000806f4:	b9404fe0 	ldr	w0, [sp, #76]
ffff0000000806f8:	97fffec2 	bl	ffff000000080200 <node_index_to_addr>
ffff0000000806fc:	f9001fe0 	str	x0, [sp, #56]
ffff000000080700:	b9404be0 	ldr	w0, [sp, #72]
ffff000000080704:	52820001 	mov	w1, #0x1000                	// #4096
ffff000000080708:	1ac02020 	lsl	w0, w1, w0
ffff00000008070c:	93407c01 	sxtw	x1, w0
ffff000000080710:	f9401fe0 	ldr	x0, [sp, #56]
ffff000000080714:	8b000020 	add	x0, x1, x0
ffff000000080718:	d1000400 	sub	x0, x0, #0x1
ffff00000008071c:	f9001be0 	str	x0, [sp, #48]
ffff000000080720:	f9400fe1 	ldr	x1, [sp, #24]
ffff000000080724:	f9401fe0 	ldr	x0, [sp, #56]
ffff000000080728:	eb00003f 	cmp	x1, x0
ffff00000008072c:	540000a3 	b.cc	ffff000000080740 <dump_node_info_by_addr+0x84>  // b.lo, b.ul, b.last
ffff000000080730:	f9400fe1 	ldr	x1, [sp, #24]
ffff000000080734:	f9401be0 	ldr	x0, [sp, #48]
ffff000000080738:	eb00003f 	cmp	x1, x0
ffff00000008073c:	540000a9 	b.ls	ffff000000080750 <dump_node_info_by_addr+0x94>  // b.plast
ffff000000080740:	b0000060 	adrp	x0, ffff00000008d000 <sync_invalid_el1t+0x7c>
ffff000000080744:	9137c000 	add	x0, x0, #0xdf0
ffff000000080748:	9400185d 	bl	ffff0000000868bc <uart_write_str>
ffff00000008074c:	14000084 	b	ffff00000008095c <dump_node_info_by_addr+0x2a0>
ffff000000080750:	d0000080 	adrp	x0, ffff000000092000 <pool_slots+0xe38>
ffff000000080754:	f943c800 	ldr	x0, [x0, #1936]
ffff000000080758:	f9400001 	ldr	x1, [x0]
ffff00000008075c:	b9804fe0 	ldrsw	x0, [sp, #76]
ffff000000080760:	d37ef400 	lsl	x0, x0, #2
ffff000000080764:	8b000020 	add	x0, x1, x0
ffff000000080768:	b9400000 	ldr	w0, [x0]
ffff00000008076c:	7100101f 	cmp	w0, #0x4
ffff000000080770:	54000960 	b.eq	ffff00000008089c <dump_node_info_by_addr+0x1e0>  // b.none
ffff000000080774:	b0000060 	adrp	x0, ffff00000008d000 <sync_invalid_el1t+0x7c>
ffff000000080778:	91354000 	add	x0, x0, #0xd50
ffff00000008077c:	94001850 	bl	ffff0000000868bc <uart_write_str>
ffff000000080780:	f9400fe0 	ldr	x0, [sp, #24]
ffff000000080784:	94001968 	bl	ffff000000086d24 <uart_write_hex>
ffff000000080788:	b0000060 	adrp	x0, ffff00000008d000 <sync_invalid_el1t+0x7c>
ffff00000008078c:	9135c000 	add	x0, x0, #0xd70
ffff000000080790:	9400184b 	bl	ffff0000000868bc <uart_write_str>
ffff000000080794:	b9404fe0 	ldr	w0, [sp, #76]
ffff000000080798:	940018ff 	bl	ffff000000086b94 <uart_write_int>
ffff00000008079c:	b0000060 	adrp	x0, ffff00000008d000 <sync_invalid_el1t+0x7c>
ffff0000000807a0:	91360000 	add	x0, x0, #0xd80
ffff0000000807a4:	94001846 	bl	ffff0000000868bc <uart_write_str>
ffff0000000807a8:	b9404be0 	ldr	w0, [sp, #72]
ffff0000000807ac:	940018fa 	bl	ffff000000086b94 <uart_write_int>
ffff0000000807b0:	b0000060 	adrp	x0, ffff00000008d000 <sync_invalid_el1t+0x7c>
ffff0000000807b4:	91364000 	add	x0, x0, #0xd90
ffff0000000807b8:	94001841 	bl	ffff0000000868bc <uart_write_str>
ffff0000000807bc:	b9404be1 	ldr	w1, [sp, #72]
ffff0000000807c0:	b9404fe0 	ldr	w0, [sp, #76]
ffff0000000807c4:	97fffea9 	bl	ffff000000080268 <get_page_index>
ffff0000000807c8:	940018f3 	bl	ffff000000086b94 <uart_write_int>
ffff0000000807cc:	b0000060 	adrp	x0, ffff00000008d000 <sync_invalid_el1t+0x7c>
ffff0000000807d0:	91368000 	add	x0, x0, #0xda0
ffff0000000807d4:	9400183a 	bl	ffff0000000868bc <uart_write_str>
ffff0000000807d8:	d0000080 	adrp	x0, ffff000000092000 <pool_slots+0xe38>
ffff0000000807dc:	f943c800 	ldr	x0, [x0, #1936]
ffff0000000807e0:	f9400001 	ldr	x1, [x0]
ffff0000000807e4:	b9804fe0 	ldrsw	x0, [sp, #76]
ffff0000000807e8:	d37ef400 	lsl	x0, x0, #2
ffff0000000807ec:	8b000020 	add	x0, x1, x0
ffff0000000807f0:	b9400000 	ldr	w0, [x0]
ffff0000000807f4:	7100101f 	cmp	w0, #0x4
ffff0000000807f8:	54000400 	b.eq	ffff000000080878 <dump_node_info_by_addr+0x1bc>  // b.none
ffff0000000807fc:	7100101f 	cmp	w0, #0x4
ffff000000080800:	54000448 	b.hi	ffff000000080888 <dump_node_info_by_addr+0x1cc>  // b.pmore
ffff000000080804:	71000c1f 	cmp	w0, #0x3
ffff000000080808:	54000300 	b.eq	ffff000000080868 <dump_node_info_by_addr+0x1ac>  // b.none
ffff00000008080c:	71000c1f 	cmp	w0, #0x3
ffff000000080810:	540003c8 	b.hi	ffff000000080888 <dump_node_info_by_addr+0x1cc>  // b.pmore
ffff000000080814:	7100081f 	cmp	w0, #0x2
ffff000000080818:	54000200 	b.eq	ffff000000080858 <dump_node_info_by_addr+0x19c>  // b.none
ffff00000008081c:	7100081f 	cmp	w0, #0x2
ffff000000080820:	54000348 	b.hi	ffff000000080888 <dump_node_info_by_addr+0x1cc>  // b.pmore
ffff000000080824:	7100001f 	cmp	w0, #0x0
ffff000000080828:	54000080 	b.eq	ffff000000080838 <dump_node_info_by_addr+0x17c>  // b.none
ffff00000008082c:	7100041f 	cmp	w0, #0x1
ffff000000080830:	540000c0 	b.eq	ffff000000080848 <dump_node_info_by_addr+0x18c>  // b.none
ffff000000080834:	14000015 	b	ffff000000080888 <dump_node_info_by_addr+0x1cc>
ffff000000080838:	b0000060 	adrp	x0, ffff00000008d000 <sync_invalid_el1t+0x7c>
ffff00000008083c:	9136c000 	add	x0, x0, #0xdb0
ffff000000080840:	9400181f 	bl	ffff0000000868bc <uart_write_str>
ffff000000080844:	14000015 	b	ffff000000080898 <dump_node_info_by_addr+0x1dc>
ffff000000080848:	b0000060 	adrp	x0, ffff00000008d000 <sync_invalid_el1t+0x7c>
ffff00000008084c:	91370000 	add	x0, x0, #0xdc0
ffff000000080850:	9400181b 	bl	ffff0000000868bc <uart_write_str>
ffff000000080854:	14000011 	b	ffff000000080898 <dump_node_info_by_addr+0x1dc>
ffff000000080858:	b0000060 	adrp	x0, ffff00000008d000 <sync_invalid_el1t+0x7c>
ffff00000008085c:	91374000 	add	x0, x0, #0xdd0
ffff000000080860:	94001817 	bl	ffff0000000868bc <uart_write_str>
ffff000000080864:	1400000d 	b	ffff000000080898 <dump_node_info_by_addr+0x1dc>
ffff000000080868:	b0000060 	adrp	x0, ffff00000008d000 <sync_invalid_el1t+0x7c>
ffff00000008086c:	91376000 	add	x0, x0, #0xdd8
ffff000000080870:	94001813 	bl	ffff0000000868bc <uart_write_str>
ffff000000080874:	14000009 	b	ffff000000080898 <dump_node_info_by_addr+0x1dc>
ffff000000080878:	b0000060 	adrp	x0, ffff00000008d000 <sync_invalid_el1t+0x7c>
ffff00000008087c:	91378000 	add	x0, x0, #0xde0
ffff000000080880:	9400180f 	bl	ffff0000000868bc <uart_write_str>
ffff000000080884:	14000005 	b	ffff000000080898 <dump_node_info_by_addr+0x1dc>
ffff000000080888:	b0000060 	adrp	x0, ffff00000008d000 <sync_invalid_el1t+0x7c>
ffff00000008088c:	9137a000 	add	x0, x0, #0xde8
ffff000000080890:	9400180b 	bl	ffff0000000868bc <uart_write_str>
ffff000000080894:	d503201f 	nop
ffff000000080898:	14000031 	b	ffff00000008095c <dump_node_info_by_addr+0x2a0>
ffff00000008089c:	b9404be0 	ldr	w0, [sp, #72]
ffff0000000808a0:	52820001 	mov	w1, #0x1000                	// #4096
ffff0000000808a4:	1ac02020 	lsl	w0, w1, w0
ffff0000000808a8:	531f7c01 	lsr	w1, w0, #31
ffff0000000808ac:	0b000020 	add	w0, w1, w0
ffff0000000808b0:	13017c00 	asr	w0, w0, #1
ffff0000000808b4:	93407c00 	sxtw	x0, w0
ffff0000000808b8:	f9401fe1 	ldr	x1, [sp, #56]
ffff0000000808bc:	8b000020 	add	x0, x1, x0
ffff0000000808c0:	f90017e0 	str	x0, [sp, #40]
ffff0000000808c4:	f9400fe1 	ldr	x1, [sp, #24]
ffff0000000808c8:	f94017e0 	ldr	x0, [sp, #40]
ffff0000000808cc:	eb00003f 	cmp	x1, x0
ffff0000000808d0:	540000a2 	b.cs	ffff0000000808e4 <dump_node_info_by_addr+0x228>  // b.hs, b.nlast
ffff0000000808d4:	b9404fe0 	ldr	w0, [sp, #76]
ffff0000000808d8:	97fffe33 	bl	ffff0000000801a4 <left_child>
ffff0000000808dc:	b9004fe0 	str	w0, [sp, #76]
ffff0000000808e0:	14000004 	b	ffff0000000808f0 <dump_node_info_by_addr+0x234>
ffff0000000808e4:	b9404fe0 	ldr	w0, [sp, #76]
ffff0000000808e8:	97fffe36 	bl	ffff0000000801c0 <right_child>
ffff0000000808ec:	b9004fe0 	str	w0, [sp, #76]
ffff0000000808f0:	b9404be0 	ldr	w0, [sp, #72]
ffff0000000808f4:	51000400 	sub	w0, w0, #0x1
ffff0000000808f8:	b9004be0 	str	w0, [sp, #72]
ffff0000000808fc:	b9404be0 	ldr	w0, [sp, #72]
ffff000000080900:	7100001f 	cmp	w0, #0x0
ffff000000080904:	54ffef6a 	b.ge	ffff0000000806f0 <dump_node_info_by_addr+0x34>  // b.tcont
ffff000000080908:	b0000060 	adrp	x0, ffff00000008d000 <sync_invalid_el1t+0x7c>
ffff00000008090c:	91388000 	add	x0, x0, #0xe20
ffff000000080910:	940017eb 	bl	ffff0000000868bc <uart_write_str>
ffff000000080914:	f9400fe0 	ldr	x0, [sp, #24]
ffff000000080918:	94001903 	bl	ffff000000086d24 <uart_write_hex>
ffff00000008091c:	14000010 	b	ffff00000008095c <dump_node_info_by_addr+0x2a0>
ffff000000080920:	b94017e1 	ldr	w1, [sp, #20]
ffff000000080924:	f9400fe0 	ldr	x0, [sp, #24]
ffff000000080928:	97fffe60 	bl	ffff0000000802a8 <addr_to_node_index>
ffff00000008092c:	b90047e0 	str	w0, [sp, #68]
ffff000000080930:	b94047e0 	ldr	w0, [sp, #68]
ffff000000080934:	7100001f 	cmp	w0, #0x0
ffff000000080938:	5400008b 	b.lt	ffff000000080948 <dump_node_info_by_addr+0x28c>  // b.tstop
ffff00000008093c:	b94047e0 	ldr	w0, [sp, #68]
ffff000000080940:	97fffefb 	bl	ffff00000008052c <dump_node_info_by_index>
ffff000000080944:	14000006 	b	ffff00000008095c <dump_node_info_by_addr+0x2a0>
ffff000000080948:	b0000060 	adrp	x0, ffff00000008d000 <sync_invalid_el1t+0x7c>
ffff00000008094c:	91396000 	add	x0, x0, #0xe58
ffff000000080950:	940017db 	bl	ffff0000000868bc <uart_write_str>
ffff000000080954:	b94017e0 	ldr	w0, [sp, #20]
ffff000000080958:	9400188f 	bl	ffff000000086b94 <uart_write_int>
ffff00000008095c:	a8c57bfd 	ldp	x29, x30, [sp], #80
ffff000000080960:	d65f03c0 	ret

ffff000000080964 <dump_tree_path_to_addr>:
ffff000000080964:	a9bc7bfd 	stp	x29, x30, [sp, #-64]!
ffff000000080968:	910003fd 	mov	x29, sp
ffff00000008096c:	f9000fe0 	str	x0, [sp, #24]
ffff000000080970:	b90017e1 	str	w1, [sp, #20]
ffff000000080974:	b9003fff 	str	wzr, [sp, #60]
ffff000000080978:	d0000080 	adrp	x0, ffff000000092000 <pool_slots+0xe38>
ffff00000008097c:	f9441400 	ldr	x0, [x0, #2088]
ffff000000080980:	b9400000 	ldr	w0, [x0]
ffff000000080984:	b9003be0 	str	w0, [sp, #56]
ffff000000080988:	b0000060 	adrp	x0, ffff00000008d000 <sync_invalid_el1t+0x7c>
ffff00000008098c:	913a4000 	add	x0, x0, #0xe90
ffff000000080990:	940017cb 	bl	ffff0000000868bc <uart_write_str>
ffff000000080994:	f9400fe0 	ldr	x0, [sp, #24]
ffff000000080998:	940018e3 	bl	ffff000000086d24 <uart_write_hex>
ffff00000008099c:	b0000060 	adrp	x0, ffff00000008d000 <sync_invalid_el1t+0x7c>
ffff0000000809a0:	913aa000 	add	x0, x0, #0xea8
ffff0000000809a4:	940017c6 	bl	ffff0000000868bc <uart_write_str>
ffff0000000809a8:	b94017e0 	ldr	w0, [sp, #20]
ffff0000000809ac:	9400187a 	bl	ffff000000086b94 <uart_write_int>
ffff0000000809b0:	b0000060 	adrp	x0, ffff00000008d000 <sync_invalid_el1t+0x7c>
ffff0000000809b4:	913b0000 	add	x0, x0, #0xec0
ffff0000000809b8:	940017c1 	bl	ffff0000000868bc <uart_write_str>
ffff0000000809bc:	1400005f 	b	ffff000000080b38 <dump_tree_path_to_addr+0x1d4>
ffff0000000809c0:	b9403be1 	ldr	w1, [sp, #56]
ffff0000000809c4:	b9403fe0 	ldr	w0, [sp, #60]
ffff0000000809c8:	97fffe0e 	bl	ffff000000080200 <node_index_to_addr>
ffff0000000809cc:	f9001be0 	str	x0, [sp, #48]
ffff0000000809d0:	b0000060 	adrp	x0, ffff00000008d000 <sync_invalid_el1t+0x7c>
ffff0000000809d4:	913b2000 	add	x0, x0, #0xec8
ffff0000000809d8:	940017b9 	bl	ffff0000000868bc <uart_write_str>
ffff0000000809dc:	b9403fe0 	ldr	w0, [sp, #60]
ffff0000000809e0:	9400186d 	bl	ffff000000086b94 <uart_write_int>
ffff0000000809e4:	b0000060 	adrp	x0, ffff00000008d000 <sync_invalid_el1t+0x7c>
ffff0000000809e8:	913b6000 	add	x0, x0, #0xed8
ffff0000000809ec:	940017b4 	bl	ffff0000000868bc <uart_write_str>
ffff0000000809f0:	f9401be0 	ldr	x0, [sp, #48]
ffff0000000809f4:	940018cc 	bl	ffff000000086d24 <uart_write_hex>
ffff0000000809f8:	b0000060 	adrp	x0, ffff00000008d000 <sync_invalid_el1t+0x7c>
ffff0000000809fc:	913ba000 	add	x0, x0, #0xee8
ffff000000080a00:	940017af 	bl	ffff0000000868bc <uart_write_str>
ffff000000080a04:	b9403be0 	ldr	w0, [sp, #56]
ffff000000080a08:	94001863 	bl	ffff000000086b94 <uart_write_int>
ffff000000080a0c:	b0000060 	adrp	x0, ffff00000008d000 <sync_invalid_el1t+0x7c>
ffff000000080a10:	913be000 	add	x0, x0, #0xef8
ffff000000080a14:	940017aa 	bl	ffff0000000868bc <uart_write_str>
ffff000000080a18:	d0000080 	adrp	x0, ffff000000092000 <pool_slots+0xe38>
ffff000000080a1c:	f943c800 	ldr	x0, [x0, #1936]
ffff000000080a20:	f9400001 	ldr	x1, [x0]
ffff000000080a24:	b9803fe0 	ldrsw	x0, [sp, #60]
ffff000000080a28:	d37ef400 	lsl	x0, x0, #2
ffff000000080a2c:	8b000020 	add	x0, x1, x0
ffff000000080a30:	b9400000 	ldr	w0, [x0]
ffff000000080a34:	7100101f 	cmp	w0, #0x4
ffff000000080a38:	54000400 	b.eq	ffff000000080ab8 <dump_tree_path_to_addr+0x154>  // b.none
ffff000000080a3c:	7100101f 	cmp	w0, #0x4
ffff000000080a40:	54000448 	b.hi	ffff000000080ac8 <dump_tree_path_to_addr+0x164>  // b.pmore
ffff000000080a44:	71000c1f 	cmp	w0, #0x3
ffff000000080a48:	54000300 	b.eq	ffff000000080aa8 <dump_tree_path_to_addr+0x144>  // b.none
ffff000000080a4c:	71000c1f 	cmp	w0, #0x3
ffff000000080a50:	540003c8 	b.hi	ffff000000080ac8 <dump_tree_path_to_addr+0x164>  // b.pmore
ffff000000080a54:	7100081f 	cmp	w0, #0x2
ffff000000080a58:	54000200 	b.eq	ffff000000080a98 <dump_tree_path_to_addr+0x134>  // b.none
ffff000000080a5c:	7100081f 	cmp	w0, #0x2
ffff000000080a60:	54000348 	b.hi	ffff000000080ac8 <dump_tree_path_to_addr+0x164>  // b.pmore
ffff000000080a64:	7100001f 	cmp	w0, #0x0
ffff000000080a68:	54000080 	b.eq	ffff000000080a78 <dump_tree_path_to_addr+0x114>  // b.none
ffff000000080a6c:	7100041f 	cmp	w0, #0x1
ffff000000080a70:	540000c0 	b.eq	ffff000000080a88 <dump_tree_path_to_addr+0x124>  // b.none
ffff000000080a74:	14000015 	b	ffff000000080ac8 <dump_tree_path_to_addr+0x164>
ffff000000080a78:	b0000060 	adrp	x0, ffff00000008d000 <sync_invalid_el1t+0x7c>
ffff000000080a7c:	9136c000 	add	x0, x0, #0xdb0
ffff000000080a80:	9400178f 	bl	ffff0000000868bc <uart_write_str>
ffff000000080a84:	14000011 	b	ffff000000080ac8 <dump_tree_path_to_addr+0x164>
ffff000000080a88:	b0000060 	adrp	x0, ffff00000008d000 <sync_invalid_el1t+0x7c>
ffff000000080a8c:	91370000 	add	x0, x0, #0xdc0
ffff000000080a90:	9400178b 	bl	ffff0000000868bc <uart_write_str>
ffff000000080a94:	1400000d 	b	ffff000000080ac8 <dump_tree_path_to_addr+0x164>
ffff000000080a98:	b0000060 	adrp	x0, ffff00000008d000 <sync_invalid_el1t+0x7c>
ffff000000080a9c:	91374000 	add	x0, x0, #0xdd0
ffff000000080aa0:	94001787 	bl	ffff0000000868bc <uart_write_str>
ffff000000080aa4:	14000009 	b	ffff000000080ac8 <dump_tree_path_to_addr+0x164>
ffff000000080aa8:	b0000060 	adrp	x0, ffff00000008d000 <sync_invalid_el1t+0x7c>
ffff000000080aac:	91376000 	add	x0, x0, #0xdd8
ffff000000080ab0:	94001783 	bl	ffff0000000868bc <uart_write_str>
ffff000000080ab4:	14000005 	b	ffff000000080ac8 <dump_tree_path_to_addr+0x164>
ffff000000080ab8:	b0000060 	adrp	x0, ffff00000008d000 <sync_invalid_el1t+0x7c>
ffff000000080abc:	91378000 	add	x0, x0, #0xde0
ffff000000080ac0:	9400177f 	bl	ffff0000000868bc <uart_write_str>
ffff000000080ac4:	d503201f 	nop
ffff000000080ac8:	b9403be1 	ldr	w1, [sp, #56]
ffff000000080acc:	b94017e0 	ldr	w0, [sp, #20]
ffff000000080ad0:	6b00003f 	cmp	w1, w0
ffff000000080ad4:	540003a0 	b.eq	ffff000000080b48 <dump_tree_path_to_addr+0x1e4>  // b.none
ffff000000080ad8:	b9403be0 	ldr	w0, [sp, #56]
ffff000000080adc:	52820001 	mov	w1, #0x1000                	// #4096
ffff000000080ae0:	1ac02020 	lsl	w0, w1, w0
ffff000000080ae4:	531f7c01 	lsr	w1, w0, #31
ffff000000080ae8:	0b000020 	add	w0, w1, w0
ffff000000080aec:	13017c00 	asr	w0, w0, #1
ffff000000080af0:	93407c00 	sxtw	x0, w0
ffff000000080af4:	f9401be1 	ldr	x1, [sp, #48]
ffff000000080af8:	8b000020 	add	x0, x1, x0
ffff000000080afc:	f90017e0 	str	x0, [sp, #40]
ffff000000080b00:	f9400fe1 	ldr	x1, [sp, #24]
ffff000000080b04:	f94017e0 	ldr	x0, [sp, #40]
ffff000000080b08:	eb00003f 	cmp	x1, x0
ffff000000080b0c:	540000a2 	b.cs	ffff000000080b20 <dump_tree_path_to_addr+0x1bc>  // b.hs, b.nlast
ffff000000080b10:	b9403fe0 	ldr	w0, [sp, #60]
ffff000000080b14:	97fffda4 	bl	ffff0000000801a4 <left_child>
ffff000000080b18:	b9003fe0 	str	w0, [sp, #60]
ffff000000080b1c:	14000004 	b	ffff000000080b2c <dump_tree_path_to_addr+0x1c8>
ffff000000080b20:	b9403fe0 	ldr	w0, [sp, #60]
ffff000000080b24:	97fffda7 	bl	ffff0000000801c0 <right_child>
ffff000000080b28:	b9003fe0 	str	w0, [sp, #60]
ffff000000080b2c:	b9403be0 	ldr	w0, [sp, #56]
ffff000000080b30:	51000400 	sub	w0, w0, #0x1
ffff000000080b34:	b9003be0 	str	w0, [sp, #56]
ffff000000080b38:	b9403be0 	ldr	w0, [sp, #56]
ffff000000080b3c:	7100001f 	cmp	w0, #0x0
ffff000000080b40:	54fff40a 	b.ge	ffff0000000809c0 <dump_tree_path_to_addr+0x5c>  // b.tcont
ffff000000080b44:	14000002 	b	ffff000000080b4c <dump_tree_path_to_addr+0x1e8>
ffff000000080b48:	d503201f 	nop
ffff000000080b4c:	d503201f 	nop
ffff000000080b50:	a8c47bfd 	ldp	x29, x30, [sp], #64
ffff000000080b54:	d65f03c0 	ret

ffff000000080b58 <dump_free_blocks>:
ffff000000080b58:	a9bd7bfd 	stp	x29, x30, [sp, #-48]!
ffff000000080b5c:	910003fd 	mov	x29, sp
ffff000000080b60:	b9001fe0 	str	w0, [sp, #28]
ffff000000080b64:	d0000080 	adrp	x0, ffff000000092000 <pool_slots+0xe38>
ffff000000080b68:	f9441400 	ldr	x0, [x0, #2088]
ffff000000080b6c:	b9400000 	ldr	w0, [x0]
ffff000000080b70:	b9401fe1 	ldr	w1, [sp, #28]
ffff000000080b74:	6b00003f 	cmp	w1, w0
ffff000000080b78:	540000ad 	b.le	ffff000000080b8c <dump_free_blocks+0x34>
ffff000000080b7c:	b0000060 	adrp	x0, ffff00000008d000 <sync_invalid_el1t+0x7c>
ffff000000080b80:	913c2000 	add	x0, x0, #0xf08
ffff000000080b84:	9400174e 	bl	ffff0000000868bc <uart_write_str>
ffff000000080b88:	14000063 	b	ffff000000080d14 <dump_free_blocks+0x1bc>
ffff000000080b8c:	b0000060 	adrp	x0, ffff00000008d000 <sync_invalid_el1t+0x7c>
ffff000000080b90:	913ca000 	add	x0, x0, #0xf28
ffff000000080b94:	9400174a 	bl	ffff0000000868bc <uart_write_str>
ffff000000080b98:	b9401fe0 	ldr	w0, [sp, #28]
ffff000000080b9c:	940017fe 	bl	ffff000000086b94 <uart_write_int>
ffff000000080ba0:	b0000060 	adrp	x0, ffff00000008d000 <sync_invalid_el1t+0x7c>
ffff000000080ba4:	913d2000 	add	x0, x0, #0xf48
ffff000000080ba8:	94001745 	bl	ffff0000000868bc <uart_write_str>
ffff000000080bac:	b9002fff 	str	wzr, [sp, #44]
ffff000000080bb0:	d0000080 	adrp	x0, ffff000000092000 <pool_slots+0xe38>
ffff000000080bb4:	f9441400 	ldr	x0, [x0, #2088]
ffff000000080bb8:	b9400001 	ldr	w1, [x0]
ffff000000080bbc:	b9401fe0 	ldr	w0, [sp, #28]
ffff000000080bc0:	4b000020 	sub	w0, w1, w0
ffff000000080bc4:	52800021 	mov	w1, #0x1                   	// #1
ffff000000080bc8:	1ac02020 	lsl	w0, w1, w0
ffff000000080bcc:	51000400 	sub	w0, w0, #0x1
ffff000000080bd0:	b90027e0 	str	w0, [sp, #36]
ffff000000080bd4:	d0000080 	adrp	x0, ffff000000092000 <pool_slots+0xe38>
ffff000000080bd8:	f9441400 	ldr	x0, [x0, #2088]
ffff000000080bdc:	b9400001 	ldr	w1, [x0]
ffff000000080be0:	b9401fe0 	ldr	w0, [sp, #28]
ffff000000080be4:	4b000020 	sub	w0, w1, w0
ffff000000080be8:	52800021 	mov	w1, #0x1                   	// #1
ffff000000080bec:	1ac02020 	lsl	w0, w1, w0
ffff000000080bf0:	b94027e1 	ldr	w1, [sp, #36]
ffff000000080bf4:	0b000020 	add	w0, w1, w0
ffff000000080bf8:	b90023e0 	str	w0, [sp, #32]
ffff000000080bfc:	b0000060 	adrp	x0, ffff00000008d000 <sync_invalid_el1t+0x7c>
ffff000000080c00:	913d4000 	add	x0, x0, #0xf50
ffff000000080c04:	9400172e 	bl	ffff0000000868bc <uart_write_str>
ffff000000080c08:	b94027e0 	ldr	w0, [sp, #36]
ffff000000080c0c:	b9002be0 	str	w0, [sp, #40]
ffff000000080c10:	1400002f 	b	ffff000000080ccc <dump_free_blocks+0x174>
ffff000000080c14:	d0000080 	adrp	x0, ffff000000092000 <pool_slots+0xe38>
ffff000000080c18:	f943c800 	ldr	x0, [x0, #1936]
ffff000000080c1c:	f9400001 	ldr	x1, [x0]
ffff000000080c20:	b9802be0 	ldrsw	x0, [sp, #40]
ffff000000080c24:	d37ef400 	lsl	x0, x0, #2
ffff000000080c28:	8b000020 	add	x0, x1, x0
ffff000000080c2c:	b9400000 	ldr	w0, [x0]
ffff000000080c30:	71000c1f 	cmp	w0, #0x3
ffff000000080c34:	540001c1 	b.ne	ffff000000080c6c <dump_free_blocks+0x114>  // b.any
ffff000000080c38:	b9402fe0 	ldr	w0, [sp, #44]
ffff000000080c3c:	7100001f 	cmp	w0, #0x0
ffff000000080c40:	5400008d 	b.le	ffff000000080c50 <dump_free_blocks+0xf8>
ffff000000080c44:	b0000060 	adrp	x0, ffff00000008d000 <sync_invalid_el1t+0x7c>
ffff000000080c48:	9133c000 	add	x0, x0, #0xcf0
ffff000000080c4c:	9400171c 	bl	ffff0000000868bc <uart_write_str>
ffff000000080c50:	b9401fe1 	ldr	w1, [sp, #28]
ffff000000080c54:	b9402be0 	ldr	w0, [sp, #40]
ffff000000080c58:	97fffd84 	bl	ffff000000080268 <get_page_index>
ffff000000080c5c:	940017ce 	bl	ffff000000086b94 <uart_write_int>
ffff000000080c60:	b9402fe0 	ldr	w0, [sp, #44]
ffff000000080c64:	11000400 	add	w0, w0, #0x1
ffff000000080c68:	b9002fe0 	str	w0, [sp, #44]
ffff000000080c6c:	b9402fe0 	ldr	w0, [sp, #44]
ffff000000080c70:	7100001f 	cmp	w0, #0x0
ffff000000080c74:	54000260 	b.eq	ffff000000080cc0 <dump_free_blocks+0x168>  // b.none
ffff000000080c78:	b9402fe2 	ldr	w2, [sp, #44]
ffff000000080c7c:	528ccce0 	mov	w0, #0x6667                	// #26215
ffff000000080c80:	72acccc0 	movk	w0, #0x6666, lsl #16
ffff000000080c84:	9b207c40 	smull	x0, w2, w0
ffff000000080c88:	d360fc00 	lsr	x0, x0, #32
ffff000000080c8c:	13027c01 	asr	w1, w0, #2
ffff000000080c90:	131f7c40 	asr	w0, w2, #31
ffff000000080c94:	4b000021 	sub	w1, w1, w0
ffff000000080c98:	2a0103e0 	mov	w0, w1
ffff000000080c9c:	531e7400 	lsl	w0, w0, #2
ffff000000080ca0:	0b010000 	add	w0, w0, w1
ffff000000080ca4:	531f7800 	lsl	w0, w0, #1
ffff000000080ca8:	4b000041 	sub	w1, w2, w0
ffff000000080cac:	7100003f 	cmp	w1, #0x0
ffff000000080cb0:	54000081 	b.ne	ffff000000080cc0 <dump_free_blocks+0x168>  // b.any
ffff000000080cb4:	b0000060 	adrp	x0, ffff00000008d000 <sync_invalid_el1t+0x7c>
ffff000000080cb8:	913dc000 	add	x0, x0, #0xf70
ffff000000080cbc:	94001700 	bl	ffff0000000868bc <uart_write_str>
ffff000000080cc0:	b9402be0 	ldr	w0, [sp, #40]
ffff000000080cc4:	11000400 	add	w0, w0, #0x1
ffff000000080cc8:	b9002be0 	str	w0, [sp, #40]
ffff000000080ccc:	b9402be1 	ldr	w1, [sp, #40]
ffff000000080cd0:	b94023e0 	ldr	w0, [sp, #32]
ffff000000080cd4:	6b00003f 	cmp	w1, w0
ffff000000080cd8:	540000ea 	b.ge	ffff000000080cf4 <dump_free_blocks+0x19c>  // b.tcont
ffff000000080cdc:	d0000080 	adrp	x0, ffff000000092000 <pool_slots+0xe38>
ffff000000080ce0:	f943a800 	ldr	x0, [x0, #1872]
ffff000000080ce4:	b9400000 	ldr	w0, [x0]
ffff000000080ce8:	b9402be1 	ldr	w1, [sp, #40]
ffff000000080cec:	6b00003f 	cmp	w1, w0
ffff000000080cf0:	54fff92b 	b.lt	ffff000000080c14 <dump_free_blocks+0xbc>  // b.tstop
ffff000000080cf4:	b0000060 	adrp	x0, ffff00000008d000 <sync_invalid_el1t+0x7c>
ffff000000080cf8:	9133e000 	add	x0, x0, #0xcf8
ffff000000080cfc:	940016f0 	bl	ffff0000000868bc <uart_write_str>
ffff000000080d00:	b0000060 	adrp	x0, ffff00000008d000 <sync_invalid_el1t+0x7c>
ffff000000080d04:	913de000 	add	x0, x0, #0xf78
ffff000000080d08:	940016ed 	bl	ffff0000000868bc <uart_write_str>
ffff000000080d0c:	b9402fe0 	ldr	w0, [sp, #44]
ffff000000080d10:	940017a1 	bl	ffff000000086b94 <uart_write_int>
ffff000000080d14:	a8c37bfd 	ldp	x29, x30, [sp], #48
ffff000000080d18:	d65f03c0 	ret

ffff000000080d1c <is_power_of_two>:
ffff000000080d1c:	d10043ff 	sub	sp, sp, #0x10
ffff000000080d20:	f90007e0 	str	x0, [sp, #8]
ffff000000080d24:	f94007e0 	ldr	x0, [sp, #8]
ffff000000080d28:	f100001f 	cmp	x0, #0x0
ffff000000080d2c:	54000120 	b.eq	ffff000000080d50 <is_power_of_two+0x34>  // b.none
ffff000000080d30:	f94007e0 	ldr	x0, [sp, #8]
ffff000000080d34:	d1000401 	sub	x1, x0, #0x1
ffff000000080d38:	f94007e0 	ldr	x0, [sp, #8]
ffff000000080d3c:	8a000020 	and	x0, x1, x0
ffff000000080d40:	f100001f 	cmp	x0, #0x0
ffff000000080d44:	54000061 	b.ne	ffff000000080d50 <is_power_of_two+0x34>  // b.any
ffff000000080d48:	52800020 	mov	w0, #0x1                   	// #1
ffff000000080d4c:	14000002 	b	ffff000000080d54 <is_power_of_two+0x38>
ffff000000080d50:	52800000 	mov	w0, #0x0                   	// #0
ffff000000080d54:	910043ff 	add	sp, sp, #0x10
ffff000000080d58:	d65f03c0 	ret

ffff000000080d5c <reserve_recursive>:
ffff000000080d5c:	a9bb7bfd 	stp	x29, x30, [sp, #-80]!
ffff000000080d60:	910003fd 	mov	x29, sp
ffff000000080d64:	b9002fe0 	str	w0, [sp, #44]
ffff000000080d68:	b9002be1 	str	w1, [sp, #40]
ffff000000080d6c:	f90013e2 	str	x2, [sp, #32]
ffff000000080d70:	f9000fe3 	str	x3, [sp, #24]
ffff000000080d74:	b9402be1 	ldr	w1, [sp, #40]
ffff000000080d78:	b9402fe0 	ldr	w0, [sp, #44]
ffff000000080d7c:	97fffd21 	bl	ffff000000080200 <node_index_to_addr>
ffff000000080d80:	f90027e0 	str	x0, [sp, #72]
ffff000000080d84:	b9402be0 	ldr	w0, [sp, #40]
ffff000000080d88:	52820001 	mov	w1, #0x1000                	// #4096
ffff000000080d8c:	1ac02020 	lsl	w0, w1, w0
ffff000000080d90:	93407c01 	sxtw	x1, w0
ffff000000080d94:	f94027e0 	ldr	x0, [sp, #72]
ffff000000080d98:	8b000020 	add	x0, x1, x0
ffff000000080d9c:	d1000400 	sub	x0, x0, #0x1
ffff000000080da0:	f90023e0 	str	x0, [sp, #64]
ffff000000080da4:	f9400fe1 	ldr	x1, [sp, #24]
ffff000000080da8:	f94027e0 	ldr	x0, [sp, #72]
ffff000000080dac:	eb00003f 	cmp	x1, x0
ffff000000080db0:	54000f83 	b.cc	ffff000000080fa0 <reserve_recursive+0x244>  // b.lo, b.ul, b.last
ffff000000080db4:	f94013e1 	ldr	x1, [sp, #32]
ffff000000080db8:	f94023e0 	ldr	x0, [sp, #64]
ffff000000080dbc:	eb00003f 	cmp	x1, x0
ffff000000080dc0:	54000f08 	b.hi	ffff000000080fa0 <reserve_recursive+0x244>  // b.pmore
ffff000000080dc4:	f94013e1 	ldr	x1, [sp, #32]
ffff000000080dc8:	f94027e0 	ldr	x0, [sp, #72]
ffff000000080dcc:	eb00003f 	cmp	x1, x0
ffff000000080dd0:	540001c8 	b.hi	ffff000000080e08 <reserve_recursive+0xac>  // b.pmore
ffff000000080dd4:	f9400fe1 	ldr	x1, [sp, #24]
ffff000000080dd8:	f94023e0 	ldr	x0, [sp, #64]
ffff000000080ddc:	eb00003f 	cmp	x1, x0
ffff000000080de0:	54000143 	b.cc	ffff000000080e08 <reserve_recursive+0xac>  // b.lo, b.ul, b.last
ffff000000080de4:	d0000080 	adrp	x0, ffff000000092000 <pool_slots+0xe38>
ffff000000080de8:	f943c800 	ldr	x0, [x0, #1936]
ffff000000080dec:	f9400001 	ldr	x1, [x0]
ffff000000080df0:	b9802fe0 	ldrsw	x0, [sp, #44]
ffff000000080df4:	d37ef400 	lsl	x0, x0, #2
ffff000000080df8:	8b000020 	add	x0, x1, x0
ffff000000080dfc:	52800021 	mov	w1, #0x1                   	// #1
ffff000000080e00:	b9000001 	str	w1, [x0]
ffff000000080e04:	14000068 	b	ffff000000080fa4 <reserve_recursive+0x248>
ffff000000080e08:	b9402be0 	ldr	w0, [sp, #40]
ffff000000080e0c:	7100001f 	cmp	w0, #0x0
ffff000000080e10:	54000141 	b.ne	ffff000000080e38 <reserve_recursive+0xdc>  // b.any
ffff000000080e14:	d0000080 	adrp	x0, ffff000000092000 <pool_slots+0xe38>
ffff000000080e18:	f943c800 	ldr	x0, [x0, #1936]
ffff000000080e1c:	f9400001 	ldr	x1, [x0]
ffff000000080e20:	b9802fe0 	ldrsw	x0, [sp, #44]
ffff000000080e24:	d37ef400 	lsl	x0, x0, #2
ffff000000080e28:	8b000020 	add	x0, x1, x0
ffff000000080e2c:	52800021 	mov	w1, #0x1                   	// #1
ffff000000080e30:	b9000001 	str	w1, [x0]
ffff000000080e34:	1400005c 	b	ffff000000080fa4 <reserve_recursive+0x248>
ffff000000080e38:	d0000080 	adrp	x0, ffff000000092000 <pool_slots+0xe38>
ffff000000080e3c:	f943c800 	ldr	x0, [x0, #1936]
ffff000000080e40:	f9400001 	ldr	x1, [x0]
ffff000000080e44:	b9802fe0 	ldrsw	x0, [sp, #44]
ffff000000080e48:	d37ef400 	lsl	x0, x0, #2
ffff000000080e4c:	8b000020 	add	x0, x1, x0
ffff000000080e50:	b9400000 	ldr	w0, [x0]
ffff000000080e54:	71000c1f 	cmp	w0, #0x3
ffff000000080e58:	540007a1 	b.ne	ffff000000080f4c <reserve_recursive+0x1f0>  // b.any
ffff000000080e5c:	d0000080 	adrp	x0, ffff000000092000 <pool_slots+0xe38>
ffff000000080e60:	f943c800 	ldr	x0, [x0, #1936]
ffff000000080e64:	f9400001 	ldr	x1, [x0]
ffff000000080e68:	b9802fe0 	ldrsw	x0, [sp, #44]
ffff000000080e6c:	d37ef400 	lsl	x0, x0, #2
ffff000000080e70:	8b000020 	add	x0, x1, x0
ffff000000080e74:	52800081 	mov	w1, #0x4                   	// #4
ffff000000080e78:	b9000001 	str	w1, [x0]
ffff000000080e7c:	b9402fe0 	ldr	w0, [sp, #44]
ffff000000080e80:	97fffcc9 	bl	ffff0000000801a4 <left_child>
ffff000000080e84:	b9003fe0 	str	w0, [sp, #60]
ffff000000080e88:	b9402fe0 	ldr	w0, [sp, #44]
ffff000000080e8c:	97fffccd 	bl	ffff0000000801c0 <right_child>
ffff000000080e90:	b9003be0 	str	w0, [sp, #56]
ffff000000080e94:	d0000080 	adrp	x0, ffff000000092000 <pool_slots+0xe38>
ffff000000080e98:	f943a800 	ldr	x0, [x0, #1872]
ffff000000080e9c:	b9400000 	ldr	w0, [x0]
ffff000000080ea0:	b9403fe1 	ldr	w1, [sp, #60]
ffff000000080ea4:	6b00003f 	cmp	w1, w0
ffff000000080ea8:	5400024a 	b.ge	ffff000000080ef0 <reserve_recursive+0x194>  // b.tcont
ffff000000080eac:	d0000080 	adrp	x0, ffff000000092000 <pool_slots+0xe38>
ffff000000080eb0:	f943c800 	ldr	x0, [x0, #1936]
ffff000000080eb4:	f9400001 	ldr	x1, [x0]
ffff000000080eb8:	b9803fe0 	ldrsw	x0, [sp, #60]
ffff000000080ebc:	d37ef400 	lsl	x0, x0, #2
ffff000000080ec0:	8b000020 	add	x0, x1, x0
ffff000000080ec4:	b9400000 	ldr	w0, [x0]
ffff000000080ec8:	7100001f 	cmp	w0, #0x0
ffff000000080ecc:	54000121 	b.ne	ffff000000080ef0 <reserve_recursive+0x194>  // b.any
ffff000000080ed0:	d0000080 	adrp	x0, ffff000000092000 <pool_slots+0xe38>
ffff000000080ed4:	f943c800 	ldr	x0, [x0, #1936]
ffff000000080ed8:	f9400001 	ldr	x1, [x0]
ffff000000080edc:	b9803fe0 	ldrsw	x0, [sp, #60]
ffff000000080ee0:	d37ef400 	lsl	x0, x0, #2
ffff000000080ee4:	8b000020 	add	x0, x1, x0
ffff000000080ee8:	52800061 	mov	w1, #0x3                   	// #3
ffff000000080eec:	b9000001 	str	w1, [x0]
ffff000000080ef0:	d0000080 	adrp	x0, ffff000000092000 <pool_slots+0xe38>
ffff000000080ef4:	f943a800 	ldr	x0, [x0, #1872]
ffff000000080ef8:	b9400000 	ldr	w0, [x0]
ffff000000080efc:	b9403be1 	ldr	w1, [sp, #56]
ffff000000080f00:	6b00003f 	cmp	w1, w0
ffff000000080f04:	5400024a 	b.ge	ffff000000080f4c <reserve_recursive+0x1f0>  // b.tcont
ffff000000080f08:	d0000080 	adrp	x0, ffff000000092000 <pool_slots+0xe38>
ffff000000080f0c:	f943c800 	ldr	x0, [x0, #1936]
ffff000000080f10:	f9400001 	ldr	x1, [x0]
ffff000000080f14:	b9803be0 	ldrsw	x0, [sp, #56]
ffff000000080f18:	d37ef400 	lsl	x0, x0, #2
ffff000000080f1c:	8b000020 	add	x0, x1, x0
ffff000000080f20:	b9400000 	ldr	w0, [x0]
ffff000000080f24:	7100001f 	cmp	w0, #0x0
ffff000000080f28:	54000121 	b.ne	ffff000000080f4c <reserve_recursive+0x1f0>  // b.any
ffff000000080f2c:	d0000080 	adrp	x0, ffff000000092000 <pool_slots+0xe38>
ffff000000080f30:	f943c800 	ldr	x0, [x0, #1936]
ffff000000080f34:	f9400001 	ldr	x1, [x0]
ffff000000080f38:	b9803be0 	ldrsw	x0, [sp, #56]
ffff000000080f3c:	d37ef400 	lsl	x0, x0, #2
ffff000000080f40:	8b000020 	add	x0, x1, x0
ffff000000080f44:	52800061 	mov	w1, #0x3                   	// #3
ffff000000080f48:	b9000001 	str	w1, [x0]
ffff000000080f4c:	b9402fe0 	ldr	w0, [sp, #44]
ffff000000080f50:	531f7800 	lsl	w0, w0, #1
ffff000000080f54:	11000404 	add	w4, w0, #0x1
ffff000000080f58:	b9402be0 	ldr	w0, [sp, #40]
ffff000000080f5c:	51000400 	sub	w0, w0, #0x1
ffff000000080f60:	f9400fe3 	ldr	x3, [sp, #24]
ffff000000080f64:	f94013e2 	ldr	x2, [sp, #32]
ffff000000080f68:	2a0003e1 	mov	w1, w0
ffff000000080f6c:	2a0403e0 	mov	w0, w4
ffff000000080f70:	97ffff7b 	bl	ffff000000080d5c <reserve_recursive>
ffff000000080f74:	b9402fe0 	ldr	w0, [sp, #44]
ffff000000080f78:	11000400 	add	w0, w0, #0x1
ffff000000080f7c:	531f7804 	lsl	w4, w0, #1
ffff000000080f80:	b9402be0 	ldr	w0, [sp, #40]
ffff000000080f84:	51000400 	sub	w0, w0, #0x1
ffff000000080f88:	f9400fe3 	ldr	x3, [sp, #24]
ffff000000080f8c:	f94013e2 	ldr	x2, [sp, #32]
ffff000000080f90:	2a0003e1 	mov	w1, w0
ffff000000080f94:	2a0403e0 	mov	w0, w4
ffff000000080f98:	97ffff71 	bl	ffff000000080d5c <reserve_recursive>
ffff000000080f9c:	14000002 	b	ffff000000080fa4 <reserve_recursive+0x248>
ffff000000080fa0:	d503201f 	nop
ffff000000080fa4:	a8c57bfd 	ldp	x29, x30, [sp], #80
ffff000000080fa8:	d65f03c0 	ret

ffff000000080fac <reserve_memory>:
ffff000000080fac:	a9be7bfd 	stp	x29, x30, [sp, #-32]!
ffff000000080fb0:	910003fd 	mov	x29, sp
ffff000000080fb4:	f9000fe0 	str	x0, [sp, #24]
ffff000000080fb8:	f9000be1 	str	x1, [sp, #16]
ffff000000080fbc:	d0000080 	adrp	x0, ffff000000092000 <pool_slots+0xe38>
ffff000000080fc0:	f9441400 	ldr	x0, [x0, #2088]
ffff000000080fc4:	b9400000 	ldr	w0, [x0]
ffff000000080fc8:	f9400be3 	ldr	x3, [sp, #16]
ffff000000080fcc:	f9400fe2 	ldr	x2, [sp, #24]
ffff000000080fd0:	2a0003e1 	mov	w1, w0
ffff000000080fd4:	52800000 	mov	w0, #0x0                   	// #0
ffff000000080fd8:	97ffff61 	bl	ffff000000080d5c <reserve_recursive>
ffff000000080fdc:	d503201f 	nop
ffff000000080fe0:	a8c27bfd 	ldp	x29, x30, [sp], #32
ffff000000080fe4:	d65f03c0 	ret

ffff000000080fe8 <buddy_init>:
ffff000000080fe8:	a9be7bfd 	stp	x29, x30, [sp, #-32]!
ffff000000080fec:	910003fd 	mov	x29, sp
ffff000000080ff0:	b9001fff 	str	wzr, [sp, #28]
ffff000000080ff4:	1400000b 	b	ffff000000081020 <buddy_init+0x38>
ffff000000080ff8:	d0000080 	adrp	x0, ffff000000092000 <pool_slots+0xe38>
ffff000000080ffc:	f943c800 	ldr	x0, [x0, #1936]
ffff000000081000:	f9400001 	ldr	x1, [x0]
ffff000000081004:	b9801fe0 	ldrsw	x0, [sp, #28]
ffff000000081008:	d37ef400 	lsl	x0, x0, #2
ffff00000008100c:	8b000020 	add	x0, x1, x0
ffff000000081010:	b900001f 	str	wzr, [x0]
ffff000000081014:	b9401fe0 	ldr	w0, [sp, #28]
ffff000000081018:	11000400 	add	w0, w0, #0x1
ffff00000008101c:	b9001fe0 	str	w0, [sp, #28]
ffff000000081020:	b0000080 	adrp	x0, ffff000000092000 <pool_slots+0xe38>
ffff000000081024:	f943a800 	ldr	x0, [x0, #1872]
ffff000000081028:	b9400000 	ldr	w0, [x0]
ffff00000008102c:	b9401fe1 	ldr	w1, [sp, #28]
ffff000000081030:	6b00003f 	cmp	w1, w0
ffff000000081034:	54fffe2b 	b.lt	ffff000000080ff8 <buddy_init+0x10>  // b.tstop
ffff000000081038:	b9001bff 	str	wzr, [sp, #24]
ffff00000008103c:	1400000c 	b	ffff00000008106c <buddy_init+0x84>
ffff000000081040:	b0000080 	adrp	x0, ffff000000092000 <pool_slots+0xe38>
ffff000000081044:	f943c000 	ldr	x0, [x0, #1920]
ffff000000081048:	f9400001 	ldr	x1, [x0]
ffff00000008104c:	b9801be0 	ldrsw	x0, [sp, #24]
ffff000000081050:	d37ef400 	lsl	x0, x0, #2
ffff000000081054:	8b000020 	add	x0, x1, x0
ffff000000081058:	12800001 	mov	w1, #0xffffffff            	// #-1
ffff00000008105c:	b9000001 	str	w1, [x0]
ffff000000081060:	b9401be0 	ldr	w0, [sp, #24]
ffff000000081064:	11000400 	add	w0, w0, #0x1
ffff000000081068:	b9001be0 	str	w0, [sp, #24]
ffff00000008106c:	b0000080 	adrp	x0, ffff000000092000 <pool_slots+0xe38>
ffff000000081070:	f9440c00 	ldr	x0, [x0, #2072]
ffff000000081074:	b9400000 	ldr	w0, [x0]
ffff000000081078:	b9401be1 	ldr	w1, [sp, #24]
ffff00000008107c:	6b00003f 	cmp	w1, w0
ffff000000081080:	54fffe0b 	b.lt	ffff000000081040 <buddy_init+0x58>  // b.tstop
ffff000000081084:	b0000080 	adrp	x0, ffff000000092000 <pool_slots+0xe38>
ffff000000081088:	f943c800 	ldr	x0, [x0, #1936]
ffff00000008108c:	f9400000 	ldr	x0, [x0]
ffff000000081090:	52800061 	mov	w1, #0x3                   	// #3
ffff000000081094:	b9000001 	str	w1, [x0]
ffff000000081098:	90000060 	adrp	x0, ffff00000008d000 <sync_invalid_el1t+0x7c>
ffff00000008109c:	913e6000 	add	x0, x0, #0xf98
ffff0000000810a0:	94001607 	bl	ffff0000000868bc <uart_write_str>
ffff0000000810a4:	d503201f 	nop
ffff0000000810a8:	a8c27bfd 	ldp	x29, x30, [sp], #32
ffff0000000810ac:	d65f03c0 	ret

ffff0000000810b0 <alloc_recursive>:
ffff0000000810b0:	a9bb7bfd 	stp	x29, x30, [sp, #-80]!
ffff0000000810b4:	910003fd 	mov	x29, sp
ffff0000000810b8:	f9000bf3 	str	x19, [sp, #16]
ffff0000000810bc:	b9002fe0 	str	w0, [sp, #44]
ffff0000000810c0:	b9002be1 	str	w1, [sp, #40]
ffff0000000810c4:	b90027e2 	str	w2, [sp, #36]
ffff0000000810c8:	b0000080 	adrp	x0, ffff000000092000 <pool_slots+0xe38>
ffff0000000810cc:	f943c800 	ldr	x0, [x0, #1936]
ffff0000000810d0:	f9400001 	ldr	x1, [x0]
ffff0000000810d4:	b9802fe0 	ldrsw	x0, [sp, #44]
ffff0000000810d8:	d37ef400 	lsl	x0, x0, #2
ffff0000000810dc:	8b000020 	add	x0, x1, x0
ffff0000000810e0:	b9400000 	ldr	w0, [x0]
ffff0000000810e4:	7100041f 	cmp	w0, #0x1
ffff0000000810e8:	54000260 	b.eq	ffff000000081134 <alloc_recursive+0x84>  // b.none
ffff0000000810ec:	b0000080 	adrp	x0, ffff000000092000 <pool_slots+0xe38>
ffff0000000810f0:	f943c800 	ldr	x0, [x0, #1936]
ffff0000000810f4:	f9400001 	ldr	x1, [x0]
ffff0000000810f8:	b9802fe0 	ldrsw	x0, [sp, #44]
ffff0000000810fc:	d37ef400 	lsl	x0, x0, #2
ffff000000081100:	8b000020 	add	x0, x1, x0
ffff000000081104:	b9400000 	ldr	w0, [x0]
ffff000000081108:	7100001f 	cmp	w0, #0x0
ffff00000008110c:	54000140 	b.eq	ffff000000081134 <alloc_recursive+0x84>  // b.none
ffff000000081110:	b0000080 	adrp	x0, ffff000000092000 <pool_slots+0xe38>
ffff000000081114:	f943c800 	ldr	x0, [x0, #1936]
ffff000000081118:	f9400001 	ldr	x1, [x0]
ffff00000008111c:	b9802fe0 	ldrsw	x0, [sp, #44]
ffff000000081120:	d37ef400 	lsl	x0, x0, #2
ffff000000081124:	8b000020 	add	x0, x1, x0
ffff000000081128:	b9400000 	ldr	w0, [x0]
ffff00000008112c:	7100081f 	cmp	w0, #0x2
ffff000000081130:	54000061 	b.ne	ffff00000008113c <alloc_recursive+0x8c>  // b.any
ffff000000081134:	12800000 	mov	w0, #0xffffffff            	// #-1
ffff000000081138:	14000099 	b	ffff00000008139c <alloc_recursive+0x2ec>
ffff00000008113c:	b9402be1 	ldr	w1, [sp, #40]
ffff000000081140:	b94027e0 	ldr	w0, [sp, #36]
ffff000000081144:	6b00003f 	cmp	w1, w0
ffff000000081148:	54000ccd 	b.le	ffff0000000812e0 <alloc_recursive+0x230>
ffff00000008114c:	b0000080 	adrp	x0, ffff000000092000 <pool_slots+0xe38>
ffff000000081150:	f943c800 	ldr	x0, [x0, #1936]
ffff000000081154:	f9400001 	ldr	x1, [x0]
ffff000000081158:	b9802fe0 	ldrsw	x0, [sp, #44]
ffff00000008115c:	d37ef400 	lsl	x0, x0, #2
ffff000000081160:	8b000020 	add	x0, x1, x0
ffff000000081164:	b9400000 	ldr	w0, [x0]
ffff000000081168:	71000c1f 	cmp	w0, #0x3
ffff00000008116c:	540007a1 	b.ne	ffff000000081260 <alloc_recursive+0x1b0>  // b.any
ffff000000081170:	b0000080 	adrp	x0, ffff000000092000 <pool_slots+0xe38>
ffff000000081174:	f943c800 	ldr	x0, [x0, #1936]
ffff000000081178:	f9400001 	ldr	x1, [x0]
ffff00000008117c:	b9802fe0 	ldrsw	x0, [sp, #44]
ffff000000081180:	d37ef400 	lsl	x0, x0, #2
ffff000000081184:	8b000020 	add	x0, x1, x0
ffff000000081188:	52800081 	mov	w1, #0x4                   	// #4
ffff00000008118c:	b9000001 	str	w1, [x0]
ffff000000081190:	b9402fe0 	ldr	w0, [sp, #44]
ffff000000081194:	97fffc04 	bl	ffff0000000801a4 <left_child>
ffff000000081198:	b90047e0 	str	w0, [sp, #68]
ffff00000008119c:	b9402fe0 	ldr	w0, [sp, #44]
ffff0000000811a0:	97fffc08 	bl	ffff0000000801c0 <right_child>
ffff0000000811a4:	b90043e0 	str	w0, [sp, #64]
ffff0000000811a8:	b0000080 	adrp	x0, ffff000000092000 <pool_slots+0xe38>
ffff0000000811ac:	f943a800 	ldr	x0, [x0, #1872]
ffff0000000811b0:	b9400000 	ldr	w0, [x0]
ffff0000000811b4:	b94047e1 	ldr	w1, [sp, #68]
ffff0000000811b8:	6b00003f 	cmp	w1, w0
ffff0000000811bc:	5400024a 	b.ge	ffff000000081204 <alloc_recursive+0x154>  // b.tcont
ffff0000000811c0:	b0000080 	adrp	x0, ffff000000092000 <pool_slots+0xe38>
ffff0000000811c4:	f943c800 	ldr	x0, [x0, #1936]
ffff0000000811c8:	f9400001 	ldr	x1, [x0]
ffff0000000811cc:	b98047e0 	ldrsw	x0, [sp, #68]
ffff0000000811d0:	d37ef400 	lsl	x0, x0, #2
ffff0000000811d4:	8b000020 	add	x0, x1, x0
ffff0000000811d8:	b9400000 	ldr	w0, [x0]
ffff0000000811dc:	7100001f 	cmp	w0, #0x0
ffff0000000811e0:	54000121 	b.ne	ffff000000081204 <alloc_recursive+0x154>  // b.any
ffff0000000811e4:	b0000080 	adrp	x0, ffff000000092000 <pool_slots+0xe38>
ffff0000000811e8:	f943c800 	ldr	x0, [x0, #1936]
ffff0000000811ec:	f9400001 	ldr	x1, [x0]
ffff0000000811f0:	b98047e0 	ldrsw	x0, [sp, #68]
ffff0000000811f4:	d37ef400 	lsl	x0, x0, #2
ffff0000000811f8:	8b000020 	add	x0, x1, x0
ffff0000000811fc:	52800061 	mov	w1, #0x3                   	// #3
ffff000000081200:	b9000001 	str	w1, [x0]
ffff000000081204:	b0000080 	adrp	x0, ffff000000092000 <pool_slots+0xe38>
ffff000000081208:	f943a800 	ldr	x0, [x0, #1872]
ffff00000008120c:	b9400000 	ldr	w0, [x0]
ffff000000081210:	b94043e1 	ldr	w1, [sp, #64]
ffff000000081214:	6b00003f 	cmp	w1, w0
ffff000000081218:	5400024a 	b.ge	ffff000000081260 <alloc_recursive+0x1b0>  // b.tcont
ffff00000008121c:	b0000080 	adrp	x0, ffff000000092000 <pool_slots+0xe38>
ffff000000081220:	f943c800 	ldr	x0, [x0, #1936]
ffff000000081224:	f9400001 	ldr	x1, [x0]
ffff000000081228:	b98043e0 	ldrsw	x0, [sp, #64]
ffff00000008122c:	d37ef400 	lsl	x0, x0, #2
ffff000000081230:	8b000020 	add	x0, x1, x0
ffff000000081234:	b9400000 	ldr	w0, [x0]
ffff000000081238:	7100001f 	cmp	w0, #0x0
ffff00000008123c:	54000121 	b.ne	ffff000000081260 <alloc_recursive+0x1b0>  // b.any
ffff000000081240:	b0000080 	adrp	x0, ffff000000092000 <pool_slots+0xe38>
ffff000000081244:	f943c800 	ldr	x0, [x0, #1936]
ffff000000081248:	f9400001 	ldr	x1, [x0]
ffff00000008124c:	b98043e0 	ldrsw	x0, [sp, #64]
ffff000000081250:	d37ef400 	lsl	x0, x0, #2
ffff000000081254:	8b000020 	add	x0, x1, x0
ffff000000081258:	52800061 	mov	w1, #0x3                   	// #3
ffff00000008125c:	b9000001 	str	w1, [x0]
ffff000000081260:	b9402fe0 	ldr	w0, [sp, #44]
ffff000000081264:	531f7800 	lsl	w0, w0, #1
ffff000000081268:	11000403 	add	w3, w0, #0x1
ffff00000008126c:	b9402be0 	ldr	w0, [sp, #40]
ffff000000081270:	51000400 	sub	w0, w0, #0x1
ffff000000081274:	b94027e2 	ldr	w2, [sp, #36]
ffff000000081278:	2a0003e1 	mov	w1, w0
ffff00000008127c:	2a0303e0 	mov	w0, w3
ffff000000081280:	97ffff8c 	bl	ffff0000000810b0 <alloc_recursive>
ffff000000081284:	b9003fe0 	str	w0, [sp, #60]
ffff000000081288:	b9403fe0 	ldr	w0, [sp, #60]
ffff00000008128c:	7100001f 	cmp	w0, #0x0
ffff000000081290:	5400006b 	b.lt	ffff00000008129c <alloc_recursive+0x1ec>  // b.tstop
ffff000000081294:	b9403fe0 	ldr	w0, [sp, #60]
ffff000000081298:	14000041 	b	ffff00000008139c <alloc_recursive+0x2ec>
ffff00000008129c:	b9402fe0 	ldr	w0, [sp, #44]
ffff0000000812a0:	11000400 	add	w0, w0, #0x1
ffff0000000812a4:	531f7803 	lsl	w3, w0, #1
ffff0000000812a8:	b9402be0 	ldr	w0, [sp, #40]
ffff0000000812ac:	51000400 	sub	w0, w0, #0x1
ffff0000000812b0:	b94027e2 	ldr	w2, [sp, #36]
ffff0000000812b4:	2a0003e1 	mov	w1, w0
ffff0000000812b8:	2a0303e0 	mov	w0, w3
ffff0000000812bc:	97ffff7d 	bl	ffff0000000810b0 <alloc_recursive>
ffff0000000812c0:	b9003be0 	str	w0, [sp, #56]
ffff0000000812c4:	b9403be0 	ldr	w0, [sp, #56]
ffff0000000812c8:	7100001f 	cmp	w0, #0x0
ffff0000000812cc:	5400006b 	b.lt	ffff0000000812d8 <alloc_recursive+0x228>  // b.tstop
ffff0000000812d0:	b9403be0 	ldr	w0, [sp, #56]
ffff0000000812d4:	14000032 	b	ffff00000008139c <alloc_recursive+0x2ec>
ffff0000000812d8:	12800000 	mov	w0, #0xffffffff            	// #-1
ffff0000000812dc:	14000030 	b	ffff00000008139c <alloc_recursive+0x2ec>
ffff0000000812e0:	b9402be1 	ldr	w1, [sp, #40]
ffff0000000812e4:	b94027e0 	ldr	w0, [sp, #36]
ffff0000000812e8:	6b00003f 	cmp	w1, w0
ffff0000000812ec:	54000561 	b.ne	ffff000000081398 <alloc_recursive+0x2e8>  // b.any
ffff0000000812f0:	b0000080 	adrp	x0, ffff000000092000 <pool_slots+0xe38>
ffff0000000812f4:	f943c800 	ldr	x0, [x0, #1936]
ffff0000000812f8:	f9400001 	ldr	x1, [x0]
ffff0000000812fc:	b9802fe0 	ldrsw	x0, [sp, #44]
ffff000000081300:	d37ef400 	lsl	x0, x0, #2
ffff000000081304:	8b000020 	add	x0, x1, x0
ffff000000081308:	b9400000 	ldr	w0, [x0]
ffff00000008130c:	71000c1f 	cmp	w0, #0x3
ffff000000081310:	54000441 	b.ne	ffff000000081398 <alloc_recursive+0x2e8>  // b.any
ffff000000081314:	b0000080 	adrp	x0, ffff000000092000 <pool_slots+0xe38>
ffff000000081318:	f943c800 	ldr	x0, [x0, #1936]
ffff00000008131c:	f9400001 	ldr	x1, [x0]
ffff000000081320:	b9802fe0 	ldrsw	x0, [sp, #44]
ffff000000081324:	d37ef400 	lsl	x0, x0, #2
ffff000000081328:	8b000020 	add	x0, x1, x0
ffff00000008132c:	52800041 	mov	w1, #0x2                   	// #2
ffff000000081330:	b9000001 	str	w1, [x0]
ffff000000081334:	b0000080 	adrp	x0, ffff000000092000 <pool_slots+0xe38>
ffff000000081338:	f943c000 	ldr	x0, [x0, #1920]
ffff00000008133c:	f9400013 	ldr	x19, [x0]
ffff000000081340:	b9402be1 	ldr	w1, [sp, #40]
ffff000000081344:	b9402fe0 	ldr	w0, [sp, #44]
ffff000000081348:	97fffbc8 	bl	ffff000000080268 <get_page_index>
ffff00000008134c:	93407c00 	sxtw	x0, w0
ffff000000081350:	d37ef400 	lsl	x0, x0, #2
ffff000000081354:	8b000260 	add	x0, x19, x0
ffff000000081358:	b9402be1 	ldr	w1, [sp, #40]
ffff00000008135c:	b9000001 	str	w1, [x0]
ffff000000081360:	b9402be1 	ldr	w1, [sp, #40]
ffff000000081364:	b9402fe0 	ldr	w0, [sp, #44]
ffff000000081368:	97fffba6 	bl	ffff000000080200 <node_index_to_addr>
ffff00000008136c:	f90027e0 	str	x0, [sp, #72]
ffff000000081370:	90000060 	adrp	x0, ffff00000008d000 <sync_invalid_el1t+0x7c>
ffff000000081374:	913ee000 	add	x0, x0, #0xfb8
ffff000000081378:	940016a1 	bl	ffff000000086dfc <uart_write_str_raw>
ffff00000008137c:	f94027e0 	ldr	x0, [sp, #72]
ffff000000081380:	940016ce 	bl	ffff000000086eb8 <uart_write_hex_raw>
ffff000000081384:	b9402be1 	ldr	w1, [sp, #40]
ffff000000081388:	f94027e0 	ldr	x0, [sp, #72]
ffff00000008138c:	97fffb63 	bl	ffff000000080118 <print_range>
ffff000000081390:	b9402fe0 	ldr	w0, [sp, #44]
ffff000000081394:	14000002 	b	ffff00000008139c <alloc_recursive+0x2ec>
ffff000000081398:	12800000 	mov	w0, #0xffffffff            	// #-1
ffff00000008139c:	f9400bf3 	ldr	x19, [sp, #16]
ffff0000000813a0:	a8c57bfd 	ldp	x29, x30, [sp], #80
ffff0000000813a4:	d65f03c0 	ret

ffff0000000813a8 <buddy_alloc>:
ffff0000000813a8:	a9bc7bfd 	stp	x29, x30, [sp, #-64]!
ffff0000000813ac:	910003fd 	mov	x29, sp
ffff0000000813b0:	f9000fe0 	str	x0, [sp, #24]
ffff0000000813b4:	f9400fe0 	ldr	x0, [sp, #24]
ffff0000000813b8:	913ffc00 	add	x0, x0, #0xfff
ffff0000000813bc:	d34cfc00 	lsr	x0, x0, #12
ffff0000000813c0:	f9001be0 	str	x0, [sp, #48]
ffff0000000813c4:	b9003fff 	str	wzr, [sp, #60]
ffff0000000813c8:	14000004 	b	ffff0000000813d8 <buddy_alloc+0x30>
ffff0000000813cc:	b9403fe0 	ldr	w0, [sp, #60]
ffff0000000813d0:	11000400 	add	w0, w0, #0x1
ffff0000000813d4:	b9003fe0 	str	w0, [sp, #60]
ffff0000000813d8:	b9403fe0 	ldr	w0, [sp, #60]
ffff0000000813dc:	52800021 	mov	w1, #0x1                   	// #1
ffff0000000813e0:	1ac02020 	lsl	w0, w1, w0
ffff0000000813e4:	93407c00 	sxtw	x0, w0
ffff0000000813e8:	f9401be1 	ldr	x1, [sp, #48]
ffff0000000813ec:	eb00003f 	cmp	x1, x0
ffff0000000813f0:	54fffee8 	b.hi	ffff0000000813cc <buddy_alloc+0x24>  // b.pmore
ffff0000000813f4:	b0000080 	adrp	x0, ffff000000092000 <pool_slots+0xe38>
ffff0000000813f8:	f9441400 	ldr	x0, [x0, #2088]
ffff0000000813fc:	b9400000 	ldr	w0, [x0]
ffff000000081400:	b9403fe1 	ldr	w1, [sp, #60]
ffff000000081404:	6b00003f 	cmp	w1, w0
ffff000000081408:	540000cd 	b.le	ffff000000081420 <buddy_alloc+0x78>
ffff00000008140c:	90000060 	adrp	x0, ffff00000008d000 <sync_invalid_el1t+0x7c>
ffff000000081410:	913f6000 	add	x0, x0, #0xfd8
ffff000000081414:	9400152a 	bl	ffff0000000868bc <uart_write_str>
ffff000000081418:	d2800000 	mov	x0, #0x0                   	// #0
ffff00000008141c:	14000014 	b	ffff00000008146c <buddy_alloc+0xc4>
ffff000000081420:	b0000080 	adrp	x0, ffff000000092000 <pool_slots+0xe38>
ffff000000081424:	f9441400 	ldr	x0, [x0, #2088]
ffff000000081428:	b9400000 	ldr	w0, [x0]
ffff00000008142c:	b9403fe2 	ldr	w2, [sp, #60]
ffff000000081430:	2a0003e1 	mov	w1, w0
ffff000000081434:	52800000 	mov	w0, #0x0                   	// #0
ffff000000081438:	97ffff1e 	bl	ffff0000000810b0 <alloc_recursive>
ffff00000008143c:	b9002fe0 	str	w0, [sp, #44]
ffff000000081440:	b9402fe0 	ldr	w0, [sp, #44]
ffff000000081444:	7100001f 	cmp	w0, #0x0
ffff000000081448:	540000ca 	b.ge	ffff000000081460 <buddy_alloc+0xb8>  // b.tcont
ffff00000008144c:	b0000060 	adrp	x0, ffff00000008e000 <pool_slots+0x340>
ffff000000081450:	91002000 	add	x0, x0, #0x8
ffff000000081454:	9400151a 	bl	ffff0000000868bc <uart_write_str>
ffff000000081458:	d2800000 	mov	x0, #0x0                   	// #0
ffff00000008145c:	14000004 	b	ffff00000008146c <buddy_alloc+0xc4>
ffff000000081460:	b9403fe1 	ldr	w1, [sp, #60]
ffff000000081464:	b9402fe0 	ldr	w0, [sp, #44]
ffff000000081468:	97fffb66 	bl	ffff000000080200 <node_index_to_addr>
ffff00000008146c:	a8c47bfd 	ldp	x29, x30, [sp], #64
ffff000000081470:	d65f03c0 	ret

ffff000000081474 <update_parent_on_free>:
ffff000000081474:	d10083ff 	sub	sp, sp, #0x20
ffff000000081478:	b9000fe0 	str	w0, [sp, #12]
ffff00000008147c:	b9000be1 	str	w1, [sp, #8]
ffff000000081480:	1400003e 	b	ffff000000081578 <update_parent_on_free+0x104>
ffff000000081484:	b9400fe0 	ldr	w0, [sp, #12]
ffff000000081488:	51000400 	sub	w0, w0, #0x1
ffff00000008148c:	531f7c01 	lsr	w1, w0, #31
ffff000000081490:	0b000020 	add	w0, w1, w0
ffff000000081494:	13017c00 	asr	w0, w0, #1
ffff000000081498:	b9001fe0 	str	w0, [sp, #28]
ffff00000008149c:	b9400fe0 	ldr	w0, [sp, #12]
ffff0000000814a0:	12000000 	and	w0, w0, #0x1
ffff0000000814a4:	7100001f 	cmp	w0, #0x0
ffff0000000814a8:	54000080 	b.eq	ffff0000000814b8 <update_parent_on_free+0x44>  // b.none
ffff0000000814ac:	b9400fe0 	ldr	w0, [sp, #12]
ffff0000000814b0:	11000400 	add	w0, w0, #0x1
ffff0000000814b4:	14000003 	b	ffff0000000814c0 <update_parent_on_free+0x4c>
ffff0000000814b8:	b9400fe0 	ldr	w0, [sp, #12]
ffff0000000814bc:	51000400 	sub	w0, w0, #0x1
ffff0000000814c0:	b9001be0 	str	w0, [sp, #24]
ffff0000000814c4:	b0000080 	adrp	x0, ffff000000092000 <pool_slots+0xe38>
ffff0000000814c8:	f943c800 	ldr	x0, [x0, #1936]
ffff0000000814cc:	f9400001 	ldr	x1, [x0]
ffff0000000814d0:	b9801be0 	ldrsw	x0, [sp, #24]
ffff0000000814d4:	d37ef400 	lsl	x0, x0, #2
ffff0000000814d8:	8b000020 	add	x0, x1, x0
ffff0000000814dc:	b9400000 	ldr	w0, [x0]
ffff0000000814e0:	71000c1f 	cmp	w0, #0x3
ffff0000000814e4:	54000521 	b.ne	ffff000000081588 <update_parent_on_free+0x114>  // b.any
ffff0000000814e8:	b0000080 	adrp	x0, ffff000000092000 <pool_slots+0xe38>
ffff0000000814ec:	f943c800 	ldr	x0, [x0, #1936]
ffff0000000814f0:	f9400001 	ldr	x1, [x0]
ffff0000000814f4:	b9801fe0 	ldrsw	x0, [sp, #28]
ffff0000000814f8:	d37ef400 	lsl	x0, x0, #2
ffff0000000814fc:	8b000020 	add	x0, x1, x0
ffff000000081500:	b9400000 	ldr	w0, [x0]
ffff000000081504:	7100101f 	cmp	w0, #0x4
ffff000000081508:	54000441 	b.ne	ffff000000081590 <update_parent_on_free+0x11c>  // b.any
ffff00000008150c:	b0000080 	adrp	x0, ffff000000092000 <pool_slots+0xe38>
ffff000000081510:	f943c800 	ldr	x0, [x0, #1936]
ffff000000081514:	f9400001 	ldr	x1, [x0]
ffff000000081518:	b9801fe0 	ldrsw	x0, [sp, #28]
ffff00000008151c:	d37ef400 	lsl	x0, x0, #2
ffff000000081520:	8b000020 	add	x0, x1, x0
ffff000000081524:	52800061 	mov	w1, #0x3                   	// #3
ffff000000081528:	b9000001 	str	w1, [x0]
ffff00000008152c:	b0000080 	adrp	x0, ffff000000092000 <pool_slots+0xe38>
ffff000000081530:	f943c800 	ldr	x0, [x0, #1936]
ffff000000081534:	f9400001 	ldr	x1, [x0]
ffff000000081538:	b9801be0 	ldrsw	x0, [sp, #24]
ffff00000008153c:	d37ef400 	lsl	x0, x0, #2
ffff000000081540:	8b000020 	add	x0, x1, x0
ffff000000081544:	b900001f 	str	wzr, [x0]
ffff000000081548:	b0000080 	adrp	x0, ffff000000092000 <pool_slots+0xe38>
ffff00000008154c:	f943c800 	ldr	x0, [x0, #1936]
ffff000000081550:	f9400001 	ldr	x1, [x0]
ffff000000081554:	b9800fe0 	ldrsw	x0, [sp, #12]
ffff000000081558:	d37ef400 	lsl	x0, x0, #2
ffff00000008155c:	8b000020 	add	x0, x1, x0
ffff000000081560:	b900001f 	str	wzr, [x0]
ffff000000081564:	b9401fe0 	ldr	w0, [sp, #28]
ffff000000081568:	b9000fe0 	str	w0, [sp, #12]
ffff00000008156c:	b9400be0 	ldr	w0, [sp, #8]
ffff000000081570:	11000400 	add	w0, w0, #0x1
ffff000000081574:	b9000be0 	str	w0, [sp, #8]
ffff000000081578:	b9400fe0 	ldr	w0, [sp, #12]
ffff00000008157c:	7100001f 	cmp	w0, #0x0
ffff000000081580:	54fff821 	b.ne	ffff000000081484 <update_parent_on_free+0x10>  // b.any
ffff000000081584:	14000004 	b	ffff000000081594 <update_parent_on_free+0x120>
ffff000000081588:	d503201f 	nop
ffff00000008158c:	14000002 	b	ffff000000081594 <update_parent_on_free+0x120>
ffff000000081590:	d503201f 	nop
ffff000000081594:	d503201f 	nop
ffff000000081598:	910083ff 	add	sp, sp, #0x20
ffff00000008159c:	d65f03c0 	ret

ffff0000000815a0 <buddy_free>:
ffff0000000815a0:	a9bc7bfd 	stp	x29, x30, [sp, #-64]!
ffff0000000815a4:	910003fd 	mov	x29, sp
ffff0000000815a8:	f9000fe0 	str	x0, [sp, #24]
ffff0000000815ac:	f9400fe0 	ldr	x0, [sp, #24]
ffff0000000815b0:	f9001fe0 	str	x0, [sp, #56]
ffff0000000815b4:	b0000080 	adrp	x0, ffff000000092000 <pool_slots+0xe38>
ffff0000000815b8:	f943d400 	ldr	x0, [x0, #1960]
ffff0000000815bc:	f9400000 	ldr	x0, [x0]
ffff0000000815c0:	f9401fe1 	ldr	x1, [sp, #56]
ffff0000000815c4:	cb000020 	sub	x0, x1, x0
ffff0000000815c8:	d34cfc00 	lsr	x0, x0, #12
ffff0000000815cc:	b90037e0 	str	w0, [sp, #52]
ffff0000000815d0:	b0000080 	adrp	x0, ffff000000092000 <pool_slots+0xe38>
ffff0000000815d4:	f943c000 	ldr	x0, [x0, #1920]
ffff0000000815d8:	f9400001 	ldr	x1, [x0]
ffff0000000815dc:	b98037e0 	ldrsw	x0, [sp, #52]
ffff0000000815e0:	d37ef400 	lsl	x0, x0, #2
ffff0000000815e4:	8b000020 	add	x0, x1, x0
ffff0000000815e8:	b9400000 	ldr	w0, [x0]
ffff0000000815ec:	b90033e0 	str	w0, [sp, #48]
ffff0000000815f0:	f9400fe0 	ldr	x0, [sp, #24]
ffff0000000815f4:	f100001f 	cmp	x0, #0x0
ffff0000000815f8:	540000a1 	b.ne	ffff00000008160c <buddy_free+0x6c>  // b.any
ffff0000000815fc:	b0000060 	adrp	x0, ffff00000008e000 <pool_slots+0x340>
ffff000000081600:	91010000 	add	x0, x0, #0x40
ffff000000081604:	940014ae 	bl	ffff0000000868bc <uart_write_str>
ffff000000081608:	14000038 	b	ffff0000000816e8 <buddy_free+0x148>
ffff00000008160c:	b94033e0 	ldr	w0, [sp, #48]
ffff000000081610:	7100001f 	cmp	w0, #0x0
ffff000000081614:	540000eb 	b.lt	ffff000000081630 <buddy_free+0x90>  // b.tstop
ffff000000081618:	b0000080 	adrp	x0, ffff000000092000 <pool_slots+0xe38>
ffff00000008161c:	f9441400 	ldr	x0, [x0, #2088]
ffff000000081620:	b9400000 	ldr	w0, [x0]
ffff000000081624:	b94033e1 	ldr	w1, [sp, #48]
ffff000000081628:	6b00003f 	cmp	w1, w0
ffff00000008162c:	540000ad 	b.le	ffff000000081640 <buddy_free+0xa0>
ffff000000081630:	b0000060 	adrp	x0, ffff00000008e000 <pool_slots+0x340>
ffff000000081634:	9101e000 	add	x0, x0, #0x78
ffff000000081638:	940014a1 	bl	ffff0000000868bc <uart_write_str>
ffff00000008163c:	1400002b 	b	ffff0000000816e8 <buddy_free+0x148>
ffff000000081640:	b94033e1 	ldr	w1, [sp, #48]
ffff000000081644:	f9401fe0 	ldr	x0, [sp, #56]
ffff000000081648:	97fffb18 	bl	ffff0000000802a8 <addr_to_node_index>
ffff00000008164c:	b9002fe0 	str	w0, [sp, #44]
ffff000000081650:	b9402fe0 	ldr	w0, [sp, #44]
ffff000000081654:	7100001f 	cmp	w0, #0x0
ffff000000081658:	540000ea 	b.ge	ffff000000081674 <buddy_free+0xd4>  // b.tcont
ffff00000008165c:	b0000060 	adrp	x0, ffff00000008e000 <pool_slots+0x340>
ffff000000081660:	9102e000 	add	x0, x0, #0xb8
ffff000000081664:	94001496 	bl	ffff0000000868bc <uart_write_str>
ffff000000081668:	f9401fe0 	ldr	x0, [sp, #56]
ffff00000008166c:	940015ae 	bl	ffff000000086d24 <uart_write_hex>
ffff000000081670:	1400001e 	b	ffff0000000816e8 <buddy_free+0x148>
ffff000000081674:	b0000060 	adrp	x0, ffff00000008e000 <pool_slots+0x340>
ffff000000081678:	91040000 	add	x0, x0, #0x100
ffff00000008167c:	94001490 	bl	ffff0000000868bc <uart_write_str>
ffff000000081680:	f9401fe0 	ldr	x0, [sp, #56]
ffff000000081684:	940015a8 	bl	ffff000000086d24 <uart_write_hex>
ffff000000081688:	b0000060 	adrp	x0, ffff00000008e000 <pool_slots+0x340>
ffff00000008168c:	91046000 	add	x0, x0, #0x118
ffff000000081690:	9400148b 	bl	ffff0000000868bc <uart_write_str>
ffff000000081694:	b94033e0 	ldr	w0, [sp, #48]
ffff000000081698:	9400153f 	bl	ffff000000086b94 <uart_write_int>
ffff00000008169c:	b0000080 	adrp	x0, ffff000000092000 <pool_slots+0xe38>
ffff0000000816a0:	f943c800 	ldr	x0, [x0, #1936]
ffff0000000816a4:	f9400001 	ldr	x1, [x0]
ffff0000000816a8:	b9802fe0 	ldrsw	x0, [sp, #44]
ffff0000000816ac:	d37ef400 	lsl	x0, x0, #2
ffff0000000816b0:	8b000020 	add	x0, x1, x0
ffff0000000816b4:	52800061 	mov	w1, #0x3                   	// #3
ffff0000000816b8:	b9000001 	str	w1, [x0]
ffff0000000816bc:	b0000080 	adrp	x0, ffff000000092000 <pool_slots+0xe38>
ffff0000000816c0:	f943c000 	ldr	x0, [x0, #1920]
ffff0000000816c4:	f9400001 	ldr	x1, [x0]
ffff0000000816c8:	b98037e0 	ldrsw	x0, [sp, #52]
ffff0000000816cc:	d37ef400 	lsl	x0, x0, #2
ffff0000000816d0:	8b000020 	add	x0, x1, x0
ffff0000000816d4:	12800001 	mov	w1, #0xffffffff            	// #-1
ffff0000000816d8:	b9000001 	str	w1, [x0]
ffff0000000816dc:	b94033e1 	ldr	w1, [sp, #48]
ffff0000000816e0:	b9402fe0 	ldr	w0, [sp, #44]
ffff0000000816e4:	97ffff64 	bl	ffff000000081474 <update_parent_on_free>
ffff0000000816e8:	a8c47bfd 	ldp	x29, x30, [sp], #64
ffff0000000816ec:	d65f03c0 	ret

ffff0000000816f0 <print_64>:
ffff0000000816f0:	a9bd7bfd 	stp	x29, x30, [sp, #-48]!
ffff0000000816f4:	910003fd 	mov	x29, sp
ffff0000000816f8:	f9000fe0 	str	x0, [sp, #24]
ffff0000000816fc:	b90017e1 	str	w1, [sp, #20]
ffff000000081700:	f9400fe0 	ldr	x0, [sp, #24]
ffff000000081704:	f90013e0 	str	x0, [sp, #32]
ffff000000081708:	b9002fff 	str	wzr, [sp, #44]
ffff00000008170c:	14000009 	b	ffff000000081730 <print_64+0x40>
ffff000000081710:	b9802fe0 	ldrsw	x0, [sp, #44]
ffff000000081714:	f94013e1 	ldr	x1, [sp, #32]
ffff000000081718:	8b000020 	add	x0, x1, x0
ffff00000008171c:	39400000 	ldrb	w0, [x0]
ffff000000081720:	9400135c 	bl	ffff000000086490 <uart_write_char_async>
ffff000000081724:	b9402fe0 	ldr	w0, [sp, #44]
ffff000000081728:	11000400 	add	w0, w0, #0x1
ffff00000008172c:	b9002fe0 	str	w0, [sp, #44]
ffff000000081730:	b9402fe1 	ldr	w1, [sp, #44]
ffff000000081734:	b94017e0 	ldr	w0, [sp, #20]
ffff000000081738:	6b00003f 	cmp	w1, w0
ffff00000008173c:	54fffeab 	b.lt	ffff000000081710 <print_64+0x20>  // b.tstop
ffff000000081740:	d503201f 	nop
ffff000000081744:	d503201f 	nop
ffff000000081748:	a8c37bfd 	ldp	x29, x30, [sp], #48
ffff00000008174c:	d65f03c0 	ret

ffff000000081750 <cpio_ls>:
ffff000000081750:	a9bc7bfd 	stp	x29, x30, [sp, #-64]!
ffff000000081754:	910003fd 	mov	x29, sp
ffff000000081758:	b0000080 	adrp	x0, ffff000000092000 <pool_slots+0xe38>
ffff00000008175c:	91236000 	add	x0, x0, #0x8d8
ffff000000081760:	f9400000 	ldr	x0, [x0]
ffff000000081764:	f90017e0 	str	x0, [sp, #40]
ffff000000081768:	f94017e0 	ldr	x0, [sp, #40]
ffff00000008176c:	f9001fe0 	str	x0, [sp, #56]
ffff000000081770:	52800640 	mov	w0, #0x32                  	// #50
ffff000000081774:	b90037e0 	str	w0, [sp, #52]
ffff000000081778:	14000002 	b	ffff000000081780 <cpio_ls+0x30>
ffff00000008177c:	d503201f 	nop
ffff000000081780:	b94037e0 	ldr	w0, [sp, #52]
ffff000000081784:	51000401 	sub	w1, w0, #0x1
ffff000000081788:	b90037e1 	str	w1, [sp, #52]
ffff00000008178c:	7100001f 	cmp	w0, #0x0
ffff000000081790:	54ffff61 	b.ne	ffff00000008177c <cpio_ls+0x2c>  // b.any
ffff000000081794:	f9401fe3 	ldr	x3, [sp, #56]
ffff000000081798:	d28000c2 	mov	x2, #0x6                   	// #6
ffff00000008179c:	b0000060 	adrp	x0, ffff00000008e000 <pool_slots+0x340>
ffff0000000817a0:	91056001 	add	x1, x0, #0x158
ffff0000000817a4:	aa0303e0 	mov	x0, x3
ffff0000000817a8:	94002551 	bl	ffff00000008acec <memcmp>
ffff0000000817ac:	7100001f 	cmp	w0, #0x0
ffff0000000817b0:	54000280 	b.eq	ffff000000081800 <cpio_ls+0xb0>  // b.none
ffff0000000817b4:	b0000060 	adrp	x0, ffff00000008e000 <pool_slots+0x340>
ffff0000000817b8:	91058000 	add	x0, x0, #0x160
ffff0000000817bc:	94001590 	bl	ffff000000086dfc <uart_write_str_raw>
ffff0000000817c0:	b0000060 	adrp	x0, ffff00000008e000 <pool_slots+0x340>
ffff0000000817c4:	91060000 	add	x0, x0, #0x180
ffff0000000817c8:	9400158d 	bl	ffff000000086dfc <uart_write_str_raw>
ffff0000000817cc:	b90033ff 	str	wzr, [sp, #48]
ffff0000000817d0:	14000008 	b	ffff0000000817f0 <cpio_ls+0xa0>
ffff0000000817d4:	f9401fe1 	ldr	x1, [sp, #56]
ffff0000000817d8:	b98033e0 	ldrsw	x0, [sp, #48]
ffff0000000817dc:	38606820 	ldrb	w0, [x1, x0]
ffff0000000817e0:	9400132c 	bl	ffff000000086490 <uart_write_char_async>
ffff0000000817e4:	b94033e0 	ldr	w0, [sp, #48]
ffff0000000817e8:	11000400 	add	w0, w0, #0x1
ffff0000000817ec:	b90033e0 	str	w0, [sp, #48]
ffff0000000817f0:	b94033e0 	ldr	w0, [sp, #48]
ffff0000000817f4:	7100141f 	cmp	w0, #0x5
ffff0000000817f8:	54fffeed 	b.le	ffff0000000817d4 <cpio_ls+0x84>
ffff0000000817fc:	1400002e 	b	ffff0000000818b4 <cpio_ls+0x164>
ffff000000081800:	f9401fe0 	ldr	x0, [sp, #56]
ffff000000081804:	91017800 	add	x0, x0, #0x5e
ffff000000081808:	52800101 	mov	w1, #0x8                   	// #8
ffff00000008180c:	940026f0 	bl	ffff00000008b3cc <atoi>
ffff000000081810:	b90027e0 	str	w0, [sp, #36]
ffff000000081814:	f9401fe0 	ldr	x0, [sp, #56]
ffff000000081818:	9101b800 	add	x0, x0, #0x6e
ffff00000008181c:	f9000fe0 	str	x0, [sp, #24]
ffff000000081820:	b98027e0 	ldrsw	x0, [sp, #36]
ffff000000081824:	aa0003e2 	mov	x2, x0
ffff000000081828:	b0000060 	adrp	x0, ffff00000008e000 <pool_slots+0x340>
ffff00000008182c:	91066001 	add	x1, x0, #0x198
ffff000000081830:	f9400fe0 	ldr	x0, [sp, #24]
ffff000000081834:	9400252e 	bl	ffff00000008acec <memcmp>
ffff000000081838:	7100001f 	cmp	w0, #0x0
ffff00000008183c:	540003a0 	b.eq	ffff0000000818b0 <cpio_ls+0x160>  // b.none
ffff000000081840:	b0000060 	adrp	x0, ffff00000008e000 <pool_slots+0x340>
ffff000000081844:	9106a000 	add	x0, x0, #0x1a8
ffff000000081848:	9400156d 	bl	ffff000000086dfc <uart_write_str_raw>
ffff00000008184c:	f9400fe0 	ldr	x0, [sp, #24]
ffff000000081850:	9400156b 	bl	ffff000000086dfc <uart_write_str_raw>
ffff000000081854:	f9401fe0 	ldr	x0, [sp, #56]
ffff000000081858:	9100d800 	add	x0, x0, #0x36
ffff00000008185c:	52800101 	mov	w1, #0x8                   	// #8
ffff000000081860:	940026db 	bl	ffff00000008b3cc <atoi>
ffff000000081864:	b90017e0 	str	w0, [sp, #20]
ffff000000081868:	b94017e0 	ldr	w0, [sp, #20]
ffff00000008186c:	11000c00 	add	w0, w0, #0x3
ffff000000081870:	121e7400 	and	w0, w0, #0xfffffffc
ffff000000081874:	b90017e0 	str	w0, [sp, #20]
ffff000000081878:	b94027e0 	ldr	w0, [sp, #36]
ffff00000008187c:	1101b800 	add	w0, w0, #0x6e
ffff000000081880:	b90013e0 	str	w0, [sp, #16]
ffff000000081884:	b94013e0 	ldr	w0, [sp, #16]
ffff000000081888:	11000c00 	add	w0, w0, #0x3
ffff00000008188c:	121e7400 	and	w0, w0, #0xfffffffc
ffff000000081890:	b90013e0 	str	w0, [sp, #16]
ffff000000081894:	b94017e1 	ldr	w1, [sp, #20]
ffff000000081898:	b94013e0 	ldr	w0, [sp, #16]
ffff00000008189c:	8b000020 	add	x0, x1, x0
ffff0000000818a0:	f9401fe1 	ldr	x1, [sp, #56]
ffff0000000818a4:	8b000020 	add	x0, x1, x0
ffff0000000818a8:	f9001fe0 	str	x0, [sp, #56]
ffff0000000818ac:	17ffffb1 	b	ffff000000081770 <cpio_ls+0x20>
ffff0000000818b0:	d503201f 	nop
ffff0000000818b4:	d503201f 	nop
ffff0000000818b8:	a8c47bfd 	ldp	x29, x30, [sp], #64
ffff0000000818bc:	d65f03c0 	ret

ffff0000000818c0 <cpio_cat>:
ffff0000000818c0:	a9ba7bfd 	stp	x29, x30, [sp, #-96]!
ffff0000000818c4:	910003fd 	mov	x29, sp
ffff0000000818c8:	f9000fe0 	str	x0, [sp, #24]
ffff0000000818cc:	b0000080 	adrp	x0, ffff000000092000 <pool_slots+0xe38>
ffff0000000818d0:	91236000 	add	x0, x0, #0x8d8
ffff0000000818d4:	f9400000 	ldr	x0, [x0]
ffff0000000818d8:	f90023e0 	str	x0, [sp, #64]
ffff0000000818dc:	f94023e0 	ldr	x0, [sp, #64]
ffff0000000818e0:	f9002fe0 	str	x0, [sp, #88]
ffff0000000818e4:	52800640 	mov	w0, #0x32                  	// #50
ffff0000000818e8:	b90057e0 	str	w0, [sp, #84]
ffff0000000818ec:	14000002 	b	ffff0000000818f4 <cpio_cat+0x34>
ffff0000000818f0:	d503201f 	nop
ffff0000000818f4:	b94057e0 	ldr	w0, [sp, #84]
ffff0000000818f8:	51000401 	sub	w1, w0, #0x1
ffff0000000818fc:	b90057e1 	str	w1, [sp, #84]
ffff000000081900:	7100001f 	cmp	w0, #0x0
ffff000000081904:	54ffff61 	b.ne	ffff0000000818f0 <cpio_cat+0x30>  // b.any
ffff000000081908:	f9402fe3 	ldr	x3, [sp, #88]
ffff00000008190c:	d28000c2 	mov	x2, #0x6                   	// #6
ffff000000081910:	b0000060 	adrp	x0, ffff00000008e000 <pool_slots+0x340>
ffff000000081914:	91056001 	add	x1, x0, #0x158
ffff000000081918:	aa0303e0 	mov	x0, x3
ffff00000008191c:	940024f4 	bl	ffff00000008acec <memcmp>
ffff000000081920:	7100001f 	cmp	w0, #0x0
ffff000000081924:	54000280 	b.eq	ffff000000081974 <cpio_cat+0xb4>  // b.none
ffff000000081928:	b0000060 	adrp	x0, ffff00000008e000 <pool_slots+0x340>
ffff00000008192c:	91058000 	add	x0, x0, #0x160
ffff000000081930:	94001533 	bl	ffff000000086dfc <uart_write_str_raw>
ffff000000081934:	b0000060 	adrp	x0, ffff00000008e000 <pool_slots+0x340>
ffff000000081938:	91060000 	add	x0, x0, #0x180
ffff00000008193c:	94001530 	bl	ffff000000086dfc <uart_write_str_raw>
ffff000000081940:	b90053ff 	str	wzr, [sp, #80]
ffff000000081944:	14000008 	b	ffff000000081964 <cpio_cat+0xa4>
ffff000000081948:	f9402fe1 	ldr	x1, [sp, #88]
ffff00000008194c:	b98053e0 	ldrsw	x0, [sp, #80]
ffff000000081950:	38606820 	ldrb	w0, [x1, x0]
ffff000000081954:	940012cf 	bl	ffff000000086490 <uart_write_char_async>
ffff000000081958:	b94053e0 	ldr	w0, [sp, #80]
ffff00000008195c:	11000400 	add	w0, w0, #0x1
ffff000000081960:	b90053e0 	str	w0, [sp, #80]
ffff000000081964:	b94053e0 	ldr	w0, [sp, #80]
ffff000000081968:	7100141f 	cmp	w0, #0x5
ffff00000008196c:	54fffeed 	b.le	ffff000000081948 <cpio_cat+0x88>
ffff000000081970:	1400004c 	b	ffff000000081aa0 <cpio_cat+0x1e0>
ffff000000081974:	f9402fe0 	ldr	x0, [sp, #88]
ffff000000081978:	91017800 	add	x0, x0, #0x5e
ffff00000008197c:	52800101 	mov	w1, #0x8                   	// #8
ffff000000081980:	94002693 	bl	ffff00000008b3cc <atoi>
ffff000000081984:	b9003fe0 	str	w0, [sp, #60]
ffff000000081988:	f9402fe0 	ldr	x0, [sp, #88]
ffff00000008198c:	9100d800 	add	x0, x0, #0x36
ffff000000081990:	52800101 	mov	w1, #0x8                   	// #8
ffff000000081994:	9400268e 	bl	ffff00000008b3cc <atoi>
ffff000000081998:	b9003be0 	str	w0, [sp, #56]
ffff00000008199c:	b9403fe0 	ldr	w0, [sp, #60]
ffff0000000819a0:	1101b800 	add	w0, w0, #0x6e
ffff0000000819a4:	b90037e0 	str	w0, [sp, #52]
ffff0000000819a8:	b94037e0 	ldr	w0, [sp, #52]
ffff0000000819ac:	11000c00 	add	w0, w0, #0x3
ffff0000000819b0:	121e7400 	and	w0, w0, #0xfffffffc
ffff0000000819b4:	b90037e0 	str	w0, [sp, #52]
ffff0000000819b8:	f9402fe0 	ldr	x0, [sp, #88]
ffff0000000819bc:	9101b800 	add	x0, x0, #0x6e
ffff0000000819c0:	f90017e0 	str	x0, [sp, #40]
ffff0000000819c4:	b9803fe0 	ldrsw	x0, [sp, #60]
ffff0000000819c8:	aa0003e2 	mov	x2, x0
ffff0000000819cc:	b0000060 	adrp	x0, ffff00000008e000 <pool_slots+0x340>
ffff0000000819d0:	91066001 	add	x1, x0, #0x198
ffff0000000819d4:	f94017e0 	ldr	x0, [sp, #40]
ffff0000000819d8:	940024c5 	bl	ffff00000008acec <memcmp>
ffff0000000819dc:	7100001f 	cmp	w0, #0x0
ffff0000000819e0:	540005e0 	b.eq	ffff000000081a9c <cpio_cat+0x1dc>  // b.none
ffff0000000819e4:	b9803fe0 	ldrsw	x0, [sp, #60]
ffff0000000819e8:	aa0003e2 	mov	x2, x0
ffff0000000819ec:	f9400fe1 	ldr	x1, [sp, #24]
ffff0000000819f0:	f94017e0 	ldr	x0, [sp, #40]
ffff0000000819f4:	940024be 	bl	ffff00000008acec <memcmp>
ffff0000000819f8:	7100001f 	cmp	w0, #0x0
ffff0000000819fc:	540003a1 	b.ne	ffff000000081a70 <cpio_cat+0x1b0>  // b.any
ffff000000081a00:	b94037e0 	ldr	w0, [sp, #52]
ffff000000081a04:	f9402fe1 	ldr	x1, [sp, #88]
ffff000000081a08:	8b000020 	add	x0, x1, x0
ffff000000081a0c:	f90013e0 	str	x0, [sp, #32]
ffff000000081a10:	b0000060 	adrp	x0, ffff00000008e000 <pool_slots+0x340>
ffff000000081a14:	9106c000 	add	x0, x0, #0x1b0
ffff000000081a18:	940014f9 	bl	ffff000000086dfc <uart_write_str_raw>
ffff000000081a1c:	f9400fe0 	ldr	x0, [sp, #24]
ffff000000081a20:	940014f7 	bl	ffff000000086dfc <uart_write_str_raw>
ffff000000081a24:	b0000060 	adrp	x0, ffff00000008e000 <pool_slots+0x340>
ffff000000081a28:	91074000 	add	x0, x0, #0x1d0
ffff000000081a2c:	940014f4 	bl	ffff000000086dfc <uart_write_str_raw>
ffff000000081a30:	b9004fff 	str	wzr, [sp, #76]
ffff000000081a34:	14000009 	b	ffff000000081a58 <cpio_cat+0x198>
ffff000000081a38:	b9804fe0 	ldrsw	x0, [sp, #76]
ffff000000081a3c:	f94013e1 	ldr	x1, [sp, #32]
ffff000000081a40:	8b000020 	add	x0, x1, x0
ffff000000081a44:	39400000 	ldrb	w0, [x0]
ffff000000081a48:	94001292 	bl	ffff000000086490 <uart_write_char_async>
ffff000000081a4c:	b9404fe0 	ldr	w0, [sp, #76]
ffff000000081a50:	11000400 	add	w0, w0, #0x1
ffff000000081a54:	b9004fe0 	str	w0, [sp, #76]
ffff000000081a58:	b9404fe1 	ldr	w1, [sp, #76]
ffff000000081a5c:	b9403be0 	ldr	w0, [sp, #56]
ffff000000081a60:	6b00003f 	cmp	w1, w0
ffff000000081a64:	54fffeab 	b.lt	ffff000000081a38 <cpio_cat+0x178>  // b.tstop
ffff000000081a68:	52800020 	mov	w0, #0x1                   	// #1
ffff000000081a6c:	1400000e 	b	ffff000000081aa4 <cpio_cat+0x1e4>
ffff000000081a70:	b9403be0 	ldr	w0, [sp, #56]
ffff000000081a74:	11000c00 	add	w0, w0, #0x3
ffff000000081a78:	121e7400 	and	w0, w0, #0xfffffffc
ffff000000081a7c:	b9003be0 	str	w0, [sp, #56]
ffff000000081a80:	b9803be1 	ldrsw	x1, [sp, #56]
ffff000000081a84:	b94037e0 	ldr	w0, [sp, #52]
ffff000000081a88:	8b000020 	add	x0, x1, x0
ffff000000081a8c:	f9402fe1 	ldr	x1, [sp, #88]
ffff000000081a90:	8b000020 	add	x0, x1, x0
ffff000000081a94:	f9002fe0 	str	x0, [sp, #88]
ffff000000081a98:	17ffff93 	b	ffff0000000818e4 <cpio_cat+0x24>
ffff000000081a9c:	d503201f 	nop
ffff000000081aa0:	52800000 	mov	w0, #0x0                   	// #0
ffff000000081aa4:	a8c67bfd 	ldp	x29, x30, [sp], #96
ffff000000081aa8:	d65f03c0 	ret

ffff000000081aac <cpio_exec_user_program_to_thread>:
ffff000000081aac:	a9bb7bfd 	stp	x29, x30, [sp, #-80]!
ffff000000081ab0:	910003fd 	mov	x29, sp
ffff000000081ab4:	f9000fe0 	str	x0, [sp, #24]
ffff000000081ab8:	f9000be1 	str	x1, [sp, #16]
ffff000000081abc:	b0000080 	adrp	x0, ffff000000092000 <pool_slots+0xe38>
ffff000000081ac0:	91236000 	add	x0, x0, #0x8d8
ffff000000081ac4:	f9400000 	ldr	x0, [x0]
ffff000000081ac8:	f90023e0 	str	x0, [sp, #64]
ffff000000081acc:	f94023e0 	ldr	x0, [sp, #64]
ffff000000081ad0:	f90027e0 	str	x0, [sp, #72]
ffff000000081ad4:	f94027e3 	ldr	x3, [sp, #72]
ffff000000081ad8:	d28000c2 	mov	x2, #0x6                   	// #6
ffff000000081adc:	b0000060 	adrp	x0, ffff00000008e000 <pool_slots+0x340>
ffff000000081ae0:	91056001 	add	x1, x0, #0x158
ffff000000081ae4:	aa0303e0 	mov	x0, x3
ffff000000081ae8:	94002481 	bl	ffff00000008acec <memcmp>
ffff000000081aec:	7100001f 	cmp	w0, #0x0
ffff000000081af0:	54000060 	b.eq	ffff000000081afc <cpio_exec_user_program_to_thread+0x50>  // b.none
ffff000000081af4:	12800000 	mov	w0, #0xffffffff            	// #-1
ffff000000081af8:	14000053 	b	ffff000000081c44 <cpio_exec_user_program_to_thread+0x198>
ffff000000081afc:	f94027e0 	ldr	x0, [sp, #72]
ffff000000081b00:	91017800 	add	x0, x0, #0x5e
ffff000000081b04:	52800101 	mov	w1, #0x8                   	// #8
ffff000000081b08:	94002631 	bl	ffff00000008b3cc <atoi>
ffff000000081b0c:	b9003fe0 	str	w0, [sp, #60]
ffff000000081b10:	f94027e0 	ldr	x0, [sp, #72]
ffff000000081b14:	9100d800 	add	x0, x0, #0x36
ffff000000081b18:	52800101 	mov	w1, #0x8                   	// #8
ffff000000081b1c:	9400262c 	bl	ffff00000008b3cc <atoi>
ffff000000081b20:	b9003be0 	str	w0, [sp, #56]
ffff000000081b24:	b9403fe0 	ldr	w0, [sp, #60]
ffff000000081b28:	1101c400 	add	w0, w0, #0x71
ffff000000081b2c:	121e7400 	and	w0, w0, #0xfffffffc
ffff000000081b30:	b90037e0 	str	w0, [sp, #52]
ffff000000081b34:	f94027e0 	ldr	x0, [sp, #72]
ffff000000081b38:	9101b800 	add	x0, x0, #0x6e
ffff000000081b3c:	f90017e0 	str	x0, [sp, #40]
ffff000000081b40:	b9803fe0 	ldrsw	x0, [sp, #60]
ffff000000081b44:	aa0003e2 	mov	x2, x0
ffff000000081b48:	b0000060 	adrp	x0, ffff00000008e000 <pool_slots+0x340>
ffff000000081b4c:	91066001 	add	x1, x0, #0x198
ffff000000081b50:	f94017e0 	ldr	x0, [sp, #40]
ffff000000081b54:	94002466 	bl	ffff00000008acec <memcmp>
ffff000000081b58:	7100001f 	cmp	w0, #0x0
ffff000000081b5c:	54000700 	b.eq	ffff000000081c3c <cpio_exec_user_program_to_thread+0x190>  // b.none
ffff000000081b60:	b9803fe0 	ldrsw	x0, [sp, #60]
ffff000000081b64:	aa0003e2 	mov	x2, x0
ffff000000081b68:	f9400be1 	ldr	x1, [sp, #16]
ffff000000081b6c:	f94017e0 	ldr	x0, [sp, #40]
ffff000000081b70:	9400245f 	bl	ffff00000008acec <memcmp>
ffff000000081b74:	7100001f 	cmp	w0, #0x0
ffff000000081b78:	540004c1 	b.ne	ffff000000081c10 <cpio_exec_user_program_to_thread+0x164>  // b.any
ffff000000081b7c:	b9403be0 	ldr	w0, [sp, #56]
ffff000000081b80:	113ffc00 	add	w0, w0, #0xfff
ffff000000081b84:	113ffc01 	add	w1, w0, #0xfff
ffff000000081b88:	7100001f 	cmp	w0, #0x0
ffff000000081b8c:	1a80b020 	csel	w0, w1, w0, lt  // lt = tstop
ffff000000081b90:	130c7c00 	asr	w0, w0, #12
ffff000000081b94:	53144c00 	lsl	w0, w0, #12
ffff000000081b98:	93407c00 	sxtw	x0, w0
ffff000000081b9c:	94000dce 	bl	ffff0000000852d4 <kmalloc>
ffff000000081ba0:	f90013e0 	str	x0, [sp, #32]
ffff000000081ba4:	b9403be0 	ldr	w0, [sp, #56]
ffff000000081ba8:	113ffc00 	add	w0, w0, #0xfff
ffff000000081bac:	113ffc01 	add	w1, w0, #0xfff
ffff000000081bb0:	7100001f 	cmp	w0, #0x0
ffff000000081bb4:	1a80b020 	csel	w0, w1, w0, lt  // lt = tstop
ffff000000081bb8:	130c7c00 	asr	w0, w0, #12
ffff000000081bbc:	53144c00 	lsl	w0, w0, #12
ffff000000081bc0:	93407c00 	sxtw	x0, w0
ffff000000081bc4:	aa0003e2 	mov	x2, x0
ffff000000081bc8:	52800001 	mov	w1, #0x0                   	// #0
ffff000000081bcc:	f94013e0 	ldr	x0, [sp, #32]
ffff000000081bd0:	94002412 	bl	ffff00000008ac18 <memset>
ffff000000081bd4:	b94037e0 	ldr	w0, [sp, #52]
ffff000000081bd8:	f94027e1 	ldr	x1, [sp, #72]
ffff000000081bdc:	8b000020 	add	x0, x1, x0
ffff000000081be0:	b9803be1 	ldrsw	x1, [sp, #56]
ffff000000081be4:	aa0103e2 	mov	x2, x1
ffff000000081be8:	aa0003e1 	mov	x1, x0
ffff000000081bec:	f94013e0 	ldr	x0, [sp, #32]
ffff000000081bf0:	94002422 	bl	ffff00000008ac78 <simple_memcpy>
ffff000000081bf4:	b9803be0 	ldrsw	x0, [sp, #56]
ffff000000081bf8:	aa0003e2 	mov	x2, x0
ffff000000081bfc:	f94013e1 	ldr	x1, [sp, #32]
ffff000000081c00:	f9400fe0 	ldr	x0, [sp, #24]
ffff000000081c04:	940015e9 	bl	ffff0000000873a8 <user_pagetable_setup>
ffff000000081c08:	52800000 	mov	w0, #0x0                   	// #0
ffff000000081c0c:	1400000e 	b	ffff000000081c44 <cpio_exec_user_program_to_thread+0x198>
ffff000000081c10:	b9403be0 	ldr	w0, [sp, #56]
ffff000000081c14:	11000c00 	add	w0, w0, #0x3
ffff000000081c18:	121e7400 	and	w0, w0, #0xfffffffc
ffff000000081c1c:	b9003be0 	str	w0, [sp, #56]
ffff000000081c20:	b9803be1 	ldrsw	x1, [sp, #56]
ffff000000081c24:	b94037e0 	ldr	w0, [sp, #52]
ffff000000081c28:	8b000020 	add	x0, x1, x0
ffff000000081c2c:	f94027e1 	ldr	x1, [sp, #72]
ffff000000081c30:	8b000020 	add	x0, x1, x0
ffff000000081c34:	f90027e0 	str	x0, [sp, #72]
ffff000000081c38:	17ffffa7 	b	ffff000000081ad4 <cpio_exec_user_program_to_thread+0x28>
ffff000000081c3c:	d503201f 	nop
ffff000000081c40:	12800000 	mov	w0, #0xffffffff            	// #-1
ffff000000081c44:	a8c57bfd 	ldp	x29, x30, [sp], #80
ffff000000081c48:	d65f03c0 	ret

ffff000000081c4c <cpio_exec_user_program>:
ffff000000081c4c:	a9b57bfd 	stp	x29, x30, [sp, #-176]!
ffff000000081c50:	910003fd 	mov	x29, sp
ffff000000081c54:	f9000fe0 	str	x0, [sp, #24]
ffff000000081c58:	b0000080 	adrp	x0, ffff000000092000 <pool_slots+0xe38>
ffff000000081c5c:	91236000 	add	x0, x0, #0x8d8
ffff000000081c60:	f9400000 	ldr	x0, [x0]
ffff000000081c64:	f90047e0 	str	x0, [sp, #136]
ffff000000081c68:	f94047e0 	ldr	x0, [sp, #136]
ffff000000081c6c:	f90057e0 	str	x0, [sp, #168]
ffff000000081c70:	52800640 	mov	w0, #0x32                  	// #50
ffff000000081c74:	b900a7e0 	str	w0, [sp, #164]
ffff000000081c78:	14000002 	b	ffff000000081c80 <cpio_exec_user_program+0x34>
ffff000000081c7c:	d503201f 	nop
ffff000000081c80:	b940a7e0 	ldr	w0, [sp, #164]
ffff000000081c84:	51000401 	sub	w1, w0, #0x1
ffff000000081c88:	b900a7e1 	str	w1, [sp, #164]
ffff000000081c8c:	7100001f 	cmp	w0, #0x0
ffff000000081c90:	54ffff61 	b.ne	ffff000000081c7c <cpio_exec_user_program+0x30>  // b.any
ffff000000081c94:	f94057e3 	ldr	x3, [sp, #168]
ffff000000081c98:	d28000c2 	mov	x2, #0x6                   	// #6
ffff000000081c9c:	b0000060 	adrp	x0, ffff00000008e000 <pool_slots+0x340>
ffff000000081ca0:	91056001 	add	x1, x0, #0x158
ffff000000081ca4:	aa0303e0 	mov	x0, x3
ffff000000081ca8:	94002411 	bl	ffff00000008acec <memcmp>
ffff000000081cac:	7100001f 	cmp	w0, #0x0
ffff000000081cb0:	540000c0 	b.eq	ffff000000081cc8 <cpio_exec_user_program+0x7c>  // b.none
ffff000000081cb4:	b0000060 	adrp	x0, ffff00000008e000 <pool_slots+0x340>
ffff000000081cb8:	91058000 	add	x0, x0, #0x160
ffff000000081cbc:	94001450 	bl	ffff000000086dfc <uart_write_str_raw>
ffff000000081cc0:	12800000 	mov	w0, #0xffffffff            	// #-1
ffff000000081cc4:	140000f7 	b	ffff0000000820a0 <cpio_exec_user_program+0x454>
ffff000000081cc8:	f94057e0 	ldr	x0, [sp, #168]
ffff000000081ccc:	91017800 	add	x0, x0, #0x5e
ffff000000081cd0:	52800101 	mov	w1, #0x8                   	// #8
ffff000000081cd4:	940025be 	bl	ffff00000008b3cc <atoi>
ffff000000081cd8:	b90087e0 	str	w0, [sp, #132]
ffff000000081cdc:	f94057e0 	ldr	x0, [sp, #168]
ffff000000081ce0:	9100d800 	add	x0, x0, #0x36
ffff000000081ce4:	52800101 	mov	w1, #0x8                   	// #8
ffff000000081ce8:	940025b9 	bl	ffff00000008b3cc <atoi>
ffff000000081cec:	b90083e0 	str	w0, [sp, #128]
ffff000000081cf0:	b94087e0 	ldr	w0, [sp, #132]
ffff000000081cf4:	1101b800 	add	w0, w0, #0x6e
ffff000000081cf8:	b9007fe0 	str	w0, [sp, #124]
ffff000000081cfc:	b9407fe0 	ldr	w0, [sp, #124]
ffff000000081d00:	11000c00 	add	w0, w0, #0x3
ffff000000081d04:	121e7400 	and	w0, w0, #0xfffffffc
ffff000000081d08:	b9007fe0 	str	w0, [sp, #124]
ffff000000081d0c:	f94057e0 	ldr	x0, [sp, #168]
ffff000000081d10:	9101b800 	add	x0, x0, #0x6e
ffff000000081d14:	f9003be0 	str	x0, [sp, #112]
ffff000000081d18:	b98087e0 	ldrsw	x0, [sp, #132]
ffff000000081d1c:	aa0003e2 	mov	x2, x0
ffff000000081d20:	b0000060 	adrp	x0, ffff00000008e000 <pool_slots+0x340>
ffff000000081d24:	91066001 	add	x1, x0, #0x198
ffff000000081d28:	f9403be0 	ldr	x0, [sp, #112]
ffff000000081d2c:	940023f0 	bl	ffff00000008acec <memcmp>
ffff000000081d30:	7100001f 	cmp	w0, #0x0
ffff000000081d34:	54001ac0 	b.eq	ffff00000008208c <cpio_exec_user_program+0x440>  // b.none
ffff000000081d38:	b98087e0 	ldrsw	x0, [sp, #132]
ffff000000081d3c:	aa0003e2 	mov	x2, x0
ffff000000081d40:	f9400fe1 	ldr	x1, [sp, #24]
ffff000000081d44:	f9403be0 	ldr	x0, [sp, #112]
ffff000000081d48:	940023e9 	bl	ffff00000008acec <memcmp>
ffff000000081d4c:	7100001f 	cmp	w0, #0x0
ffff000000081d50:	54001881 	b.ne	ffff000000082060 <cpio_exec_user_program+0x414>  // b.any
ffff000000081d54:	94002fbc 	bl	ffff00000008dc44 <get_current>
ffff000000081d58:	f90037e0 	str	x0, [sp, #104]
ffff000000081d5c:	f94037e0 	ldr	x0, [sp, #104]
ffff000000081d60:	f9400000 	ldr	x0, [x0]
ffff000000081d64:	f90033e0 	str	x0, [sp, #96]
ffff000000081d68:	f94037e0 	ldr	x0, [sp, #104]
ffff000000081d6c:	f940f800 	ldr	x0, [x0, #496]
ffff000000081d70:	f100001f 	cmp	x0, #0x0
ffff000000081d74:	540000c0 	b.eq	ffff000000081d8c <cpio_exec_user_program+0x140>  // b.none
ffff000000081d78:	f94037e0 	ldr	x0, [sp, #104]
ffff000000081d7c:	f940f800 	ldr	x0, [x0, #496]
ffff000000081d80:	b2503c00 	orr	x0, x0, #0xffff000000000000
ffff000000081d84:	52800001 	mov	w1, #0x0                   	// #0
ffff000000081d88:	940015f6 	bl	ffff000000087560 <free_pagetable>
ffff000000081d8c:	d2820000 	mov	x0, #0x1000                	// #4096
ffff000000081d90:	94000d51 	bl	ffff0000000852d4 <kmalloc>
ffff000000081d94:	f9002fe0 	str	x0, [sp, #88]
ffff000000081d98:	f9402fe0 	ldr	x0, [sp, #88]
ffff000000081d9c:	9240bc00 	and	x0, x0, #0xffffffffffff
ffff000000081da0:	f9002be0 	str	x0, [sp, #80]
ffff000000081da4:	d2820002 	mov	x2, #0x1000                	// #4096
ffff000000081da8:	52800001 	mov	w1, #0x0                   	// #0
ffff000000081dac:	f9402fe0 	ldr	x0, [sp, #88]
ffff000000081db0:	9400239a 	bl	ffff00000008ac18 <memset>
ffff000000081db4:	f94037e0 	ldr	x0, [sp, #104]
ffff000000081db8:	f9402be1 	ldr	x1, [sp, #80]
ffff000000081dbc:	f900f801 	str	x1, [x0, #496]
ffff000000081dc0:	b0000060 	adrp	x0, ffff00000008e000 <pool_slots+0x340>
ffff000000081dc4:	91078000 	add	x0, x0, #0x1e0
ffff000000081dc8:	9400140d 	bl	ffff000000086dfc <uart_write_str_raw>
ffff000000081dcc:	b94083e0 	ldr	w0, [sp, #128]
ffff000000081dd0:	113ffc00 	add	w0, w0, #0xfff
ffff000000081dd4:	113ffc01 	add	w1, w0, #0xfff
ffff000000081dd8:	7100001f 	cmp	w0, #0x0
ffff000000081ddc:	1a80b020 	csel	w0, w1, w0, lt  // lt = tstop
ffff000000081de0:	130c7c00 	asr	w0, w0, #12
ffff000000081de4:	53144c00 	lsl	w0, w0, #12
ffff000000081de8:	93407c00 	sxtw	x0, w0
ffff000000081dec:	f90027e0 	str	x0, [sp, #72]
ffff000000081df0:	f94027e0 	ldr	x0, [sp, #72]
ffff000000081df4:	94000d38 	bl	ffff0000000852d4 <kmalloc>
ffff000000081df8:	f90023e0 	str	x0, [sp, #64]
ffff000000081dfc:	f94027e2 	ldr	x2, [sp, #72]
ffff000000081e00:	52800001 	mov	w1, #0x0                   	// #0
ffff000000081e04:	f94023e0 	ldr	x0, [sp, #64]
ffff000000081e08:	94002384 	bl	ffff00000008ac18 <memset>
ffff000000081e0c:	b9407fe0 	ldr	w0, [sp, #124]
ffff000000081e10:	f94057e1 	ldr	x1, [sp, #168]
ffff000000081e14:	8b000020 	add	x0, x1, x0
ffff000000081e18:	b98083e1 	ldrsw	x1, [sp, #128]
ffff000000081e1c:	aa0103e2 	mov	x2, x1
ffff000000081e20:	aa0003e1 	mov	x1, x0
ffff000000081e24:	f94023e0 	ldr	x0, [sp, #64]
ffff000000081e28:	94002394 	bl	ffff00000008ac78 <simple_memcpy>
ffff000000081e2c:	f9004fff 	str	xzr, [sp, #152]
ffff000000081e30:	14000016 	b	ffff000000081e88 <cpio_exec_user_program+0x23c>
ffff000000081e34:	b0000060 	adrp	x0, ffff00000008e000 <pool_slots+0x340>
ffff000000081e38:	9108e000 	add	x0, x0, #0x238
ffff000000081e3c:	940013f0 	bl	ffff000000086dfc <uart_write_str_raw>
ffff000000081e40:	f9404fe0 	ldr	x0, [sp, #152]
ffff000000081e44:	91000401 	add	x1, x0, #0x1
ffff000000081e48:	f9004fe1 	str	x1, [sp, #152]
ffff000000081e4c:	94001403 	bl	ffff000000086e58 <uart_write_int_raw>
ffff000000081e50:	f94023e1 	ldr	x1, [sp, #64]
ffff000000081e54:	f9404fe0 	ldr	x0, [sp, #152]
ffff000000081e58:	8b000020 	add	x0, x1, x0
ffff000000081e5c:	9240bc00 	and	x0, x0, #0xffffffffffff
ffff000000081e60:	f90013e0 	str	x0, [sp, #32]
ffff000000081e64:	52801884 	mov	w4, #0xc4                  	// #196
ffff000000081e68:	f94013e3 	ldr	x3, [sp, #32]
ffff000000081e6c:	d2820002 	mov	x2, #0x1000                	// #4096
ffff000000081e70:	f9404fe1 	ldr	x1, [sp, #152]
ffff000000081e74:	f9402fe0 	ldr	x0, [sp, #88]
ffff000000081e78:	940014ea 	bl	ffff000000087220 <mappages>
ffff000000081e7c:	f9404fe0 	ldr	x0, [sp, #152]
ffff000000081e80:	91400400 	add	x0, x0, #0x1, lsl #12
ffff000000081e84:	f9004fe0 	str	x0, [sp, #152]
ffff000000081e88:	f9404fe1 	ldr	x1, [sp, #152]
ffff000000081e8c:	f94027e0 	ldr	x0, [sp, #72]
ffff000000081e90:	eb00003f 	cmp	x1, x0
ffff000000081e94:	54fffd03 	b.cc	ffff000000081e34 <cpio_exec_user_program+0x1e8>  // b.lo, b.ul, b.last
ffff000000081e98:	b0000060 	adrp	x0, ffff00000008e000 <pool_slots+0x340>
ffff000000081e9c:	91092000 	add	x0, x0, #0x248
ffff000000081ea0:	940013d7 	bl	ffff000000086dfc <uart_write_str_raw>
ffff000000081ea4:	b2748fe0 	mov	x0, #0xfffffffff000        	// #281474976706560
ffff000000081ea8:	f9001fe0 	str	x0, [sp, #56]
ffff000000081eac:	b90097ff 	str	wzr, [sp, #148]
ffff000000081eb0:	1400001f 	b	ffff000000081f2c <cpio_exec_user_program+0x2e0>
ffff000000081eb4:	b0000060 	adrp	x0, ffff00000008e000 <pool_slots+0x340>
ffff000000081eb8:	9108e000 	add	x0, x0, #0x238
ffff000000081ebc:	940013d0 	bl	ffff000000086dfc <uart_write_str_raw>
ffff000000081ec0:	b94097e0 	ldr	w0, [sp, #148]
ffff000000081ec4:	940013e5 	bl	ffff000000086e58 <uart_write_int_raw>
ffff000000081ec8:	d2820000 	mov	x0, #0x1000                	// #4096
ffff000000081ecc:	94000d02 	bl	ffff0000000852d4 <kmalloc>
ffff000000081ed0:	f9001be0 	str	x0, [sp, #48]
ffff000000081ed4:	d2820002 	mov	x2, #0x1000                	// #4096
ffff000000081ed8:	52800001 	mov	w1, #0x0                   	// #0
ffff000000081edc:	f9401be0 	ldr	x0, [sp, #48]
ffff000000081ee0:	9400234e 	bl	ffff00000008ac18 <memset>
ffff000000081ee4:	f9401be0 	ldr	x0, [sp, #48]
ffff000000081ee8:	9240bc00 	and	x0, x0, #0xffffffffffff
ffff000000081eec:	f90017e0 	str	x0, [sp, #40]
ffff000000081ef0:	b94097e0 	ldr	w0, [sp, #148]
ffff000000081ef4:	53144c00 	lsl	w0, w0, #12
ffff000000081ef8:	93407c00 	sxtw	x0, w0
ffff000000081efc:	f9401fe1 	ldr	x1, [sp, #56]
ffff000000081f00:	cb000020 	sub	x0, x1, x0
ffff000000081f04:	f94017e1 	ldr	x1, [sp, #40]
ffff000000081f08:	52800884 	mov	w4, #0x44                  	// #68
ffff000000081f0c:	aa0103e3 	mov	x3, x1
ffff000000081f10:	d2820002 	mov	x2, #0x1000                	// #4096
ffff000000081f14:	aa0003e1 	mov	x1, x0
ffff000000081f18:	f9402fe0 	ldr	x0, [sp, #88]
ffff000000081f1c:	940014c1 	bl	ffff000000087220 <mappages>
ffff000000081f20:	b94097e0 	ldr	w0, [sp, #148]
ffff000000081f24:	11000400 	add	w0, w0, #0x1
ffff000000081f28:	b90097e0 	str	w0, [sp, #148]
ffff000000081f2c:	b94097e0 	ldr	w0, [sp, #148]
ffff000000081f30:	71000c1f 	cmp	w0, #0x3
ffff000000081f34:	54fffc0d 	b.le	ffff000000081eb4 <cpio_exec_user_program+0x268>
ffff000000081f38:	f94033e0 	ldr	x0, [sp, #96]
ffff000000081f3c:	9103c000 	add	x0, x0, #0xf0
ffff000000081f40:	f900001f 	str	xzr, [x0]
ffff000000081f44:	f94033e0 	ldr	x0, [sp, #96]
ffff000000081f48:	91040000 	add	x0, x0, #0x100
ffff000000081f4c:	d2806801 	mov	x1, #0x340                 	// #832
ffff000000081f50:	f9000001 	str	x1, [x0]
ffff000000081f54:	f94033e0 	ldr	x0, [sp, #96]
ffff000000081f58:	91042000 	add	x0, x0, #0x108
ffff000000081f5c:	f900001f 	str	xzr, [x0]
ffff000000081f60:	f94033e0 	ldr	x0, [sp, #96]
ffff000000081f64:	91044000 	add	x0, x0, #0x110
ffff000000081f68:	f9401fe1 	ldr	x1, [sp, #56]
ffff000000081f6c:	f9000001 	str	x1, [x0]
ffff000000081f70:	f94033e0 	ldr	x0, [sp, #96]
ffff000000081f74:	91046000 	add	x0, x0, #0x118
ffff000000081f78:	d2800021 	mov	x1, #0x1                   	// #1
ffff000000081f7c:	f9000001 	str	x1, [x0]
ffff000000081f80:	f94037e0 	ldr	x0, [sp, #104]
ffff000000081f84:	f9401000 	ldr	x0, [x0, #32]
ffff000000081f88:	aa0003e1 	mov	x1, x0
ffff000000081f8c:	d287fe00 	mov	x0, #0x3ff0                	// #16368
ffff000000081f90:	8b000021 	add	x1, x1, x0
ffff000000081f94:	f94037e0 	ldr	x0, [sp, #104]
ffff000000081f98:	f9001401 	str	x1, [x0, #40]
ffff000000081f9c:	b90093ff 	str	wzr, [sp, #144]
ffff000000081fa0:	1400000c 	b	ffff000000081fd0 <cpio_exec_user_program+0x384>
ffff000000081fa4:	f94037e0 	ldr	x0, [sp, #104]
ffff000000081fa8:	b98093e1 	ldrsw	x1, [sp, #144]
ffff000000081fac:	91002021 	add	x1, x1, #0x8
ffff000000081fb0:	f821781f 	str	xzr, [x0, x1, lsl #3]
ffff000000081fb4:	f94037e0 	ldr	x0, [sp, #104]
ffff000000081fb8:	b98093e1 	ldrsw	x1, [sp, #144]
ffff000000081fbc:	91014021 	add	x1, x1, #0x50
ffff000000081fc0:	b821781f 	str	wzr, [x0, x1, lsl #2]
ffff000000081fc4:	b94093e0 	ldr	w0, [sp, #144]
ffff000000081fc8:	11000400 	add	w0, w0, #0x1
ffff000000081fcc:	b90093e0 	str	w0, [sp, #144]
ffff000000081fd0:	b94093e0 	ldr	w0, [sp, #144]
ffff000000081fd4:	71007c1f 	cmp	w0, #0x1f
ffff000000081fd8:	54fffe6d 	b.le	ffff000000081fa4 <cpio_exec_user_program+0x358>
ffff000000081fdc:	f94037e0 	ldr	x0, [sp, #104]
ffff000000081fe0:	f900f01f 	str	xzr, [x0, #480]
ffff000000081fe4:	f94037e0 	ldr	x0, [sp, #104]
ffff000000081fe8:	b901e81f 	str	wzr, [x0, #488]
ffff000000081fec:	b0000060 	adrp	x0, ffff00000008e000 <pool_slots+0x340>
ffff000000081ff0:	910a8000 	add	x0, x0, #0x2a0
ffff000000081ff4:	94001382 	bl	ffff000000086dfc <uart_write_str_raw>
ffff000000081ff8:	f9403be0 	ldr	x0, [sp, #112]
ffff000000081ffc:	94001380 	bl	ffff000000086dfc <uart_write_str_raw>
ffff000000082000:	90000060 	adrp	x0, ffff00000008e000 <pool_slots+0x340>
ffff000000082004:	910ae000 	add	x0, x0, #0x2b8
ffff000000082008:	9400137d 	bl	ffff000000086dfc <uart_write_str_raw>
ffff00000008200c:	f94023e0 	ldr	x0, [sp, #64]
ffff000000082010:	940013aa 	bl	ffff000000086eb8 <uart_write_hex_raw>
ffff000000082014:	90000060 	adrp	x0, ffff00000008e000 <pool_slots+0x340>
ffff000000082018:	910b0000 	add	x0, x0, #0x2c0
ffff00000008201c:	94001378 	bl	ffff000000086dfc <uart_write_str_raw>
ffff000000082020:	b94083e0 	ldr	w0, [sp, #128]
ffff000000082024:	9400138d 	bl	ffff000000086e58 <uart_write_int_raw>
ffff000000082028:	90000060 	adrp	x0, ffff00000008e000 <pool_slots+0x340>
ffff00000008202c:	910b6000 	add	x0, x0, #0x2d8
ffff000000082030:	94001373 	bl	ffff000000086dfc <uart_write_str_raw>
ffff000000082034:	f94037e0 	ldr	x0, [sp, #104]
ffff000000082038:	b9400800 	ldr	w0, [x0, #8]
ffff00000008203c:	94001387 	bl	ffff000000086e58 <uart_write_int_raw>
ffff000000082040:	90000060 	adrp	x0, ffff00000008e000 <pool_slots+0x340>
ffff000000082044:	910ba000 	add	x0, x0, #0x2e8
ffff000000082048:	9400136d 	bl	ffff000000086dfc <uart_write_str_raw>
ffff00000008204c:	f94037e0 	ldr	x0, [sp, #104]
ffff000000082050:	f9401400 	ldr	x0, [x0, #40]
ffff000000082054:	94001399 	bl	ffff000000086eb8 <uart_write_hex_raw>
ffff000000082058:	52800000 	mov	w0, #0x0                   	// #0
ffff00000008205c:	14000011 	b	ffff0000000820a0 <cpio_exec_user_program+0x454>
ffff000000082060:	b94083e0 	ldr	w0, [sp, #128]
ffff000000082064:	11000c00 	add	w0, w0, #0x3
ffff000000082068:	121e7400 	and	w0, w0, #0xfffffffc
ffff00000008206c:	b90083e0 	str	w0, [sp, #128]
ffff000000082070:	b98083e1 	ldrsw	x1, [sp, #128]
ffff000000082074:	b9407fe0 	ldr	w0, [sp, #124]
ffff000000082078:	8b000020 	add	x0, x1, x0
ffff00000008207c:	f94057e1 	ldr	x1, [sp, #168]
ffff000000082080:	8b000020 	add	x0, x1, x0
ffff000000082084:	f90057e0 	str	x0, [sp, #168]
ffff000000082088:	17fffefa 	b	ffff000000081c70 <cpio_exec_user_program+0x24>
ffff00000008208c:	d503201f 	nop
ffff000000082090:	90000060 	adrp	x0, ffff00000008e000 <pool_slots+0x340>
ffff000000082094:	910be000 	add	x0, x0, #0x2f8
ffff000000082098:	94001359 	bl	ffff000000086dfc <uart_write_str_raw>
ffff00000008209c:	12800000 	mov	w0, #0xffffffff            	// #-1
ffff0000000820a0:	a8cb7bfd 	ldp	x29, x30, [sp], #176
ffff0000000820a4:	d65f03c0 	ret

ffff0000000820a8 <initramfs_callback>:
ffff0000000820a8:	a9bd7bfd 	stp	x29, x30, [sp, #-48]!
ffff0000000820ac:	910003fd 	mov	x29, sp
ffff0000000820b0:	f90017e0 	str	x0, [sp, #40]
ffff0000000820b4:	f90013e1 	str	x1, [sp, #32]
ffff0000000820b8:	f9000fe2 	str	x2, [sp, #24]
ffff0000000820bc:	f9000be3 	str	x3, [sp, #16]
ffff0000000820c0:	d28000e2 	mov	x2, #0x7                   	// #7
ffff0000000820c4:	90000060 	adrp	x0, ffff00000008e000 <pool_slots+0x340>
ffff0000000820c8:	910c6001 	add	x1, x0, #0x318
ffff0000000820cc:	f9400be0 	ldr	x0, [sp, #16]
ffff0000000820d0:	94002307 	bl	ffff00000008acec <memcmp>
ffff0000000820d4:	7100001f 	cmp	w0, #0x0
ffff0000000820d8:	540006c1 	b.ne	ffff0000000821b0 <initramfs_callback+0x108>  // b.any
ffff0000000820dc:	d2800242 	mov	x2, #0x12                  	// #18
ffff0000000820e0:	90000060 	adrp	x0, ffff00000008e000 <pool_slots+0x340>
ffff0000000820e4:	910c8001 	add	x1, x0, #0x320
ffff0000000820e8:	f94017e0 	ldr	x0, [sp, #40]
ffff0000000820ec:	94002300 	bl	ffff00000008acec <memcmp>
ffff0000000820f0:	7100001f 	cmp	w0, #0x0
ffff0000000820f4:	54000301 	b.ne	ffff000000082154 <initramfs_callback+0xac>  // b.any
ffff0000000820f8:	f94013e0 	ldr	x0, [sp, #32]
ffff0000000820fc:	b9400000 	ldr	w0, [x0]
ffff000000082100:	940022c0 	bl	ffff00000008ac00 <fdt32_to_cpu>
ffff000000082104:	2a0003e0 	mov	w0, w0
ffff000000082108:	b2503c01 	orr	x1, x0, #0xffff000000000000
ffff00000008210c:	90000080 	adrp	x0, ffff000000092000 <pool_slots+0xe38>
ffff000000082110:	91238000 	add	x0, x0, #0x8e0
ffff000000082114:	f9000001 	str	x1, [x0]
ffff000000082118:	90000080 	adrp	x0, ffff000000092000 <pool_slots+0xe38>
ffff00000008211c:	91238000 	add	x0, x0, #0x8e0
ffff000000082120:	f9400000 	ldr	x0, [x0]
ffff000000082124:	aa0003e1 	mov	x1, x0
ffff000000082128:	90000080 	adrp	x0, ffff000000092000 <pool_slots+0xe38>
ffff00000008212c:	91236000 	add	x0, x0, #0x8d8
ffff000000082130:	f9000001 	str	x1, [x0]
ffff000000082134:	90000060 	adrp	x0, ffff00000008e000 <pool_slots+0x340>
ffff000000082138:	910ce000 	add	x0, x0, #0x338
ffff00000008213c:	94001330 	bl	ffff000000086dfc <uart_write_str_raw>
ffff000000082140:	90000080 	adrp	x0, ffff000000092000 <pool_slots+0xe38>
ffff000000082144:	91238000 	add	x0, x0, #0x8e0
ffff000000082148:	f9400000 	ldr	x0, [x0]
ffff00000008214c:	9400135b 	bl	ffff000000086eb8 <uart_write_hex_raw>
ffff000000082150:	14000018 	b	ffff0000000821b0 <initramfs_callback+0x108>
ffff000000082154:	d2800202 	mov	x2, #0x10                  	// #16
ffff000000082158:	90000060 	adrp	x0, ffff00000008e000 <pool_slots+0x340>
ffff00000008215c:	910d8001 	add	x1, x0, #0x360
ffff000000082160:	f94017e0 	ldr	x0, [sp, #40]
ffff000000082164:	940022e2 	bl	ffff00000008acec <memcmp>
ffff000000082168:	7100001f 	cmp	w0, #0x0
ffff00000008216c:	54000221 	b.ne	ffff0000000821b0 <initramfs_callback+0x108>  // b.any
ffff000000082170:	f94013e0 	ldr	x0, [sp, #32]
ffff000000082174:	b9400000 	ldr	w0, [x0]
ffff000000082178:	940022a2 	bl	ffff00000008ac00 <fdt32_to_cpu>
ffff00000008217c:	2a0003e0 	mov	w0, w0
ffff000000082180:	b2503c01 	orr	x1, x0, #0xffff000000000000
ffff000000082184:	90000080 	adrp	x0, ffff000000092000 <pool_slots+0xe38>
ffff000000082188:	9123a000 	add	x0, x0, #0x8e8
ffff00000008218c:	f9000001 	str	x1, [x0]
ffff000000082190:	90000060 	adrp	x0, ffff00000008e000 <pool_slots+0x340>
ffff000000082194:	910de000 	add	x0, x0, #0x378
ffff000000082198:	94001319 	bl	ffff000000086dfc <uart_write_str_raw>
ffff00000008219c:	90000080 	adrp	x0, ffff000000092000 <pool_slots+0xe38>
ffff0000000821a0:	9123a000 	add	x0, x0, #0x8e8
ffff0000000821a4:	f9400000 	ldr	x0, [x0]
ffff0000000821a8:	94001344 	bl	ffff000000086eb8 <uart_write_hex_raw>
ffff0000000821ac:	d503201f 	nop
ffff0000000821b0:	d503201f 	nop
ffff0000000821b4:	a8c37bfd 	ldp	x29, x30, [sp], #48
ffff0000000821b8:	d65f03c0 	ret

ffff0000000821bc <join_path>:
ffff0000000821bc:	d100c3ff 	sub	sp, sp, #0x30
ffff0000000821c0:	f9000fe0 	str	x0, [sp, #24]
ffff0000000821c4:	f9000be1 	str	x1, [sp, #16]
ffff0000000821c8:	f90007e2 	str	x2, [sp, #8]
ffff0000000821cc:	f9400be0 	ldr	x0, [sp, #16]
ffff0000000821d0:	39400000 	ldrb	w0, [x0]
ffff0000000821d4:	7100001f 	cmp	w0, #0x0
ffff0000000821d8:	540003c1 	b.ne	ffff000000082250 <join_path+0x94>  // b.any
ffff0000000821dc:	f9400fe0 	ldr	x0, [sp, #24]
ffff0000000821e0:	528005e1 	mov	w1, #0x2f                  	// #47
ffff0000000821e4:	39000001 	strb	w1, [x0]
ffff0000000821e8:	b9002fff 	str	wzr, [sp, #44]
ffff0000000821ec:	1400000d 	b	ffff000000082220 <join_path+0x64>
ffff0000000821f0:	b9802fe0 	ldrsw	x0, [sp, #44]
ffff0000000821f4:	f94007e1 	ldr	x1, [sp, #8]
ffff0000000821f8:	8b000021 	add	x1, x1, x0
ffff0000000821fc:	b9802fe0 	ldrsw	x0, [sp, #44]
ffff000000082200:	91000400 	add	x0, x0, #0x1
ffff000000082204:	f9400fe2 	ldr	x2, [sp, #24]
ffff000000082208:	8b000040 	add	x0, x2, x0
ffff00000008220c:	39400021 	ldrb	w1, [x1]
ffff000000082210:	39000001 	strb	w1, [x0]
ffff000000082214:	b9402fe0 	ldr	w0, [sp, #44]
ffff000000082218:	11000400 	add	w0, w0, #0x1
ffff00000008221c:	b9002fe0 	str	w0, [sp, #44]
ffff000000082220:	b9802fe0 	ldrsw	x0, [sp, #44]
ffff000000082224:	f94007e1 	ldr	x1, [sp, #8]
ffff000000082228:	8b000020 	add	x0, x1, x0
ffff00000008222c:	39400000 	ldrb	w0, [x0]
ffff000000082230:	7100001f 	cmp	w0, #0x0
ffff000000082234:	54fffde1 	b.ne	ffff0000000821f0 <join_path+0x34>  // b.any
ffff000000082238:	b9802fe0 	ldrsw	x0, [sp, #44]
ffff00000008223c:	91000400 	add	x0, x0, #0x1
ffff000000082240:	f9400fe1 	ldr	x1, [sp, #24]
ffff000000082244:	8b000020 	add	x0, x1, x0
ffff000000082248:	3900001f 	strb	wzr, [x0]
ffff00000008224c:	14000039 	b	ffff000000082330 <join_path+0x174>
ffff000000082250:	b9002bff 	str	wzr, [sp, #40]
ffff000000082254:	1400000c 	b	ffff000000082284 <join_path+0xc8>
ffff000000082258:	b9802be0 	ldrsw	x0, [sp, #40]
ffff00000008225c:	f9400be1 	ldr	x1, [sp, #16]
ffff000000082260:	8b000021 	add	x1, x1, x0
ffff000000082264:	b9802be0 	ldrsw	x0, [sp, #40]
ffff000000082268:	f9400fe2 	ldr	x2, [sp, #24]
ffff00000008226c:	8b000040 	add	x0, x2, x0
ffff000000082270:	39400021 	ldrb	w1, [x1]
ffff000000082274:	39000001 	strb	w1, [x0]
ffff000000082278:	b9402be0 	ldr	w0, [sp, #40]
ffff00000008227c:	11000400 	add	w0, w0, #0x1
ffff000000082280:	b9002be0 	str	w0, [sp, #40]
ffff000000082284:	b9802be0 	ldrsw	x0, [sp, #40]
ffff000000082288:	f9400be1 	ldr	x1, [sp, #16]
ffff00000008228c:	8b000020 	add	x0, x1, x0
ffff000000082290:	39400000 	ldrb	w0, [x0]
ffff000000082294:	7100001f 	cmp	w0, #0x0
ffff000000082298:	54fffe01 	b.ne	ffff000000082258 <join_path+0x9c>  // b.any
ffff00000008229c:	b9402be0 	ldr	w0, [sp, #40]
ffff0000000822a0:	11000401 	add	w1, w0, #0x1
ffff0000000822a4:	b9002be1 	str	w1, [sp, #40]
ffff0000000822a8:	93407c00 	sxtw	x0, w0
ffff0000000822ac:	f9400fe1 	ldr	x1, [sp, #24]
ffff0000000822b0:	8b000020 	add	x0, x1, x0
ffff0000000822b4:	528005e1 	mov	w1, #0x2f                  	// #47
ffff0000000822b8:	39000001 	strb	w1, [x0]
ffff0000000822bc:	b90027ff 	str	wzr, [sp, #36]
ffff0000000822c0:	1400000f 	b	ffff0000000822fc <join_path+0x140>
ffff0000000822c4:	b98027e0 	ldrsw	x0, [sp, #36]
ffff0000000822c8:	f94007e1 	ldr	x1, [sp, #8]
ffff0000000822cc:	8b000021 	add	x1, x1, x0
ffff0000000822d0:	b9402be2 	ldr	w2, [sp, #40]
ffff0000000822d4:	b94027e0 	ldr	w0, [sp, #36]
ffff0000000822d8:	0b000040 	add	w0, w2, w0
ffff0000000822dc:	93407c00 	sxtw	x0, w0
ffff0000000822e0:	f9400fe2 	ldr	x2, [sp, #24]
ffff0000000822e4:	8b000040 	add	x0, x2, x0
ffff0000000822e8:	39400021 	ldrb	w1, [x1]
ffff0000000822ec:	39000001 	strb	w1, [x0]
ffff0000000822f0:	b94027e0 	ldr	w0, [sp, #36]
ffff0000000822f4:	11000400 	add	w0, w0, #0x1
ffff0000000822f8:	b90027e0 	str	w0, [sp, #36]
ffff0000000822fc:	b98027e0 	ldrsw	x0, [sp, #36]
ffff000000082300:	f94007e1 	ldr	x1, [sp, #8]
ffff000000082304:	8b000020 	add	x0, x1, x0
ffff000000082308:	39400000 	ldrb	w0, [x0]
ffff00000008230c:	7100001f 	cmp	w0, #0x0
ffff000000082310:	54fffda1 	b.ne	ffff0000000822c4 <join_path+0x108>  // b.any
ffff000000082314:	b9402be1 	ldr	w1, [sp, #40]
ffff000000082318:	b94027e0 	ldr	w0, [sp, #36]
ffff00000008231c:	0b000020 	add	w0, w1, w0
ffff000000082320:	93407c00 	sxtw	x0, w0
ffff000000082324:	f9400fe1 	ldr	x1, [sp, #24]
ffff000000082328:	8b000020 	add	x0, x1, x0
ffff00000008232c:	3900001f 	strb	wzr, [x0]
ffff000000082330:	d503201f 	nop
ffff000000082334:	9100c3ff 	add	sp, sp, #0x30
ffff000000082338:	d65f03c0 	ret

ffff00000008233c <fdt_traverse>:
ffff00000008233c:	a9b87bfd 	stp	x29, x30, [sp, #-128]!
ffff000000082340:	910003fd 	mov	x29, sp
ffff000000082344:	f9000fe0 	str	x0, [sp, #24]
ffff000000082348:	f9000be1 	str	x1, [sp, #16]
ffff00000008234c:	90000060 	adrp	x0, ffff00000008e000 <pool_slots+0x340>
ffff000000082350:	910f2000 	add	x0, x0, #0x3c8
ffff000000082354:	940012aa 	bl	ffff000000086dfc <uart_write_str_raw>
ffff000000082358:	90000060 	adrp	x0, ffff00000008e000 <pool_slots+0x340>
ffff00000008235c:	910f8000 	add	x0, x0, #0x3e0
ffff000000082360:	940012a7 	bl	ffff000000086dfc <uart_write_str_raw>
ffff000000082364:	f9400be0 	ldr	x0, [sp, #16]
ffff000000082368:	940012d4 	bl	ffff000000086eb8 <uart_write_hex_raw>
ffff00000008236c:	f9400be0 	ldr	x0, [sp, #16]
ffff000000082370:	f90037e0 	str	x0, [sp, #104]
ffff000000082374:	f94037e0 	ldr	x0, [sp, #104]
ffff000000082378:	b9400000 	ldr	w0, [x0]
ffff00000008237c:	94002221 	bl	ffff00000008ac00 <fdt32_to_cpu>
ffff000000082380:	2a0003e1 	mov	w1, w0
ffff000000082384:	529fdda0 	mov	w0, #0xfeed                	// #65261
ffff000000082388:	72ba01a0 	movk	w0, #0xd00d, lsl #16
ffff00000008238c:	6b00003f 	cmp	w1, w0
ffff000000082390:	540001a0 	b.eq	ffff0000000823c4 <fdt_traverse+0x88>  // b.none
ffff000000082394:	90000060 	adrp	x0, ffff00000008e000 <pool_slots+0x340>
ffff000000082398:	91102000 	add	x0, x0, #0x408
ffff00000008239c:	94001298 	bl	ffff000000086dfc <uart_write_str_raw>
ffff0000000823a0:	90000060 	adrp	x0, ffff00000008e000 <pool_slots+0x340>
ffff0000000823a4:	9110a000 	add	x0, x0, #0x428
ffff0000000823a8:	94001295 	bl	ffff000000086dfc <uart_write_str_raw>
ffff0000000823ac:	f94037e0 	ldr	x0, [sp, #104]
ffff0000000823b0:	b9400000 	ldr	w0, [x0]
ffff0000000823b4:	94002213 	bl	ffff00000008ac00 <fdt32_to_cpu>
ffff0000000823b8:	2a0003e0 	mov	w0, w0
ffff0000000823bc:	940012bf 	bl	ffff000000086eb8 <uart_write_hex_raw>
ffff0000000823c0:	14000068 	b	ffff000000082560 <fdt_traverse+0x224>
ffff0000000823c4:	f94037e0 	ldr	x0, [sp, #104]
ffff0000000823c8:	b9400400 	ldr	w0, [x0, #4]
ffff0000000823cc:	9400220d 	bl	ffff00000008ac00 <fdt32_to_cpu>
ffff0000000823d0:	b90067e0 	str	w0, [sp, #100]
ffff0000000823d4:	b94067e1 	ldr	w1, [sp, #100]
ffff0000000823d8:	f9400be0 	ldr	x0, [sp, #16]
ffff0000000823dc:	8b000021 	add	x1, x1, x0
ffff0000000823e0:	90000080 	adrp	x0, ffff000000092000 <pool_slots+0xe38>
ffff0000000823e4:	9123e000 	add	x0, x0, #0x8f8
ffff0000000823e8:	f9000001 	str	x1, [x0]
ffff0000000823ec:	f94037e0 	ldr	x0, [sp, #104]
ffff0000000823f0:	b9400800 	ldr	w0, [x0, #8]
ffff0000000823f4:	94002203 	bl	ffff00000008ac00 <fdt32_to_cpu>
ffff0000000823f8:	b90063e0 	str	w0, [sp, #96]
ffff0000000823fc:	f94037e0 	ldr	x0, [sp, #104]
ffff000000082400:	b9400c00 	ldr	w0, [x0, #12]
ffff000000082404:	940021ff 	bl	ffff00000008ac00 <fdt32_to_cpu>
ffff000000082408:	b9005fe0 	str	w0, [sp, #92]
ffff00000008240c:	b94063e0 	ldr	w0, [sp, #96]
ffff000000082410:	f94037e1 	ldr	x1, [sp, #104]
ffff000000082414:	8b000020 	add	x0, x1, x0
ffff000000082418:	f9003fe0 	str	x0, [sp, #120]
ffff00000008241c:	b9405fe0 	ldr	w0, [sp, #92]
ffff000000082420:	f94037e1 	ldr	x1, [sp, #104]
ffff000000082424:	8b000020 	add	x0, x1, x0
ffff000000082428:	f9002be0 	str	x0, [sp, #80]
ffff00000008242c:	f9003bff 	str	xzr, [sp, #112]
ffff000000082430:	f9403fe0 	ldr	x0, [sp, #120]
ffff000000082434:	b9400000 	ldr	w0, [x0]
ffff000000082438:	940021f2 	bl	ffff00000008ac00 <fdt32_to_cpu>
ffff00000008243c:	b9004fe0 	str	w0, [sp, #76]
ffff000000082440:	f9403fe0 	ldr	x0, [sp, #120]
ffff000000082444:	91001000 	add	x0, x0, #0x4
ffff000000082448:	f9003fe0 	str	x0, [sp, #120]
ffff00000008244c:	b9404fe0 	ldr	w0, [sp, #76]
ffff000000082450:	7100041f 	cmp	w0, #0x1
ffff000000082454:	540001c1 	b.ne	ffff00000008248c <fdt_traverse+0x150>  // b.any
ffff000000082458:	f9403fe0 	ldr	x0, [sp, #120]
ffff00000008245c:	f9003be0 	str	x0, [sp, #112]
ffff000000082460:	f9403be0 	ldr	x0, [sp, #112]
ffff000000082464:	9400224b 	bl	ffff00000008ad90 <strlen>
ffff000000082468:	91000400 	add	x0, x0, #0x1
ffff00000008246c:	f9403fe1 	ldr	x1, [sp, #120]
ffff000000082470:	8b000020 	add	x0, x1, x0
ffff000000082474:	f9003fe0 	str	x0, [sp, #120]
ffff000000082478:	f9403fe0 	ldr	x0, [sp, #120]
ffff00000008247c:	91000c00 	add	x0, x0, #0x3
ffff000000082480:	927ef400 	and	x0, x0, #0xfffffffffffffffc
ffff000000082484:	f9003fe0 	str	x0, [sp, #120]
ffff000000082488:	17ffffea 	b	ffff000000082430 <fdt_traverse+0xf4>
ffff00000008248c:	b9404fe0 	ldr	w0, [sp, #76]
ffff000000082490:	71000c1f 	cmp	w0, #0x3
ffff000000082494:	54000441 	b.ne	ffff00000008251c <fdt_traverse+0x1e0>  // b.any
ffff000000082498:	f9403fe0 	ldr	x0, [sp, #120]
ffff00000008249c:	f90023e0 	str	x0, [sp, #64]
ffff0000000824a0:	f94023e0 	ldr	x0, [sp, #64]
ffff0000000824a4:	b9400000 	ldr	w0, [x0]
ffff0000000824a8:	940021d6 	bl	ffff00000008ac00 <fdt32_to_cpu>
ffff0000000824ac:	b9003fe0 	str	w0, [sp, #60]
ffff0000000824b0:	f94023e0 	ldr	x0, [sp, #64]
ffff0000000824b4:	b9400400 	ldr	w0, [x0, #4]
ffff0000000824b8:	940021d2 	bl	ffff00000008ac00 <fdt32_to_cpu>
ffff0000000824bc:	2a0003e0 	mov	w0, w0
ffff0000000824c0:	f9402be1 	ldr	x1, [sp, #80]
ffff0000000824c4:	8b000020 	add	x0, x1, x0
ffff0000000824c8:	f9001be0 	str	x0, [sp, #48]
ffff0000000824cc:	f9403fe0 	ldr	x0, [sp, #120]
ffff0000000824d0:	91002000 	add	x0, x0, #0x8
ffff0000000824d4:	f90017e0 	str	x0, [sp, #40]
ffff0000000824d8:	f9400fe4 	ldr	x4, [sp, #24]
ffff0000000824dc:	f9403be3 	ldr	x3, [sp, #112]
ffff0000000824e0:	f94023e2 	ldr	x2, [sp, #64]
ffff0000000824e4:	f94017e1 	ldr	x1, [sp, #40]
ffff0000000824e8:	f9401be0 	ldr	x0, [sp, #48]
ffff0000000824ec:	d63f0080 	blr	x4
ffff0000000824f0:	b9403fe0 	ldr	w0, [sp, #60]
ffff0000000824f4:	11002000 	add	w0, w0, #0x8
ffff0000000824f8:	2a0003e0 	mov	w0, w0
ffff0000000824fc:	f9403fe1 	ldr	x1, [sp, #120]
ffff000000082500:	8b000020 	add	x0, x1, x0
ffff000000082504:	f9003fe0 	str	x0, [sp, #120]
ffff000000082508:	f9403fe0 	ldr	x0, [sp, #120]
ffff00000008250c:	91000c00 	add	x0, x0, #0x3
ffff000000082510:	927ef400 	and	x0, x0, #0xfffffffffffffffc
ffff000000082514:	f9003fe0 	str	x0, [sp, #120]
ffff000000082518:	17ffffc6 	b	ffff000000082430 <fdt_traverse+0xf4>
ffff00000008251c:	b9404fe0 	ldr	w0, [sp, #76]
ffff000000082520:	7100241f 	cmp	w0, #0x9
ffff000000082524:	540000a1 	b.ne	ffff000000082538 <fdt_traverse+0x1fc>  // b.any
ffff000000082528:	90000060 	adrp	x0, ffff00000008e000 <pool_slots+0x340>
ffff00000008252c:	91114000 	add	x0, x0, #0x450
ffff000000082530:	940010e3 	bl	ffff0000000868bc <uart_write_str>
ffff000000082534:	1400000b 	b	ffff000000082560 <fdt_traverse+0x224>
ffff000000082538:	b9404fe0 	ldr	w0, [sp, #76]
ffff00000008253c:	7100101f 	cmp	w0, #0x4
ffff000000082540:	54fff780 	b.eq	ffff000000082430 <fdt_traverse+0xf4>  // b.none
ffff000000082544:	b9404fe0 	ldr	w0, [sp, #76]
ffff000000082548:	7100081f 	cmp	w0, #0x2
ffff00000008254c:	54fff720 	b.eq	ffff000000082430 <fdt_traverse+0xf4>  // b.none
ffff000000082550:	90000060 	adrp	x0, ffff00000008e000 <pool_slots+0x340>
ffff000000082554:	9111e000 	add	x0, x0, #0x478
ffff000000082558:	940010d9 	bl	ffff0000000868bc <uart_write_str>
ffff00000008255c:	17ffffb5 	b	ffff000000082430 <fdt_traverse+0xf4>
ffff000000082560:	a8c87bfd 	ldp	x29, x30, [sp], #128
ffff000000082564:	d65f03c0 	ret

ffff000000082568 <chunk_init>:
ffff000000082568:	a9bd7bfd 	stp	x29, x30, [sp, #-48]!
ffff00000008256c:	910003fd 	mov	x29, sp
ffff000000082570:	90000060 	adrp	x0, ffff00000008e000 <pool_slots+0x340>
ffff000000082574:	91134000 	add	x0, x0, #0x4d0
ffff000000082578:	940010d1 	bl	ffff0000000868bc <uart_write_str>
ffff00000008257c:	b9002fff 	str	wzr, [sp, #44]
ffff000000082580:	1400000b 	b	ffff0000000825ac <chunk_init+0x44>
ffff000000082584:	90000080 	adrp	x0, ffff000000092000 <pool_slots+0xe38>
ffff000000082588:	f943bc00 	ldr	x0, [x0, #1912]
ffff00000008258c:	f9400001 	ldr	x1, [x0]
ffff000000082590:	b9802fe0 	ldrsw	x0, [sp, #44]
ffff000000082594:	d37be800 	lsl	x0, x0, #5
ffff000000082598:	8b000020 	add	x0, x1, x0
ffff00000008259c:	f900041f 	str	xzr, [x0, #8]
ffff0000000825a0:	b9402fe0 	ldr	w0, [sp, #44]
ffff0000000825a4:	11000400 	add	w0, w0, #0x1
ffff0000000825a8:	b9002fe0 	str	w0, [sp, #44]
ffff0000000825ac:	b9402fe0 	ldr	w0, [sp, #44]
ffff0000000825b0:	7100381f 	cmp	w0, #0xe
ffff0000000825b4:	54fffe8d 	b.le	ffff000000082584 <chunk_init+0x1c>
ffff0000000825b8:	b9002bff 	str	wzr, [sp, #40]
ffff0000000825bc:	1400006e 	b	ffff000000082774 <chunk_init+0x20c>
ffff0000000825c0:	90000080 	adrp	x0, ffff000000092000 <pool_slots+0xe38>
ffff0000000825c4:	f943b400 	ldr	x0, [x0, #1896]
ffff0000000825c8:	f9400001 	ldr	x1, [x0]
ffff0000000825cc:	b9802be0 	ldrsw	x0, [sp, #40]
ffff0000000825d0:	d37cec00 	lsl	x0, x0, #4
ffff0000000825d4:	8b000020 	add	x0, x1, x0
ffff0000000825d8:	90000061 	adrp	x1, ffff00000008e000 <pool_slots+0x340>
ffff0000000825dc:	91128021 	add	x1, x1, #0x4a0
ffff0000000825e0:	b9802be2 	ldrsw	x2, [sp, #40]
ffff0000000825e4:	b8627821 	ldr	w1, [x1, x2, lsl #2]
ffff0000000825e8:	b9000001 	str	w1, [x0]
ffff0000000825ec:	90000080 	adrp	x0, ffff000000092000 <pool_slots+0xe38>
ffff0000000825f0:	f943b400 	ldr	x0, [x0, #1896]
ffff0000000825f4:	f9400001 	ldr	x1, [x0]
ffff0000000825f8:	b9802be0 	ldrsw	x0, [sp, #40]
ffff0000000825fc:	d37cec00 	lsl	x0, x0, #4
ffff000000082600:	8b000020 	add	x0, x1, x0
ffff000000082604:	90000061 	adrp	x1, ffff00000008e000 <pool_slots+0x340>
ffff000000082608:	9112e021 	add	x1, x1, #0x4b8
ffff00000008260c:	b9802be2 	ldrsw	x2, [sp, #40]
ffff000000082610:	b8627821 	ldr	w1, [x1, x2, lsl #2]
ffff000000082614:	b9000401 	str	w1, [x0, #4]
ffff000000082618:	90000080 	adrp	x0, ffff000000092000 <pool_slots+0xe38>
ffff00000008261c:	f943b400 	ldr	x0, [x0, #1896]
ffff000000082620:	f9400001 	ldr	x1, [x0]
ffff000000082624:	b9802be0 	ldrsw	x0, [sp, #40]
ffff000000082628:	d37cec00 	lsl	x0, x0, #4
ffff00000008262c:	8b000020 	add	x0, x1, x0
ffff000000082630:	f900041f 	str	xzr, [x0, #8]
ffff000000082634:	90000080 	adrp	x0, ffff000000092000 <pool_slots+0xe38>
ffff000000082638:	f943bc00 	ldr	x0, [x0, #1912]
ffff00000008263c:	f9400001 	ldr	x1, [x0]
ffff000000082640:	b9802be0 	ldrsw	x0, [sp, #40]
ffff000000082644:	d37be800 	lsl	x0, x0, #5
ffff000000082648:	8b000020 	add	x0, x1, x0
ffff00000008264c:	f9400400 	ldr	x0, [x0, #8]
ffff000000082650:	f100001f 	cmp	x0, #0x0
ffff000000082654:	540008a1 	b.ne	ffff000000082768 <chunk_init+0x200>  // b.any
ffff000000082658:	d2820000 	mov	x0, #0x1000                	// #4096
ffff00000008265c:	97fffb53 	bl	ffff0000000813a8 <buddy_alloc>
ffff000000082660:	f9000fe0 	str	x0, [sp, #24]
ffff000000082664:	f9400fe0 	ldr	x0, [sp, #24]
ffff000000082668:	f100001f 	cmp	x0, #0x0
ffff00000008266c:	540000a1 	b.ne	ffff000000082680 <chunk_init+0x118>  // b.any
ffff000000082670:	90000060 	adrp	x0, ffff00000008e000 <pool_slots+0x340>
ffff000000082674:	9113a000 	add	x0, x0, #0x4e8
ffff000000082678:	94001091 	bl	ffff0000000868bc <uart_write_str>
ffff00000008267c:	14000042 	b	ffff000000082784 <chunk_init+0x21c>
ffff000000082680:	90000080 	adrp	x0, ffff000000092000 <pool_slots+0xe38>
ffff000000082684:	f943bc00 	ldr	x0, [x0, #1912]
ffff000000082688:	f9400001 	ldr	x1, [x0]
ffff00000008268c:	b9802be0 	ldrsw	x0, [sp, #40]
ffff000000082690:	d37be800 	lsl	x0, x0, #5
ffff000000082694:	8b000020 	add	x0, x1, x0
ffff000000082698:	f9000be0 	str	x0, [sp, #16]
ffff00000008269c:	f9400be0 	ldr	x0, [sp, #16]
ffff0000000826a0:	f9400fe1 	ldr	x1, [sp, #24]
ffff0000000826a4:	f9000401 	str	x1, [x0, #8]
ffff0000000826a8:	90000080 	adrp	x0, ffff000000092000 <pool_slots+0xe38>
ffff0000000826ac:	f943dc00 	ldr	x0, [x0, #1976]
ffff0000000826b0:	f9400001 	ldr	x1, [x0]
ffff0000000826b4:	b9802be0 	ldrsw	x0, [sp, #40]
ffff0000000826b8:	d37be800 	lsl	x0, x0, #5
ffff0000000826bc:	8b000021 	add	x1, x1, x0
ffff0000000826c0:	f9400be0 	ldr	x0, [sp, #16]
ffff0000000826c4:	f9000801 	str	x1, [x0, #16]
ffff0000000826c8:	90000060 	adrp	x0, ffff00000008e000 <pool_slots+0x340>
ffff0000000826cc:	9112e000 	add	x0, x0, #0x4b8
ffff0000000826d0:	b9802be1 	ldrsw	x1, [sp, #40]
ffff0000000826d4:	b8617801 	ldr	w1, [x0, x1, lsl #2]
ffff0000000826d8:	f9400be0 	ldr	x0, [sp, #16]
ffff0000000826dc:	b9001801 	str	w1, [x0, #24]
ffff0000000826e0:	f9400be0 	ldr	x0, [sp, #16]
ffff0000000826e4:	f900001f 	str	xzr, [x0]
ffff0000000826e8:	f9400be0 	ldr	x0, [sp, #16]
ffff0000000826ec:	52800021 	mov	w1, #0x1                   	// #1
ffff0000000826f0:	b9001c01 	str	w1, [x0, #28]
ffff0000000826f4:	b90027ff 	str	wzr, [sp, #36]
ffff0000000826f8:	14000009 	b	ffff00000008271c <chunk_init+0x1b4>
ffff0000000826fc:	f9400be0 	ldr	x0, [sp, #16]
ffff000000082700:	f9400801 	ldr	x1, [x0, #16]
ffff000000082704:	b98027e0 	ldrsw	x0, [sp, #36]
ffff000000082708:	8b000020 	add	x0, x1, x0
ffff00000008270c:	3900001f 	strb	wzr, [x0]
ffff000000082710:	b94027e0 	ldr	w0, [sp, #36]
ffff000000082714:	11000400 	add	w0, w0, #0x1
ffff000000082718:	b90027e0 	str	w0, [sp, #36]
ffff00000008271c:	b94027e0 	ldr	w0, [sp, #36]
ffff000000082720:	71007c1f 	cmp	w0, #0x1f
ffff000000082724:	54fffecd 	b.le	ffff0000000826fc <chunk_init+0x194>
ffff000000082728:	90000080 	adrp	x0, ffff000000092000 <pool_slots+0xe38>
ffff00000008272c:	f943b400 	ldr	x0, [x0, #1896]
ffff000000082730:	f9400001 	ldr	x1, [x0]
ffff000000082734:	b9802be0 	ldrsw	x0, [sp, #40]
ffff000000082738:	d37cec00 	lsl	x0, x0, #4
ffff00000008273c:	8b000020 	add	x0, x1, x0
ffff000000082740:	f9400be1 	ldr	x1, [sp, #16]
ffff000000082744:	f9000401 	str	x1, [x0, #8]
ffff000000082748:	90000080 	adrp	x0, ffff000000092000 <pool_slots+0xe38>
ffff00000008274c:	f943ac00 	ldr	x0, [x0, #1880]
ffff000000082750:	f9400001 	ldr	x1, [x0]
ffff000000082754:	b9802be0 	ldrsw	x0, [sp, #40]
ffff000000082758:	d37ef400 	lsl	x0, x0, #2
ffff00000008275c:	8b000020 	add	x0, x1, x0
ffff000000082760:	b9402be1 	ldr	w1, [sp, #40]
ffff000000082764:	b9000001 	str	w1, [x0]
ffff000000082768:	b9402be0 	ldr	w0, [sp, #40]
ffff00000008276c:	11000400 	add	w0, w0, #0x1
ffff000000082770:	b9002be0 	str	w0, [sp, #40]
ffff000000082774:	b9402be0 	ldr	w0, [sp, #40]
ffff000000082778:	7100101f 	cmp	w0, #0x4
ffff00000008277c:	54fff22d 	b.le	ffff0000000825c0 <chunk_init+0x58>
ffff000000082780:	d503201f 	nop
ffff000000082784:	d503201f 	nop
ffff000000082788:	a8c37bfd 	ldp	x29, x30, [sp], #48
ffff00000008278c:	d65f03c0 	ret

ffff000000082790 <find_pool_index>:
ffff000000082790:	d10083ff 	sub	sp, sp, #0x20
ffff000000082794:	b9000fe0 	str	w0, [sp, #12]
ffff000000082798:	b9001fff 	str	wzr, [sp, #28]
ffff00000008279c:	1400000d 	b	ffff0000000827d0 <find_pool_index+0x40>
ffff0000000827a0:	90000060 	adrp	x0, ffff00000008e000 <pool_slots+0x340>
ffff0000000827a4:	91128000 	add	x0, x0, #0x4a0
ffff0000000827a8:	b9801fe1 	ldrsw	x1, [sp, #28]
ffff0000000827ac:	b8617800 	ldr	w0, [x0, x1, lsl #2]
ffff0000000827b0:	b9400fe1 	ldr	w1, [sp, #12]
ffff0000000827b4:	6b00003f 	cmp	w1, w0
ffff0000000827b8:	54000068 	b.hi	ffff0000000827c4 <find_pool_index+0x34>  // b.pmore
ffff0000000827bc:	b9401fe0 	ldr	w0, [sp, #28]
ffff0000000827c0:	14000008 	b	ffff0000000827e0 <find_pool_index+0x50>
ffff0000000827c4:	b9401fe0 	ldr	w0, [sp, #28]
ffff0000000827c8:	11000400 	add	w0, w0, #0x1
ffff0000000827cc:	b9001fe0 	str	w0, [sp, #28]
ffff0000000827d0:	b9401fe0 	ldr	w0, [sp, #28]
ffff0000000827d4:	7100101f 	cmp	w0, #0x4
ffff0000000827d8:	54fffe4d 	b.le	ffff0000000827a0 <find_pool_index+0x10>
ffff0000000827dc:	12800000 	mov	w0, #0xffffffff            	// #-1
ffff0000000827e0:	910083ff 	add	sp, sp, #0x20
ffff0000000827e4:	d65f03c0 	ret

ffff0000000827e8 <chunk_alloc>:
ffff0000000827e8:	a9bb7bfd 	stp	x29, x30, [sp, #-80]!
ffff0000000827ec:	910003fd 	mov	x29, sp
ffff0000000827f0:	b9001fe0 	str	w0, [sp, #28]
ffff0000000827f4:	b9401fe0 	ldr	w0, [sp, #28]
ffff0000000827f8:	97ffffe6 	bl	ffff000000082790 <find_pool_index>
ffff0000000827fc:	b9003be0 	str	w0, [sp, #56]
ffff000000082800:	b9403be0 	ldr	w0, [sp, #56]
ffff000000082804:	3100041f 	cmn	w0, #0x1
ffff000000082808:	540000c1 	b.ne	ffff000000082820 <chunk_alloc+0x38>  // b.any
ffff00000008280c:	90000060 	adrp	x0, ffff00000008e000 <pool_slots+0x340>
ffff000000082810:	91146000 	add	x0, x0, #0x518
ffff000000082814:	9400102a 	bl	ffff0000000868bc <uart_write_str>
ffff000000082818:	d2800000 	mov	x0, #0x0                   	// #0
ffff00000008281c:	14000114 	b	ffff000000082c6c <chunk_alloc+0x484>
ffff000000082820:	90000080 	adrp	x0, ffff000000092000 <pool_slots+0xe38>
ffff000000082824:	f943b400 	ldr	x0, [x0, #1896]
ffff000000082828:	f9400001 	ldr	x1, [x0]
ffff00000008282c:	b9803be0 	ldrsw	x0, [sp, #56]
ffff000000082830:	d37cec00 	lsl	x0, x0, #4
ffff000000082834:	8b000020 	add	x0, x1, x0
ffff000000082838:	f9001be0 	str	x0, [sp, #48]
ffff00000008283c:	f9401be0 	ldr	x0, [sp, #48]
ffff000000082840:	f9400400 	ldr	x0, [x0, #8]
ffff000000082844:	f90027e0 	str	x0, [sp, #72]
ffff000000082848:	14000062 	b	ffff0000000829d0 <chunk_alloc+0x1e8>
ffff00000008284c:	f94027e0 	ldr	x0, [sp, #72]
ffff000000082850:	b9401800 	ldr	w0, [x0, #24]
ffff000000082854:	7100001f 	cmp	w0, #0x0
ffff000000082858:	540000a1 	b.ne	ffff00000008286c <chunk_alloc+0x84>  // b.any
ffff00000008285c:	f94027e0 	ldr	x0, [sp, #72]
ffff000000082860:	f9400000 	ldr	x0, [x0]
ffff000000082864:	f90027e0 	str	x0, [sp, #72]
ffff000000082868:	1400005a 	b	ffff0000000829d0 <chunk_alloc+0x1e8>
ffff00000008286c:	b90047ff 	str	wzr, [sp, #68]
ffff000000082870:	14000050 	b	ffff0000000829b0 <chunk_alloc+0x1c8>
ffff000000082874:	f94027e0 	ldr	x0, [sp, #72]
ffff000000082878:	f9400801 	ldr	x1, [x0, #16]
ffff00000008287c:	b94047e0 	ldr	w0, [sp, #68]
ffff000000082880:	11001c02 	add	w2, w0, #0x7
ffff000000082884:	7100001f 	cmp	w0, #0x0
ffff000000082888:	1a80b040 	csel	w0, w2, w0, lt  // lt = tstop
ffff00000008288c:	13037c00 	asr	w0, w0, #3
ffff000000082890:	93407c00 	sxtw	x0, w0
ffff000000082894:	8b000020 	add	x0, x1, x0
ffff000000082898:	39400000 	ldrb	w0, [x0]
ffff00000008289c:	2a0003e1 	mov	w1, w0
ffff0000000828a0:	b94047e0 	ldr	w0, [sp, #68]
ffff0000000828a4:	12000800 	and	w0, w0, #0x7
ffff0000000828a8:	1ac02820 	asr	w0, w1, w0
ffff0000000828ac:	12000000 	and	w0, w0, #0x1
ffff0000000828b0:	7100001f 	cmp	w0, #0x0
ffff0000000828b4:	54000781 	b.ne	ffff0000000829a4 <chunk_alloc+0x1bc>  // b.any
ffff0000000828b8:	f94027e0 	ldr	x0, [sp, #72]
ffff0000000828bc:	f9400801 	ldr	x1, [x0, #16]
ffff0000000828c0:	b94047e0 	ldr	w0, [sp, #68]
ffff0000000828c4:	11001c02 	add	w2, w0, #0x7
ffff0000000828c8:	7100001f 	cmp	w0, #0x0
ffff0000000828cc:	1a80b040 	csel	w0, w2, w0, lt  // lt = tstop
ffff0000000828d0:	13037c00 	asr	w0, w0, #3
ffff0000000828d4:	2a0003e3 	mov	w3, w0
ffff0000000828d8:	93407c60 	sxtw	x0, w3
ffff0000000828dc:	8b000020 	add	x0, x1, x0
ffff0000000828e0:	39400000 	ldrb	w0, [x0]
ffff0000000828e4:	13001c01 	sxtb	w1, w0
ffff0000000828e8:	b94047e0 	ldr	w0, [sp, #68]
ffff0000000828ec:	12000800 	and	w0, w0, #0x7
ffff0000000828f0:	52800022 	mov	w2, #0x1                   	// #1
ffff0000000828f4:	1ac02040 	lsl	w0, w2, w0
ffff0000000828f8:	13001c00 	sxtb	w0, w0
ffff0000000828fc:	2a000020 	orr	w0, w1, w0
ffff000000082900:	13001c02 	sxtb	w2, w0
ffff000000082904:	f94027e0 	ldr	x0, [sp, #72]
ffff000000082908:	f9400801 	ldr	x1, [x0, #16]
ffff00000008290c:	93407c60 	sxtw	x0, w3
ffff000000082910:	8b000020 	add	x0, x1, x0
ffff000000082914:	12001c41 	and	w1, w2, #0xff
ffff000000082918:	39000001 	strb	w1, [x0]
ffff00000008291c:	f94027e0 	ldr	x0, [sp, #72]
ffff000000082920:	b9401800 	ldr	w0, [x0, #24]
ffff000000082924:	51000401 	sub	w1, w0, #0x1
ffff000000082928:	f94027e0 	ldr	x0, [sp, #72]
ffff00000008292c:	b9001801 	str	w1, [x0, #24]
ffff000000082930:	90000060 	adrp	x0, ffff00000008e000 <pool_slots+0x340>
ffff000000082934:	91156000 	add	x0, x0, #0x558
ffff000000082938:	94000fe1 	bl	ffff0000000868bc <uart_write_str>
ffff00000008293c:	f94027e0 	ldr	x0, [sp, #72]
ffff000000082940:	f9400400 	ldr	x0, [x0, #8]
ffff000000082944:	aa0003e2 	mov	x2, x0
ffff000000082948:	f9401be0 	ldr	x0, [sp, #48]
ffff00000008294c:	b9400001 	ldr	w1, [x0]
ffff000000082950:	b94047e0 	ldr	w0, [sp, #68]
ffff000000082954:	1b007c20 	mul	w0, w1, w0
ffff000000082958:	2a0003e0 	mov	w0, w0
ffff00000008295c:	8b000040 	add	x0, x2, x0
ffff000000082960:	940010f1 	bl	ffff000000086d24 <uart_write_hex>
ffff000000082964:	90000060 	adrp	x0, ffff00000008e000 <pool_slots+0x340>
ffff000000082968:	9115e000 	add	x0, x0, #0x578
ffff00000008296c:	94000fd4 	bl	ffff0000000868bc <uart_write_str>
ffff000000082970:	f9401be0 	ldr	x0, [sp, #48]
ffff000000082974:	b9400000 	ldr	w0, [x0]
ffff000000082978:	94001087 	bl	ffff000000086b94 <uart_write_int>
ffff00000008297c:	f94027e0 	ldr	x0, [sp, #72]
ffff000000082980:	f9400400 	ldr	x0, [x0, #8]
ffff000000082984:	aa0003e2 	mov	x2, x0
ffff000000082988:	f9401be0 	ldr	x0, [sp, #48]
ffff00000008298c:	b9400001 	ldr	w1, [x0]
ffff000000082990:	b94047e0 	ldr	w0, [sp, #68]
ffff000000082994:	1b007c20 	mul	w0, w1, w0
ffff000000082998:	2a0003e0 	mov	w0, w0
ffff00000008299c:	8b000040 	add	x0, x2, x0
ffff0000000829a0:	140000b3 	b	ffff000000082c6c <chunk_alloc+0x484>
ffff0000000829a4:	b94047e0 	ldr	w0, [sp, #68]
ffff0000000829a8:	11000400 	add	w0, w0, #0x1
ffff0000000829ac:	b90047e0 	str	w0, [sp, #68]
ffff0000000829b0:	f9401be0 	ldr	x0, [sp, #48]
ffff0000000829b4:	b9400401 	ldr	w1, [x0, #4]
ffff0000000829b8:	b94047e0 	ldr	w0, [sp, #68]
ffff0000000829bc:	6b00003f 	cmp	w1, w0
ffff0000000829c0:	54fff5a8 	b.hi	ffff000000082874 <chunk_alloc+0x8c>  // b.pmore
ffff0000000829c4:	f94027e0 	ldr	x0, [sp, #72]
ffff0000000829c8:	f9400000 	ldr	x0, [x0]
ffff0000000829cc:	f90027e0 	str	x0, [sp, #72]
ffff0000000829d0:	f94027e0 	ldr	x0, [sp, #72]
ffff0000000829d4:	f100001f 	cmp	x0, #0x0
ffff0000000829d8:	54fff3a1 	b.ne	ffff00000008284c <chunk_alloc+0x64>  // b.any
ffff0000000829dc:	b90043ff 	str	wzr, [sp, #64]
ffff0000000829e0:	1400009c 	b	ffff000000082c50 <chunk_alloc+0x468>
ffff0000000829e4:	90000080 	adrp	x0, ffff000000092000 <pool_slots+0xe38>
ffff0000000829e8:	f943bc00 	ldr	x0, [x0, #1912]
ffff0000000829ec:	f9400001 	ldr	x1, [x0]
ffff0000000829f0:	b98043e0 	ldrsw	x0, [sp, #64]
ffff0000000829f4:	d37be800 	lsl	x0, x0, #5
ffff0000000829f8:	8b000020 	add	x0, x1, x0
ffff0000000829fc:	f9400400 	ldr	x0, [x0, #8]
ffff000000082a00:	f100001f 	cmp	x0, #0x0
ffff000000082a04:	54001201 	b.ne	ffff000000082c44 <chunk_alloc+0x45c>  // b.any
ffff000000082a08:	d2820000 	mov	x0, #0x1000                	// #4096
ffff000000082a0c:	97fffa67 	bl	ffff0000000813a8 <buddy_alloc>
ffff000000082a10:	f90017e0 	str	x0, [sp, #40]
ffff000000082a14:	f94017e0 	ldr	x0, [sp, #40]
ffff000000082a18:	f100001f 	cmp	x0, #0x0
ffff000000082a1c:	540000c1 	b.ne	ffff000000082a34 <chunk_alloc+0x24c>  // b.any
ffff000000082a20:	90000060 	adrp	x0, ffff00000008e000 <pool_slots+0x340>
ffff000000082a24:	91160000 	add	x0, x0, #0x580
ffff000000082a28:	94000fa5 	bl	ffff0000000868bc <uart_write_str>
ffff000000082a2c:	d2800000 	mov	x0, #0x0                   	// #0
ffff000000082a30:	1400008f 	b	ffff000000082c6c <chunk_alloc+0x484>
ffff000000082a34:	90000080 	adrp	x0, ffff000000092000 <pool_slots+0xe38>
ffff000000082a38:	f943bc00 	ldr	x0, [x0, #1912]
ffff000000082a3c:	f9400001 	ldr	x1, [x0]
ffff000000082a40:	b98043e0 	ldrsw	x0, [sp, #64]
ffff000000082a44:	d37be800 	lsl	x0, x0, #5
ffff000000082a48:	8b000020 	add	x0, x1, x0
ffff000000082a4c:	f94017e1 	ldr	x1, [sp, #40]
ffff000000082a50:	f9000401 	str	x1, [x0, #8]
ffff000000082a54:	90000080 	adrp	x0, ffff000000092000 <pool_slots+0xe38>
ffff000000082a58:	f943dc00 	ldr	x0, [x0, #1976]
ffff000000082a5c:	f9400002 	ldr	x2, [x0]
ffff000000082a60:	b98043e0 	ldrsw	x0, [sp, #64]
ffff000000082a64:	d37be801 	lsl	x1, x0, #5
ffff000000082a68:	90000080 	adrp	x0, ffff000000092000 <pool_slots+0xe38>
ffff000000082a6c:	f943bc00 	ldr	x0, [x0, #1912]
ffff000000082a70:	f9400003 	ldr	x3, [x0]
ffff000000082a74:	b98043e0 	ldrsw	x0, [sp, #64]
ffff000000082a78:	d37be800 	lsl	x0, x0, #5
ffff000000082a7c:	8b000060 	add	x0, x3, x0
ffff000000082a80:	8b010041 	add	x1, x2, x1
ffff000000082a84:	f9000801 	str	x1, [x0, #16]
ffff000000082a88:	90000080 	adrp	x0, ffff000000092000 <pool_slots+0xe38>
ffff000000082a8c:	f943bc00 	ldr	x0, [x0, #1912]
ffff000000082a90:	f9400001 	ldr	x1, [x0]
ffff000000082a94:	b98043e0 	ldrsw	x0, [sp, #64]
ffff000000082a98:	d37be800 	lsl	x0, x0, #5
ffff000000082a9c:	8b000020 	add	x0, x1, x0
ffff000000082aa0:	f9401be1 	ldr	x1, [sp, #48]
ffff000000082aa4:	b9400421 	ldr	w1, [x1, #4]
ffff000000082aa8:	b9001801 	str	w1, [x0, #24]
ffff000000082aac:	90000080 	adrp	x0, ffff000000092000 <pool_slots+0xe38>
ffff000000082ab0:	f943bc00 	ldr	x0, [x0, #1912]
ffff000000082ab4:	f9400001 	ldr	x1, [x0]
ffff000000082ab8:	b98043e0 	ldrsw	x0, [sp, #64]
ffff000000082abc:	d37be800 	lsl	x0, x0, #5
ffff000000082ac0:	8b000020 	add	x0, x1, x0
ffff000000082ac4:	b9001c1f 	str	wzr, [x0, #28]
ffff000000082ac8:	b9003fff 	str	wzr, [sp, #60]
ffff000000082acc:	1400000e 	b	ffff000000082b04 <chunk_alloc+0x31c>
ffff000000082ad0:	90000080 	adrp	x0, ffff000000092000 <pool_slots+0xe38>
ffff000000082ad4:	f943bc00 	ldr	x0, [x0, #1912]
ffff000000082ad8:	f9400001 	ldr	x1, [x0]
ffff000000082adc:	b98043e0 	ldrsw	x0, [sp, #64]
ffff000000082ae0:	d37be800 	lsl	x0, x0, #5
ffff000000082ae4:	8b000020 	add	x0, x1, x0
ffff000000082ae8:	f9400801 	ldr	x1, [x0, #16]
ffff000000082aec:	b9803fe0 	ldrsw	x0, [sp, #60]
ffff000000082af0:	8b000020 	add	x0, x1, x0
ffff000000082af4:	3900001f 	strb	wzr, [x0]
ffff000000082af8:	b9403fe0 	ldr	w0, [sp, #60]
ffff000000082afc:	11000400 	add	w0, w0, #0x1
ffff000000082b00:	b9003fe0 	str	w0, [sp, #60]
ffff000000082b04:	b9403fe0 	ldr	w0, [sp, #60]
ffff000000082b08:	71007c1f 	cmp	w0, #0x1f
ffff000000082b0c:	54fffe2d 	b.le	ffff000000082ad0 <chunk_alloc+0x2e8>
ffff000000082b10:	90000080 	adrp	x0, ffff000000092000 <pool_slots+0xe38>
ffff000000082b14:	f943bc00 	ldr	x0, [x0, #1912]
ffff000000082b18:	f9400001 	ldr	x1, [x0]
ffff000000082b1c:	b98043e0 	ldrsw	x0, [sp, #64]
ffff000000082b20:	d37be800 	lsl	x0, x0, #5
ffff000000082b24:	8b000020 	add	x0, x1, x0
ffff000000082b28:	f9401be1 	ldr	x1, [sp, #48]
ffff000000082b2c:	f9400421 	ldr	x1, [x1, #8]
ffff000000082b30:	f9000001 	str	x1, [x0]
ffff000000082b34:	90000080 	adrp	x0, ffff000000092000 <pool_slots+0xe38>
ffff000000082b38:	f943bc00 	ldr	x0, [x0, #1912]
ffff000000082b3c:	f9400001 	ldr	x1, [x0]
ffff000000082b40:	b98043e0 	ldrsw	x0, [sp, #64]
ffff000000082b44:	d37be800 	lsl	x0, x0, #5
ffff000000082b48:	8b000021 	add	x1, x1, x0
ffff000000082b4c:	f9401be0 	ldr	x0, [sp, #48]
ffff000000082b50:	f9000401 	str	x1, [x0, #8]
ffff000000082b54:	90000080 	adrp	x0, ffff000000092000 <pool_slots+0xe38>
ffff000000082b58:	f943ac00 	ldr	x0, [x0, #1880]
ffff000000082b5c:	f9400001 	ldr	x1, [x0]
ffff000000082b60:	b98043e0 	ldrsw	x0, [sp, #64]
ffff000000082b64:	d37ef400 	lsl	x0, x0, #2
ffff000000082b68:	8b000020 	add	x0, x1, x0
ffff000000082b6c:	b9403be1 	ldr	w1, [sp, #56]
ffff000000082b70:	b9000001 	str	w1, [x0]
ffff000000082b74:	90000080 	adrp	x0, ffff000000092000 <pool_slots+0xe38>
ffff000000082b78:	f943bc00 	ldr	x0, [x0, #1912]
ffff000000082b7c:	f9400001 	ldr	x1, [x0]
ffff000000082b80:	b98043e0 	ldrsw	x0, [sp, #64]
ffff000000082b84:	d37be800 	lsl	x0, x0, #5
ffff000000082b88:	8b000020 	add	x0, x1, x0
ffff000000082b8c:	f9400800 	ldr	x0, [x0, #16]
ffff000000082b90:	39400001 	ldrb	w1, [x0]
ffff000000082b94:	90000080 	adrp	x0, ffff000000092000 <pool_slots+0xe38>
ffff000000082b98:	f943bc00 	ldr	x0, [x0, #1912]
ffff000000082b9c:	f9400002 	ldr	x2, [x0]
ffff000000082ba0:	b98043e0 	ldrsw	x0, [sp, #64]
ffff000000082ba4:	d37be800 	lsl	x0, x0, #5
ffff000000082ba8:	8b000040 	add	x0, x2, x0
ffff000000082bac:	f9400800 	ldr	x0, [x0, #16]
ffff000000082bb0:	32000021 	orr	w1, w1, #0x1
ffff000000082bb4:	12001c21 	and	w1, w1, #0xff
ffff000000082bb8:	39000001 	strb	w1, [x0]
ffff000000082bbc:	90000080 	adrp	x0, ffff000000092000 <pool_slots+0xe38>
ffff000000082bc0:	f943bc00 	ldr	x0, [x0, #1912]
ffff000000082bc4:	f9400001 	ldr	x1, [x0]
ffff000000082bc8:	b98043e0 	ldrsw	x0, [sp, #64]
ffff000000082bcc:	d37be800 	lsl	x0, x0, #5
ffff000000082bd0:	8b000020 	add	x0, x1, x0
ffff000000082bd4:	b9401801 	ldr	w1, [x0, #24]
ffff000000082bd8:	51000421 	sub	w1, w1, #0x1
ffff000000082bdc:	b9001801 	str	w1, [x0, #24]
ffff000000082be0:	90000060 	adrp	x0, ffff00000008e000 <pool_slots+0x340>
ffff000000082be4:	91156000 	add	x0, x0, #0x558
ffff000000082be8:	94000f35 	bl	ffff0000000868bc <uart_write_str>
ffff000000082bec:	90000080 	adrp	x0, ffff000000092000 <pool_slots+0xe38>
ffff000000082bf0:	f943bc00 	ldr	x0, [x0, #1912]
ffff000000082bf4:	f9400001 	ldr	x1, [x0]
ffff000000082bf8:	b98043e0 	ldrsw	x0, [sp, #64]
ffff000000082bfc:	d37be800 	lsl	x0, x0, #5
ffff000000082c00:	8b000020 	add	x0, x1, x0
ffff000000082c04:	f9400400 	ldr	x0, [x0, #8]
ffff000000082c08:	94001047 	bl	ffff000000086d24 <uart_write_hex>
ffff000000082c0c:	90000060 	adrp	x0, ffff00000008e000 <pool_slots+0x340>
ffff000000082c10:	9115e000 	add	x0, x0, #0x578
ffff000000082c14:	94000f2a 	bl	ffff0000000868bc <uart_write_str>
ffff000000082c18:	f9401be0 	ldr	x0, [sp, #48]
ffff000000082c1c:	b9400000 	ldr	w0, [x0]
ffff000000082c20:	94000fdd 	bl	ffff000000086b94 <uart_write_int>
ffff000000082c24:	90000080 	adrp	x0, ffff000000092000 <pool_slots+0xe38>
ffff000000082c28:	f943bc00 	ldr	x0, [x0, #1912]
ffff000000082c2c:	f9400001 	ldr	x1, [x0]
ffff000000082c30:	b98043e0 	ldrsw	x0, [sp, #64]
ffff000000082c34:	d37be800 	lsl	x0, x0, #5
ffff000000082c38:	8b000020 	add	x0, x1, x0
ffff000000082c3c:	f9400400 	ldr	x0, [x0, #8]
ffff000000082c40:	1400000b 	b	ffff000000082c6c <chunk_alloc+0x484>
ffff000000082c44:	b94043e0 	ldr	w0, [sp, #64]
ffff000000082c48:	11000400 	add	w0, w0, #0x1
ffff000000082c4c:	b90043e0 	str	w0, [sp, #64]
ffff000000082c50:	b94043e0 	ldr	w0, [sp, #64]
ffff000000082c54:	7100381f 	cmp	w0, #0xe
ffff000000082c58:	54ffec6d 	b.le	ffff0000000829e4 <chunk_alloc+0x1fc>
ffff000000082c5c:	90000060 	adrp	x0, ffff00000008e000 <pool_slots+0x340>
ffff000000082c60:	9116c000 	add	x0, x0, #0x5b0
ffff000000082c64:	94000f16 	bl	ffff0000000868bc <uart_write_str>
ffff000000082c68:	d2800000 	mov	x0, #0x0                   	// #0
ffff000000082c6c:	a8c57bfd 	ldp	x29, x30, [sp], #80
ffff000000082c70:	d65f03c0 	ret

ffff000000082c74 <chunk_free>:
ffff000000082c74:	a9ba7bfd 	stp	x29, x30, [sp, #-96]!
ffff000000082c78:	910003fd 	mov	x29, sp
ffff000000082c7c:	f9000fe0 	str	x0, [sp, #24]
ffff000000082c80:	f9400fe0 	ldr	x0, [sp, #24]
ffff000000082c84:	f90027e0 	str	x0, [sp, #72]
ffff000000082c88:	f94027e0 	ldr	x0, [sp, #72]
ffff000000082c8c:	9274cc00 	and	x0, x0, #0xfffffffffffff000
ffff000000082c90:	f90023e0 	str	x0, [sp, #64]
ffff000000082c94:	b9005fff 	str	wzr, [sp, #92]
ffff000000082c98:	14000081 	b	ffff000000082e9c <chunk_free+0x228>
ffff000000082c9c:	90000080 	adrp	x0, ffff000000092000 <pool_slots+0xe38>
ffff000000082ca0:	f943bc00 	ldr	x0, [x0, #1912]
ffff000000082ca4:	f9400001 	ldr	x1, [x0]
ffff000000082ca8:	b9805fe0 	ldrsw	x0, [sp, #92]
ffff000000082cac:	d37be800 	lsl	x0, x0, #5
ffff000000082cb0:	8b000020 	add	x0, x1, x0
ffff000000082cb4:	f9400400 	ldr	x0, [x0, #8]
ffff000000082cb8:	aa0003e1 	mov	x1, x0
ffff000000082cbc:	f94023e0 	ldr	x0, [sp, #64]
ffff000000082cc0:	eb01001f 	cmp	x0, x1
ffff000000082cc4:	54000e61 	b.ne	ffff000000082e90 <chunk_free+0x21c>  // b.any
ffff000000082cc8:	90000080 	adrp	x0, ffff000000092000 <pool_slots+0xe38>
ffff000000082ccc:	f943bc00 	ldr	x0, [x0, #1912]
ffff000000082cd0:	f9400001 	ldr	x1, [x0]
ffff000000082cd4:	b9805fe0 	ldrsw	x0, [sp, #92]
ffff000000082cd8:	d37be800 	lsl	x0, x0, #5
ffff000000082cdc:	8b000020 	add	x0, x1, x0
ffff000000082ce0:	f9001fe0 	str	x0, [sp, #56]
ffff000000082ce4:	90000080 	adrp	x0, ffff000000092000 <pool_slots+0xe38>
ffff000000082ce8:	f943b400 	ldr	x0, [x0, #1896]
ffff000000082cec:	f9400001 	ldr	x1, [x0]
ffff000000082cf0:	90000080 	adrp	x0, ffff000000092000 <pool_slots+0xe38>
ffff000000082cf4:	f943ac00 	ldr	x0, [x0, #1880]
ffff000000082cf8:	f9400002 	ldr	x2, [x0]
ffff000000082cfc:	b9805fe0 	ldrsw	x0, [sp, #92]
ffff000000082d00:	d37ef400 	lsl	x0, x0, #2
ffff000000082d04:	8b000040 	add	x0, x2, x0
ffff000000082d08:	b9400000 	ldr	w0, [x0]
ffff000000082d0c:	93407c00 	sxtw	x0, w0
ffff000000082d10:	d37cec00 	lsl	x0, x0, #4
ffff000000082d14:	8b000020 	add	x0, x1, x0
ffff000000082d18:	f9001be0 	str	x0, [sp, #48]
ffff000000082d1c:	f94027e0 	ldr	x0, [sp, #72]
ffff000000082d20:	2a0003e1 	mov	w1, w0
ffff000000082d24:	f94023e0 	ldr	x0, [sp, #64]
ffff000000082d28:	4b000020 	sub	w0, w1, w0
ffff000000082d2c:	b9002fe0 	str	w0, [sp, #44]
ffff000000082d30:	b9402fe1 	ldr	w1, [sp, #44]
ffff000000082d34:	f9401be0 	ldr	x0, [sp, #48]
ffff000000082d38:	b9400000 	ldr	w0, [x0]
ffff000000082d3c:	1ac00820 	udiv	w0, w1, w0
ffff000000082d40:	b9002be0 	str	w0, [sp, #40]
ffff000000082d44:	f9401fe0 	ldr	x0, [sp, #56]
ffff000000082d48:	f9400801 	ldr	x1, [x0, #16]
ffff000000082d4c:	b9402be0 	ldr	w0, [sp, #40]
ffff000000082d50:	11001c02 	add	w2, w0, #0x7
ffff000000082d54:	7100001f 	cmp	w0, #0x0
ffff000000082d58:	1a80b040 	csel	w0, w2, w0, lt  // lt = tstop
ffff000000082d5c:	13037c00 	asr	w0, w0, #3
ffff000000082d60:	2a0003e3 	mov	w3, w0
ffff000000082d64:	93407c60 	sxtw	x0, w3
ffff000000082d68:	8b000020 	add	x0, x1, x0
ffff000000082d6c:	39400000 	ldrb	w0, [x0]
ffff000000082d70:	13001c01 	sxtb	w1, w0
ffff000000082d74:	b9402be0 	ldr	w0, [sp, #40]
ffff000000082d78:	12000800 	and	w0, w0, #0x7
ffff000000082d7c:	52800022 	mov	w2, #0x1                   	// #1
ffff000000082d80:	1ac02040 	lsl	w0, w2, w0
ffff000000082d84:	13001c00 	sxtb	w0, w0
ffff000000082d88:	2a2003e0 	mvn	w0, w0
ffff000000082d8c:	13001c00 	sxtb	w0, w0
ffff000000082d90:	0a000020 	and	w0, w1, w0
ffff000000082d94:	13001c02 	sxtb	w2, w0
ffff000000082d98:	f9401fe0 	ldr	x0, [sp, #56]
ffff000000082d9c:	f9400801 	ldr	x1, [x0, #16]
ffff000000082da0:	93407c60 	sxtw	x0, w3
ffff000000082da4:	8b000020 	add	x0, x1, x0
ffff000000082da8:	12001c41 	and	w1, w2, #0xff
ffff000000082dac:	39000001 	strb	w1, [x0]
ffff000000082db0:	f9401fe0 	ldr	x0, [sp, #56]
ffff000000082db4:	b9401800 	ldr	w0, [x0, #24]
ffff000000082db8:	11000401 	add	w1, w0, #0x1
ffff000000082dbc:	f9401fe0 	ldr	x0, [sp, #56]
ffff000000082dc0:	b9001801 	str	w1, [x0, #24]
ffff000000082dc4:	90000060 	adrp	x0, ffff00000008e000 <pool_slots+0x340>
ffff000000082dc8:	9117c000 	add	x0, x0, #0x5f0
ffff000000082dcc:	94000ebc 	bl	ffff0000000868bc <uart_write_str>
ffff000000082dd0:	f94027e0 	ldr	x0, [sp, #72]
ffff000000082dd4:	94000fd4 	bl	ffff000000086d24 <uart_write_hex>
ffff000000082dd8:	90000060 	adrp	x0, ffff00000008e000 <pool_slots+0x340>
ffff000000082ddc:	9115e000 	add	x0, x0, #0x578
ffff000000082de0:	94000eb7 	bl	ffff0000000868bc <uart_write_str>
ffff000000082de4:	f9401be0 	ldr	x0, [sp, #48]
ffff000000082de8:	b9400000 	ldr	w0, [x0]
ffff000000082dec:	94000f6a 	bl	ffff000000086b94 <uart_write_int>
ffff000000082df0:	f9401fe0 	ldr	x0, [sp, #56]
ffff000000082df4:	b9401801 	ldr	w1, [x0, #24]
ffff000000082df8:	f9401be0 	ldr	x0, [sp, #48]
ffff000000082dfc:	b9400400 	ldr	w0, [x0, #4]
ffff000000082e00:	6b00003f 	cmp	w1, w0
ffff000000082e04:	54000541 	b.ne	ffff000000082eac <chunk_free+0x238>  // b.any
ffff000000082e08:	f9401fe0 	ldr	x0, [sp, #56]
ffff000000082e0c:	b9401c00 	ldr	w0, [x0, #28]
ffff000000082e10:	7100001f 	cmp	w0, #0x0
ffff000000082e14:	540004c1 	b.ne	ffff000000082eac <chunk_free+0x238>  // b.any
ffff000000082e18:	f9401be0 	ldr	x0, [sp, #48]
ffff000000082e1c:	91002000 	add	x0, x0, #0x8
ffff000000082e20:	f9002be0 	str	x0, [sp, #80]
ffff000000082e24:	14000004 	b	ffff000000082e34 <chunk_free+0x1c0>
ffff000000082e28:	f9402be0 	ldr	x0, [sp, #80]
ffff000000082e2c:	f9400000 	ldr	x0, [x0]
ffff000000082e30:	f9002be0 	str	x0, [sp, #80]
ffff000000082e34:	f9402be0 	ldr	x0, [sp, #80]
ffff000000082e38:	f9400000 	ldr	x0, [x0]
ffff000000082e3c:	f100001f 	cmp	x0, #0x0
ffff000000082e40:	540000c0 	b.eq	ffff000000082e58 <chunk_free+0x1e4>  // b.none
ffff000000082e44:	f9402be0 	ldr	x0, [sp, #80]
ffff000000082e48:	f9400000 	ldr	x0, [x0]
ffff000000082e4c:	f9401fe1 	ldr	x1, [sp, #56]
ffff000000082e50:	eb00003f 	cmp	x1, x0
ffff000000082e54:	54fffea1 	b.ne	ffff000000082e28 <chunk_free+0x1b4>  // b.any
ffff000000082e58:	f9402be0 	ldr	x0, [sp, #80]
ffff000000082e5c:	f9400000 	ldr	x0, [x0]
ffff000000082e60:	f100001f 	cmp	x0, #0x0
ffff000000082e64:	540000a0 	b.eq	ffff000000082e78 <chunk_free+0x204>  // b.none
ffff000000082e68:	f9401fe0 	ldr	x0, [sp, #56]
ffff000000082e6c:	f9400001 	ldr	x1, [x0]
ffff000000082e70:	f9402be0 	ldr	x0, [sp, #80]
ffff000000082e74:	f9000001 	str	x1, [x0]
ffff000000082e78:	f9401fe0 	ldr	x0, [sp, #56]
ffff000000082e7c:	f9400400 	ldr	x0, [x0, #8]
ffff000000082e80:	97fff9c8 	bl	ffff0000000815a0 <buddy_free>
ffff000000082e84:	f9401fe0 	ldr	x0, [sp, #56]
ffff000000082e88:	f900041f 	str	xzr, [x0, #8]
ffff000000082e8c:	14000008 	b	ffff000000082eac <chunk_free+0x238>
ffff000000082e90:	b9405fe0 	ldr	w0, [sp, #92]
ffff000000082e94:	11000400 	add	w0, w0, #0x1
ffff000000082e98:	b9005fe0 	str	w0, [sp, #92]
ffff000000082e9c:	b9405fe0 	ldr	w0, [sp, #92]
ffff000000082ea0:	7100381f 	cmp	w0, #0xe
ffff000000082ea4:	54ffefcd 	b.le	ffff000000082c9c <chunk_free+0x28>
ffff000000082ea8:	14000002 	b	ffff000000082eb0 <chunk_free+0x23c>
ffff000000082eac:	d503201f 	nop
ffff000000082eb0:	a8c67bfd 	ldp	x29, x30, [sp], #96
ffff000000082eb4:	d65f03c0 	ret

ffff000000082eb8 <dump_chunk_pools>:
ffff000000082eb8:	a9be7bfd 	stp	x29, x30, [sp, #-32]!
ffff000000082ebc:	910003fd 	mov	x29, sp
ffff000000082ec0:	90000060 	adrp	x0, ffff00000008e000 <pool_slots+0x340>
ffff000000082ec4:	91184000 	add	x0, x0, #0x610
ffff000000082ec8:	94000e7d 	bl	ffff0000000868bc <uart_write_str>
ffff000000082ecc:	b9001fff 	str	wzr, [sp, #28]
ffff000000082ed0:	14000033 	b	ffff000000082f9c <dump_chunk_pools+0xe4>
ffff000000082ed4:	90000060 	adrp	x0, ffff00000008e000 <pool_slots+0x340>
ffff000000082ed8:	9118a000 	add	x0, x0, #0x628
ffff000000082edc:	94000e78 	bl	ffff0000000868bc <uart_write_str>
ffff000000082ee0:	b9401fe0 	ldr	w0, [sp, #28]
ffff000000082ee4:	94000f2c 	bl	ffff000000086b94 <uart_write_int>
ffff000000082ee8:	90000060 	adrp	x0, ffff00000008e000 <pool_slots+0x340>
ffff000000082eec:	9118e000 	add	x0, x0, #0x638
ffff000000082ef0:	94000e73 	bl	ffff0000000868bc <uart_write_str>
ffff000000082ef4:	90000060 	adrp	x0, ffff00000008e000 <pool_slots+0x340>
ffff000000082ef8:	91128000 	add	x0, x0, #0x4a0
ffff000000082efc:	b9801fe1 	ldrsw	x1, [sp, #28]
ffff000000082f00:	b8617800 	ldr	w0, [x0, x1, lsl #2]
ffff000000082f04:	94000f24 	bl	ffff000000086b94 <uart_write_int>
ffff000000082f08:	90000060 	adrp	x0, ffff00000008e000 <pool_slots+0x340>
ffff000000082f0c:	91192000 	add	x0, x0, #0x648
ffff000000082f10:	94000e6b 	bl	ffff0000000868bc <uart_write_str>
ffff000000082f14:	90000080 	adrp	x0, ffff000000092000 <pool_slots+0xe38>
ffff000000082f18:	f943b400 	ldr	x0, [x0, #1896]
ffff000000082f1c:	f9400001 	ldr	x1, [x0]
ffff000000082f20:	b9801fe0 	ldrsw	x0, [sp, #28]
ffff000000082f24:	d37cec00 	lsl	x0, x0, #4
ffff000000082f28:	8b000020 	add	x0, x1, x0
ffff000000082f2c:	f9400400 	ldr	x0, [x0, #8]
ffff000000082f30:	f9000be0 	str	x0, [sp, #16]
ffff000000082f34:	14000011 	b	ffff000000082f78 <dump_chunk_pools+0xc0>
ffff000000082f38:	f9400be0 	ldr	x0, [sp, #16]
ffff000000082f3c:	f9400400 	ldr	x0, [x0, #8]
ffff000000082f40:	94000f79 	bl	ffff000000086d24 <uart_write_hex>
ffff000000082f44:	f9400be0 	ldr	x0, [sp, #16]
ffff000000082f48:	b9401c00 	ldr	w0, [x0, #28]
ffff000000082f4c:	7100001f 	cmp	w0, #0x0
ffff000000082f50:	54000080 	b.eq	ffff000000082f60 <dump_chunk_pools+0xa8>  // b.none
ffff000000082f54:	90000060 	adrp	x0, ffff00000008e000 <pool_slots+0x340>
ffff000000082f58:	91194000 	add	x0, x0, #0x650
ffff000000082f5c:	94000e58 	bl	ffff0000000868bc <uart_write_str>
ffff000000082f60:	90000060 	adrp	x0, ffff00000008e000 <pool_slots+0x340>
ffff000000082f64:	91196000 	add	x0, x0, #0x658
ffff000000082f68:	94000e55 	bl	ffff0000000868bc <uart_write_str>
ffff000000082f6c:	f9400be0 	ldr	x0, [sp, #16]
ffff000000082f70:	f9400000 	ldr	x0, [x0]
ffff000000082f74:	f9000be0 	str	x0, [sp, #16]
ffff000000082f78:	f9400be0 	ldr	x0, [sp, #16]
ffff000000082f7c:	f100001f 	cmp	x0, #0x0
ffff000000082f80:	54fffdc1 	b.ne	ffff000000082f38 <dump_chunk_pools+0x80>  // b.any
ffff000000082f84:	90000060 	adrp	x0, ffff00000008e000 <pool_slots+0x340>
ffff000000082f88:	91198000 	add	x0, x0, #0x660
ffff000000082f8c:	94000e4c 	bl	ffff0000000868bc <uart_write_str>
ffff000000082f90:	b9401fe0 	ldr	w0, [sp, #28]
ffff000000082f94:	11000400 	add	w0, w0, #0x1
ffff000000082f98:	b9001fe0 	str	w0, [sp, #28]
ffff000000082f9c:	b9401fe0 	ldr	w0, [sp, #28]
ffff000000082fa0:	7100101f 	cmp	w0, #0x4
ffff000000082fa4:	54fff98d 	b.le	ffff000000082ed4 <dump_chunk_pools+0x1c>
ffff000000082fa8:	90000060 	adrp	x0, ffff00000008e000 <pool_slots+0x340>
ffff000000082fac:	9119a000 	add	x0, x0, #0x668
ffff000000082fb0:	94000e43 	bl	ffff0000000868bc <uart_write_str>
ffff000000082fb4:	d503201f 	nop
ffff000000082fb8:	a8c27bfd 	ldp	x29, x30, [sp], #32
ffff000000082fbc:	d65f03c0 	ret

ffff000000082fc0 <get_chunk_pages>:
ffff000000082fc0:	90000080 	adrp	x0, ffff000000092000 <pool_slots+0xe38>
ffff000000082fc4:	f943bc00 	ldr	x0, [x0, #1912]
ffff000000082fc8:	f9400000 	ldr	x0, [x0]
ffff000000082fcc:	d65f03c0 	ret

ffff000000082fd0 <get_chunk_page_count>:
ffff000000082fd0:	528001e0 	mov	w0, #0xf                   	// #15
ffff000000082fd4:	d65f03c0 	ret

ffff000000082fd8 <enable_interrupt>:
ffff000000082fd8:	d5034fff 	msr	daifclr, #0xf
ffff000000082fdc:	d503201f 	nop
ffff000000082fe0:	d65f03c0 	ret

ffff000000082fe4 <disable_interrupt>:
ffff000000082fe4:	d5034fdf 	msr	daifset, #0xf
ffff000000082fe8:	d503201f 	nop
ffff000000082fec:	d65f03c0 	ret

ffff000000082ff0 <handle_el1_irq>:
ffff000000082ff0:	a9be7bfd 	stp	x29, x30, [sp, #-32]!
ffff000000082ff4:	910003fd 	mov	x29, sp
ffff000000082ff8:	97fffffb 	bl	ffff000000082fe4 <disable_interrupt>
ffff000000082ffc:	d2800c00 	mov	x0, #0x60                  	// #96
ffff000000083000:	f2a80000 	movk	x0, #0x4000, lsl #16
ffff000000083004:	f2ffffe0 	movk	x0, #0xffff, lsl #48
ffff000000083008:	b9400000 	ldr	w0, [x0]
ffff00000008300c:	b9001fe0 	str	w0, [sp, #28]
ffff000000083010:	b9401fe0 	ldr	w0, [sp, #28]
ffff000000083014:	121f0000 	and	w0, w0, #0x2
ffff000000083018:	7100001f 	cmp	w0, #0x0
ffff00000008301c:	540001a0 	b.eq	ffff000000083050 <handle_el1_irq+0x60>  // b.none
ffff000000083020:	d2800800 	mov	x0, #0x40                  	// #64
ffff000000083024:	f2a80000 	movk	x0, #0x4000, lsl #16
ffff000000083028:	f2ffffe0 	movk	x0, #0xffff, lsl #48
ffff00000008302c:	f9000be0 	str	x0, [sp, #16]
ffff000000083030:	f9400be0 	ldr	x0, [sp, #16]
ffff000000083034:	b900001f 	str	wzr, [x0]
ffff000000083038:	52800022 	mov	w2, #0x1                   	// #1
ffff00000008303c:	d2800001 	mov	x1, #0x0                   	// #0
ffff000000083040:	f0000060 	adrp	x0, ffff000000092000 <pool_slots+0xe38>
ffff000000083044:	f943ec00 	ldr	x0, [x0, #2008]
ffff000000083048:	9400020e 	bl	ffff000000083880 <task_enqueue>
ffff00000008304c:	14000045 	b	ffff000000083160 <handle_el1_irq+0x170>
ffff000000083050:	b9401fe0 	ldr	w0, [sp, #28]
ffff000000083054:	12180000 	and	w0, w0, #0x100
ffff000000083058:	7100001f 	cmp	w0, #0x0
ffff00000008305c:	54000760 	b.eq	ffff000000083148 <handle_el1_irq+0x158>  // b.none
ffff000000083060:	d2964080 	mov	x0, #0xb204                	// #45572
ffff000000083064:	f2a7e000 	movk	x0, #0x3f00, lsl #16
ffff000000083068:	f2ffffe0 	movk	x0, #0xffff, lsl #48
ffff00000008306c:	b9400000 	ldr	w0, [x0]
ffff000000083070:	b9001be0 	str	w0, [sp, #24]
ffff000000083074:	b9401be0 	ldr	w0, [sp, #24]
ffff000000083078:	12030000 	and	w0, w0, #0x20000000
ffff00000008307c:	7100001f 	cmp	w0, #0x0
ffff000000083080:	54000580 	b.eq	ffff000000083130 <handle_el1_irq+0x140>  // b.none
ffff000000083084:	d28a0900 	mov	x0, #0x5048                	// #20552
ffff000000083088:	f2a7e420 	movk	x0, #0x3f21, lsl #16
ffff00000008308c:	f2ffffe0 	movk	x0, #0xffff, lsl #48
ffff000000083090:	b9400000 	ldr	w0, [x0]
ffff000000083094:	121e0000 	and	w0, w0, #0x4
ffff000000083098:	7100001f 	cmp	w0, #0x0
ffff00000008309c:	540001e0 	b.eq	ffff0000000830d8 <handle_el1_irq+0xe8>  // b.none
ffff0000000830a0:	d28a0880 	mov	x0, #0x5044                	// #20548
ffff0000000830a4:	f2a7e420 	movk	x0, #0x3f21, lsl #16
ffff0000000830a8:	f2ffffe0 	movk	x0, #0xffff, lsl #48
ffff0000000830ac:	b9400001 	ldr	w1, [x0]
ffff0000000830b0:	d28a0880 	mov	x0, #0x5044                	// #20548
ffff0000000830b4:	f2a7e420 	movk	x0, #0x3f21, lsl #16
ffff0000000830b8:	f2ffffe0 	movk	x0, #0xffff, lsl #48
ffff0000000830bc:	121f7821 	and	w1, w1, #0xfffffffe
ffff0000000830c0:	b9000001 	str	w1, [x0]
ffff0000000830c4:	52800042 	mov	w2, #0x2                   	// #2
ffff0000000830c8:	d2800001 	mov	x1, #0x0                   	// #0
ffff0000000830cc:	f0000060 	adrp	x0, ffff000000092000 <pool_slots+0xe38>
ffff0000000830d0:	f943b800 	ldr	x0, [x0, #1904]
ffff0000000830d4:	940001eb 	bl	ffff000000083880 <task_enqueue>
ffff0000000830d8:	d28a0900 	mov	x0, #0x5048                	// #20552
ffff0000000830dc:	f2a7e420 	movk	x0, #0x3f21, lsl #16
ffff0000000830e0:	f2ffffe0 	movk	x0, #0xffff, lsl #48
ffff0000000830e4:	b9400000 	ldr	w0, [x0]
ffff0000000830e8:	121f0000 	and	w0, w0, #0x2
ffff0000000830ec:	7100001f 	cmp	w0, #0x0
ffff0000000830f0:	54000380 	b.eq	ffff000000083160 <handle_el1_irq+0x170>  // b.none
ffff0000000830f4:	d28a0880 	mov	x0, #0x5044                	// #20548
ffff0000000830f8:	f2a7e420 	movk	x0, #0x3f21, lsl #16
ffff0000000830fc:	f2ffffe0 	movk	x0, #0xffff, lsl #48
ffff000000083100:	b9400001 	ldr	w1, [x0]
ffff000000083104:	d28a0880 	mov	x0, #0x5044                	// #20548
ffff000000083108:	f2a7e420 	movk	x0, #0x3f21, lsl #16
ffff00000008310c:	f2ffffe0 	movk	x0, #0xffff, lsl #48
ffff000000083110:	121e7821 	and	w1, w1, #0xfffffffd
ffff000000083114:	b9000001 	str	w1, [x0]
ffff000000083118:	52800042 	mov	w2, #0x2                   	// #2
ffff00000008311c:	d2800001 	mov	x1, #0x0                   	// #0
ffff000000083120:	f0000060 	adrp	x0, ffff000000092000 <pool_slots+0xe38>
ffff000000083124:	f9440400 	ldr	x0, [x0, #2056]
ffff000000083128:	940001d6 	bl	ffff000000083880 <task_enqueue>
ffff00000008312c:	1400000d 	b	ffff000000083160 <handle_el1_irq+0x170>
ffff000000083130:	f0000040 	adrp	x0, ffff00000008e000 <pool_slots+0x340>
ffff000000083134:	91208000 	add	x0, x0, #0x820
ffff000000083138:	94000f31 	bl	ffff000000086dfc <uart_write_str_raw>
ffff00000008313c:	b9401be0 	ldr	w0, [sp, #24]
ffff000000083140:	94000f5e 	bl	ffff000000086eb8 <uart_write_hex_raw>
ffff000000083144:	14000007 	b	ffff000000083160 <handle_el1_irq+0x170>
ffff000000083148:	f0000040 	adrp	x0, ffff00000008e000 <pool_slots+0x340>
ffff00000008314c:	91210000 	add	x0, x0, #0x840
ffff000000083150:	94000f2b 	bl	ffff000000086dfc <uart_write_str_raw>
ffff000000083154:	b9401fe0 	ldr	w0, [sp, #28]
ffff000000083158:	94000f58 	bl	ffff000000086eb8 <uart_write_hex_raw>
ffff00000008315c:	14000000 	b	ffff00000008315c <handle_el1_irq+0x16c>
ffff000000083160:	f0000060 	adrp	x0, ffff000000092000 <pool_slots+0xe38>
ffff000000083164:	91240000 	add	x0, x0, #0x900
ffff000000083168:	b9400000 	ldr	w0, [x0]
ffff00000008316c:	7100001f 	cmp	w0, #0x0
ffff000000083170:	54000201 	b.ne	ffff0000000831b0 <handle_el1_irq+0x1c0>  // b.any
ffff000000083174:	f0000060 	adrp	x0, ffff000000092000 <pool_slots+0xe38>
ffff000000083178:	91240000 	add	x0, x0, #0x900
ffff00000008317c:	52800021 	mov	w1, #0x1                   	// #1
ffff000000083180:	b9000001 	str	w1, [x0]
ffff000000083184:	97ffff95 	bl	ffff000000082fd8 <enable_interrupt>
ffff000000083188:	9400022d 	bl	ffff000000083a3c <task_execute_loop>
ffff00000008318c:	97ffff96 	bl	ffff000000082fe4 <disable_interrupt>
ffff000000083190:	f0000060 	adrp	x0, ffff000000092000 <pool_slots+0xe38>
ffff000000083194:	911ce000 	add	x0, x0, #0x738
ffff000000083198:	52807ce1 	mov	w1, #0x3e7                 	// #999
ffff00000008319c:	b9000001 	str	w1, [x0]
ffff0000000831a0:	f0000060 	adrp	x0, ffff000000092000 <pool_slots+0xe38>
ffff0000000831a4:	91240000 	add	x0, x0, #0x900
ffff0000000831a8:	b900001f 	str	wzr, [x0]
ffff0000000831ac:	97ffff8b 	bl	ffff000000082fd8 <enable_interrupt>
ffff0000000831b0:	97ffff8a 	bl	ffff000000082fd8 <enable_interrupt>
ffff0000000831b4:	d503201f 	nop
ffff0000000831b8:	a8c27bfd 	ldp	x29, x30, [sp], #32
ffff0000000831bc:	d65f03c0 	ret

ffff0000000831c0 <lower_sync_handler>:
ffff0000000831c0:	a9bd7bfd 	stp	x29, x30, [sp, #-48]!
ffff0000000831c4:	910003fd 	mov	x29, sp
ffff0000000831c8:	f90017e0 	str	x0, [sp, #40]
ffff0000000831cc:	f90013e1 	str	x1, [sp, #32]
ffff0000000831d0:	f9000fe2 	str	x2, [sp, #24]
ffff0000000831d4:	f9000be3 	str	x3, [sp, #16]
ffff0000000831d8:	97ffff83 	bl	ffff000000082fe4 <disable_interrupt>
ffff0000000831dc:	f0000040 	adrp	x0, ffff00000008e000 <pool_slots+0x340>
ffff0000000831e0:	91218000 	add	x0, x0, #0x860
ffff0000000831e4:	94000f06 	bl	ffff000000086dfc <uart_write_str_raw>
ffff0000000831e8:	f0000040 	adrp	x0, ffff00000008e000 <pool_slots+0x340>
ffff0000000831ec:	91224000 	add	x0, x0, #0x890
ffff0000000831f0:	94000f03 	bl	ffff000000086dfc <uart_write_str_raw>
ffff0000000831f4:	f0000060 	adrp	x0, ffff000000092000 <pool_slots+0xe38>
ffff0000000831f8:	91214000 	add	x0, x0, #0x850
ffff0000000831fc:	f94017e1 	ldr	x1, [sp, #40]
ffff000000083200:	f8617800 	ldr	x0, [x0, x1, lsl #3]
ffff000000083204:	94000efe 	bl	ffff000000086dfc <uart_write_str_raw>
ffff000000083208:	f0000040 	adrp	x0, ffff00000008e000 <pool_slots+0x340>
ffff00000008320c:	91228000 	add	x0, x0, #0x8a0
ffff000000083210:	94000efb 	bl	ffff000000086dfc <uart_write_str_raw>
ffff000000083214:	f94013e0 	ldr	x0, [sp, #32]
ffff000000083218:	d35afc00 	lsr	x0, x0, #26
ffff00000008321c:	f100b01f 	cmp	x0, #0x2c
ffff000000083220:	54000b00 	b.eq	ffff000000083380 <lower_sync_handler+0x1c0>  // b.none
ffff000000083224:	f100b01f 	cmp	x0, #0x2c
ffff000000083228:	54000b48 	b.hi	ffff000000083390 <lower_sync_handler+0x1d0>  // b.pmore
ffff00000008322c:	f100981f 	cmp	x0, #0x26
ffff000000083230:	54000a00 	b.eq	ffff000000083370 <lower_sync_handler+0x1b0>  // b.none
ffff000000083234:	f100981f 	cmp	x0, #0x26
ffff000000083238:	54000ac8 	b.hi	ffff000000083390 <lower_sync_handler+0x1d0>  // b.pmore
ffff00000008323c:	f100941f 	cmp	x0, #0x25
ffff000000083240:	54000900 	b.eq	ffff000000083360 <lower_sync_handler+0x1a0>  // b.none
ffff000000083244:	f100941f 	cmp	x0, #0x25
ffff000000083248:	54000a48 	b.hi	ffff000000083390 <lower_sync_handler+0x1d0>  // b.pmore
ffff00000008324c:	f100901f 	cmp	x0, #0x24
ffff000000083250:	54000800 	b.eq	ffff000000083350 <lower_sync_handler+0x190>  // b.none
ffff000000083254:	f100901f 	cmp	x0, #0x24
ffff000000083258:	540009c8 	b.hi	ffff000000083390 <lower_sync_handler+0x1d0>  // b.pmore
ffff00000008325c:	f100881f 	cmp	x0, #0x22
ffff000000083260:	54000700 	b.eq	ffff000000083340 <lower_sync_handler+0x180>  // b.none
ffff000000083264:	f100881f 	cmp	x0, #0x22
ffff000000083268:	54000948 	b.hi	ffff000000083390 <lower_sync_handler+0x1d0>  // b.pmore
ffff00000008326c:	f100841f 	cmp	x0, #0x21
ffff000000083270:	54000600 	b.eq	ffff000000083330 <lower_sync_handler+0x170>  // b.none
ffff000000083274:	f100841f 	cmp	x0, #0x21
ffff000000083278:	540008c8 	b.hi	ffff000000083390 <lower_sync_handler+0x1d0>  // b.pmore
ffff00000008327c:	f100801f 	cmp	x0, #0x20
ffff000000083280:	54000500 	b.eq	ffff000000083320 <lower_sync_handler+0x160>  // b.none
ffff000000083284:	f100801f 	cmp	x0, #0x20
ffff000000083288:	54000848 	b.hi	ffff000000083390 <lower_sync_handler+0x1d0>  // b.pmore
ffff00000008328c:	f100541f 	cmp	x0, #0x15
ffff000000083290:	54000400 	b.eq	ffff000000083310 <lower_sync_handler+0x150>  // b.none
ffff000000083294:	f100541f 	cmp	x0, #0x15
ffff000000083298:	540007c8 	b.hi	ffff000000083390 <lower_sync_handler+0x1d0>  // b.pmore
ffff00000008329c:	f100381f 	cmp	x0, #0xe
ffff0000000832a0:	54000300 	b.eq	ffff000000083300 <lower_sync_handler+0x140>  // b.none
ffff0000000832a4:	f100381f 	cmp	x0, #0xe
ffff0000000832a8:	54000748 	b.hi	ffff000000083390 <lower_sync_handler+0x1d0>  // b.pmore
ffff0000000832ac:	f100081f 	cmp	x0, #0x2
ffff0000000832b0:	54000200 	b.eq	ffff0000000832f0 <lower_sync_handler+0x130>  // b.none
ffff0000000832b4:	f100081f 	cmp	x0, #0x2
ffff0000000832b8:	540006c8 	b.hi	ffff000000083390 <lower_sync_handler+0x1d0>  // b.pmore
ffff0000000832bc:	f100001f 	cmp	x0, #0x0
ffff0000000832c0:	54000080 	b.eq	ffff0000000832d0 <lower_sync_handler+0x110>  // b.none
ffff0000000832c4:	f100041f 	cmp	x0, #0x1
ffff0000000832c8:	540000c0 	b.eq	ffff0000000832e0 <lower_sync_handler+0x120>  // b.none
ffff0000000832cc:	14000031 	b	ffff000000083390 <lower_sync_handler+0x1d0>
ffff0000000832d0:	f0000040 	adrp	x0, ffff00000008e000 <pool_slots+0x340>
ffff0000000832d4:	9122e000 	add	x0, x0, #0x8b8
ffff0000000832d8:	94000ec9 	bl	ffff000000086dfc <uart_write_str_raw>
ffff0000000832dc:	14000031 	b	ffff0000000833a0 <lower_sync_handler+0x1e0>
ffff0000000832e0:	f0000040 	adrp	x0, ffff00000008e000 <pool_slots+0x340>
ffff0000000832e4:	91230000 	add	x0, x0, #0x8c0
ffff0000000832e8:	94000ec5 	bl	ffff000000086dfc <uart_write_str_raw>
ffff0000000832ec:	1400002d 	b	ffff0000000833a0 <lower_sync_handler+0x1e0>
ffff0000000832f0:	f0000040 	adrp	x0, ffff00000008e000 <pool_slots+0x340>
ffff0000000832f4:	91234000 	add	x0, x0, #0x8d0
ffff0000000832f8:	94000ec1 	bl	ffff000000086dfc <uart_write_str_raw>
ffff0000000832fc:	14000029 	b	ffff0000000833a0 <lower_sync_handler+0x1e0>
ffff000000083300:	f0000040 	adrp	x0, ffff00000008e000 <pool_slots+0x340>
ffff000000083304:	91244000 	add	x0, x0, #0x910
ffff000000083308:	94000ebd 	bl	ffff000000086dfc <uart_write_str_raw>
ffff00000008330c:	14000025 	b	ffff0000000833a0 <lower_sync_handler+0x1e0>
ffff000000083310:	f0000040 	adrp	x0, ffff00000008e000 <pool_slots+0x340>
ffff000000083314:	9124a000 	add	x0, x0, #0x928
ffff000000083318:	94000eb9 	bl	ffff000000086dfc <uart_write_str_raw>
ffff00000008331c:	14000021 	b	ffff0000000833a0 <lower_sync_handler+0x1e0>
ffff000000083320:	f0000040 	adrp	x0, ffff00000008e000 <pool_slots+0x340>
ffff000000083324:	9124e000 	add	x0, x0, #0x938
ffff000000083328:	94000eb5 	bl	ffff000000086dfc <uart_write_str_raw>
ffff00000008332c:	1400001d 	b	ffff0000000833a0 <lower_sync_handler+0x1e0>
ffff000000083330:	f0000040 	adrp	x0, ffff00000008e000 <pool_slots+0x340>
ffff000000083334:	91256000 	add	x0, x0, #0x958
ffff000000083338:	94000eb1 	bl	ffff000000086dfc <uart_write_str_raw>
ffff00000008333c:	14000019 	b	ffff0000000833a0 <lower_sync_handler+0x1e0>
ffff000000083340:	f0000040 	adrp	x0, ffff00000008e000 <pool_slots+0x340>
ffff000000083344:	9125e000 	add	x0, x0, #0x978
ffff000000083348:	94000ead 	bl	ffff000000086dfc <uart_write_str_raw>
ffff00000008334c:	14000015 	b	ffff0000000833a0 <lower_sync_handler+0x1e0>
ffff000000083350:	f0000040 	adrp	x0, ffff00000008e000 <pool_slots+0x340>
ffff000000083354:	91266000 	add	x0, x0, #0x998
ffff000000083358:	94000ea9 	bl	ffff000000086dfc <uart_write_str_raw>
ffff00000008335c:	14000011 	b	ffff0000000833a0 <lower_sync_handler+0x1e0>
ffff000000083360:	f0000040 	adrp	x0, ffff00000008e000 <pool_slots+0x340>
ffff000000083364:	9126c000 	add	x0, x0, #0x9b0
ffff000000083368:	94000ea5 	bl	ffff000000086dfc <uart_write_str_raw>
ffff00000008336c:	1400000d 	b	ffff0000000833a0 <lower_sync_handler+0x1e0>
ffff000000083370:	f0000040 	adrp	x0, ffff00000008e000 <pool_slots+0x340>
ffff000000083374:	91272000 	add	x0, x0, #0x9c8
ffff000000083378:	94000ea1 	bl	ffff000000086dfc <uart_write_str_raw>
ffff00000008337c:	14000009 	b	ffff0000000833a0 <lower_sync_handler+0x1e0>
ffff000000083380:	f0000040 	adrp	x0, ffff00000008e000 <pool_slots+0x340>
ffff000000083384:	91278000 	add	x0, x0, #0x9e0
ffff000000083388:	94000e9d 	bl	ffff000000086dfc <uart_write_str_raw>
ffff00000008338c:	14000005 	b	ffff0000000833a0 <lower_sync_handler+0x1e0>
ffff000000083390:	f0000040 	adrp	x0, ffff00000008e000 <pool_slots+0x340>
ffff000000083394:	9122e000 	add	x0, x0, #0x8b8
ffff000000083398:	94000e99 	bl	ffff000000086dfc <uart_write_str_raw>
ffff00000008339c:	d503201f 	nop
ffff0000000833a0:	f0000040 	adrp	x0, ffff00000008e000 <pool_slots+0x340>
ffff0000000833a4:	9127c000 	add	x0, x0, #0x9f0
ffff0000000833a8:	94000e95 	bl	ffff000000086dfc <uart_write_str_raw>
ffff0000000833ac:	f94013e0 	ldr	x0, [sp, #32]
ffff0000000833b0:	d35afc00 	lsr	x0, x0, #26
ffff0000000833b4:	f100901f 	cmp	x0, #0x24
ffff0000000833b8:	540000a0 	b.eq	ffff0000000833cc <lower_sync_handler+0x20c>  // b.none
ffff0000000833bc:	f94013e0 	ldr	x0, [sp, #32]
ffff0000000833c0:	d35afc00 	lsr	x0, x0, #26
ffff0000000833c4:	f100941f 	cmp	x0, #0x25
ffff0000000833c8:	54000861 	b.ne	ffff0000000834d4 <lower_sync_handler+0x314>  // b.any
ffff0000000833cc:	f0000040 	adrp	x0, ffff00000008e000 <pool_slots+0x340>
ffff0000000833d0:	91280000 	add	x0, x0, #0xa00
ffff0000000833d4:	94000e8a 	bl	ffff000000086dfc <uart_write_str_raw>
ffff0000000833d8:	f94013e0 	ldr	x0, [sp, #32]
ffff0000000833dc:	d342fc00 	lsr	x0, x0, #2
ffff0000000833e0:	92400400 	and	x0, x0, #0x3
ffff0000000833e4:	f1000c1f 	cmp	x0, #0x3
ffff0000000833e8:	54000300 	b.eq	ffff000000083448 <lower_sync_handler+0x288>  // b.none
ffff0000000833ec:	f1000c1f 	cmp	x0, #0x3
ffff0000000833f0:	54000348 	b.hi	ffff000000083458 <lower_sync_handler+0x298>  // b.pmore
ffff0000000833f4:	f100081f 	cmp	x0, #0x2
ffff0000000833f8:	54000200 	b.eq	ffff000000083438 <lower_sync_handler+0x278>  // b.none
ffff0000000833fc:	f100081f 	cmp	x0, #0x2
ffff000000083400:	540002c8 	b.hi	ffff000000083458 <lower_sync_handler+0x298>  // b.pmore
ffff000000083404:	f100001f 	cmp	x0, #0x0
ffff000000083408:	54000080 	b.eq	ffff000000083418 <lower_sync_handler+0x258>  // b.none
ffff00000008340c:	f100041f 	cmp	x0, #0x1
ffff000000083410:	540000c0 	b.eq	ffff000000083428 <lower_sync_handler+0x268>  // b.none
ffff000000083414:	14000011 	b	ffff000000083458 <lower_sync_handler+0x298>
ffff000000083418:	f0000040 	adrp	x0, ffff00000008e000 <pool_slots+0x340>
ffff00000008341c:	91282000 	add	x0, x0, #0xa08
ffff000000083420:	94000e77 	bl	ffff000000086dfc <uart_write_str_raw>
ffff000000083424:	1400000d 	b	ffff000000083458 <lower_sync_handler+0x298>
ffff000000083428:	f0000040 	adrp	x0, ffff00000008e000 <pool_slots+0x340>
ffff00000008342c:	91288000 	add	x0, x0, #0xa20
ffff000000083430:	94000e73 	bl	ffff000000086dfc <uart_write_str_raw>
ffff000000083434:	14000009 	b	ffff000000083458 <lower_sync_handler+0x298>
ffff000000083438:	f0000040 	adrp	x0, ffff00000008e000 <pool_slots+0x340>
ffff00000008343c:	9128e000 	add	x0, x0, #0xa38
ffff000000083440:	94000e6f 	bl	ffff000000086dfc <uart_write_str_raw>
ffff000000083444:	14000005 	b	ffff000000083458 <lower_sync_handler+0x298>
ffff000000083448:	f0000040 	adrp	x0, ffff00000008e000 <pool_slots+0x340>
ffff00000008344c:	91294000 	add	x0, x0, #0xa50
ffff000000083450:	94000e6b 	bl	ffff000000086dfc <uart_write_str_raw>
ffff000000083454:	d503201f 	nop
ffff000000083458:	f94013e0 	ldr	x0, [sp, #32]
ffff00000008345c:	92400400 	and	x0, x0, #0x3
ffff000000083460:	f1000c1f 	cmp	x0, #0x3
ffff000000083464:	54000300 	b.eq	ffff0000000834c4 <lower_sync_handler+0x304>  // b.none
ffff000000083468:	f1000c1f 	cmp	x0, #0x3
ffff00000008346c:	54000348 	b.hi	ffff0000000834d4 <lower_sync_handler+0x314>  // b.pmore
ffff000000083470:	f100081f 	cmp	x0, #0x2
ffff000000083474:	54000200 	b.eq	ffff0000000834b4 <lower_sync_handler+0x2f4>  // b.none
ffff000000083478:	f100081f 	cmp	x0, #0x2
ffff00000008347c:	540002c8 	b.hi	ffff0000000834d4 <lower_sync_handler+0x314>  // b.pmore
ffff000000083480:	f100001f 	cmp	x0, #0x0
ffff000000083484:	54000080 	b.eq	ffff000000083494 <lower_sync_handler+0x2d4>  // b.none
ffff000000083488:	f100041f 	cmp	x0, #0x1
ffff00000008348c:	540000c0 	b.eq	ffff0000000834a4 <lower_sync_handler+0x2e4>  // b.none
ffff000000083490:	14000011 	b	ffff0000000834d4 <lower_sync_handler+0x314>
ffff000000083494:	f0000040 	adrp	x0, ffff00000008e000 <pool_slots+0x340>
ffff000000083498:	9129a000 	add	x0, x0, #0xa68
ffff00000008349c:	94000e58 	bl	ffff000000086dfc <uart_write_str_raw>
ffff0000000834a0:	1400000d 	b	ffff0000000834d4 <lower_sync_handler+0x314>
ffff0000000834a4:	f0000040 	adrp	x0, ffff00000008e000 <pool_slots+0x340>
ffff0000000834a8:	9129e000 	add	x0, x0, #0xa78
ffff0000000834ac:	94000e54 	bl	ffff000000086dfc <uart_write_str_raw>
ffff0000000834b0:	14000009 	b	ffff0000000834d4 <lower_sync_handler+0x314>
ffff0000000834b4:	f0000040 	adrp	x0, ffff00000008e000 <pool_slots+0x340>
ffff0000000834b8:	912a2000 	add	x0, x0, #0xa88
ffff0000000834bc:	94000e50 	bl	ffff000000086dfc <uart_write_str_raw>
ffff0000000834c0:	14000005 	b	ffff0000000834d4 <lower_sync_handler+0x314>
ffff0000000834c4:	f0000040 	adrp	x0, ffff00000008e000 <pool_slots+0x340>
ffff0000000834c8:	912a6000 	add	x0, x0, #0xa98
ffff0000000834cc:	94000e4c 	bl	ffff000000086dfc <uart_write_str_raw>
ffff0000000834d0:	d503201f 	nop
ffff0000000834d4:	f0000040 	adrp	x0, ffff00000008e000 <pool_slots+0x340>
ffff0000000834d8:	912aa000 	add	x0, x0, #0xaa8
ffff0000000834dc:	94000e48 	bl	ffff000000086dfc <uart_write_str_raw>
ffff0000000834e0:	f94013e0 	ldr	x0, [sp, #32]
ffff0000000834e4:	94000e75 	bl	ffff000000086eb8 <uart_write_hex_raw>
ffff0000000834e8:	f0000040 	adrp	x0, ffff00000008e000 <pool_slots+0x340>
ffff0000000834ec:	912ae000 	add	x0, x0, #0xab8
ffff0000000834f0:	94000e43 	bl	ffff000000086dfc <uart_write_str_raw>
ffff0000000834f4:	f9400fe0 	ldr	x0, [sp, #24]
ffff0000000834f8:	94000e70 	bl	ffff000000086eb8 <uart_write_hex_raw>
ffff0000000834fc:	f0000040 	adrp	x0, ffff00000008e000 <pool_slots+0x340>
ffff000000083500:	912b2000 	add	x0, x0, #0xac8
ffff000000083504:	94000e3e 	bl	ffff000000086dfc <uart_write_str_raw>
ffff000000083508:	f9400be0 	ldr	x0, [sp, #16]
ffff00000008350c:	94000e6b 	bl	ffff000000086eb8 <uart_write_hex_raw>
ffff000000083510:	14000000 	b	ffff000000083510 <lower_sync_handler+0x350>

ffff000000083514 <default_handler>:
ffff000000083514:	a9bc7bfd 	stp	x29, x30, [sp, #-64]!
ffff000000083518:	910003fd 	mov	x29, sp
ffff00000008351c:	f9001fe0 	str	x0, [sp, #56]
ffff000000083520:	f9001be1 	str	x1, [sp, #48]
ffff000000083524:	f90017e2 	str	x2, [sp, #40]
ffff000000083528:	f90013e3 	str	x3, [sp, #32]
ffff00000008352c:	f9000fe4 	str	x4, [sp, #24]
ffff000000083530:	97fffead 	bl	ffff000000082fe4 <disable_interrupt>
ffff000000083534:	f0000040 	adrp	x0, ffff00000008e000 <pool_slots+0x340>
ffff000000083538:	912b6000 	add	x0, x0, #0xad8
ffff00000008353c:	94000e30 	bl	ffff000000086dfc <uart_write_str_raw>
ffff000000083540:	f0000040 	adrp	x0, ffff00000008e000 <pool_slots+0x340>
ffff000000083544:	91224000 	add	x0, x0, #0x890
ffff000000083548:	94000e2d 	bl	ffff000000086dfc <uart_write_str_raw>
ffff00000008354c:	f0000060 	adrp	x0, ffff000000092000 <pool_slots+0xe38>
ffff000000083550:	91214000 	add	x0, x0, #0x850
ffff000000083554:	f9401fe1 	ldr	x1, [sp, #56]
ffff000000083558:	f8617800 	ldr	x0, [x0, x1, lsl #3]
ffff00000008355c:	94000e28 	bl	ffff000000086dfc <uart_write_str_raw>
ffff000000083560:	f0000040 	adrp	x0, ffff00000008e000 <pool_slots+0x340>
ffff000000083564:	91228000 	add	x0, x0, #0x8a0
ffff000000083568:	94000e25 	bl	ffff000000086dfc <uart_write_str_raw>
ffff00000008356c:	f9401be0 	ldr	x0, [sp, #48]
ffff000000083570:	d35afc00 	lsr	x0, x0, #26
ffff000000083574:	f100b01f 	cmp	x0, #0x2c
ffff000000083578:	54000b00 	b.eq	ffff0000000836d8 <default_handler+0x1c4>  // b.none
ffff00000008357c:	f100b01f 	cmp	x0, #0x2c
ffff000000083580:	54000b48 	b.hi	ffff0000000836e8 <default_handler+0x1d4>  // b.pmore
ffff000000083584:	f100981f 	cmp	x0, #0x26
ffff000000083588:	54000a00 	b.eq	ffff0000000836c8 <default_handler+0x1b4>  // b.none
ffff00000008358c:	f100981f 	cmp	x0, #0x26
ffff000000083590:	54000ac8 	b.hi	ffff0000000836e8 <default_handler+0x1d4>  // b.pmore
ffff000000083594:	f100941f 	cmp	x0, #0x25
ffff000000083598:	54000900 	b.eq	ffff0000000836b8 <default_handler+0x1a4>  // b.none
ffff00000008359c:	f100941f 	cmp	x0, #0x25
ffff0000000835a0:	54000a48 	b.hi	ffff0000000836e8 <default_handler+0x1d4>  // b.pmore
ffff0000000835a4:	f100901f 	cmp	x0, #0x24
ffff0000000835a8:	54000800 	b.eq	ffff0000000836a8 <default_handler+0x194>  // b.none
ffff0000000835ac:	f100901f 	cmp	x0, #0x24
ffff0000000835b0:	540009c8 	b.hi	ffff0000000836e8 <default_handler+0x1d4>  // b.pmore
ffff0000000835b4:	f100881f 	cmp	x0, #0x22
ffff0000000835b8:	54000700 	b.eq	ffff000000083698 <default_handler+0x184>  // b.none
ffff0000000835bc:	f100881f 	cmp	x0, #0x22
ffff0000000835c0:	54000948 	b.hi	ffff0000000836e8 <default_handler+0x1d4>  // b.pmore
ffff0000000835c4:	f100841f 	cmp	x0, #0x21
ffff0000000835c8:	54000600 	b.eq	ffff000000083688 <default_handler+0x174>  // b.none
ffff0000000835cc:	f100841f 	cmp	x0, #0x21
ffff0000000835d0:	540008c8 	b.hi	ffff0000000836e8 <default_handler+0x1d4>  // b.pmore
ffff0000000835d4:	f100801f 	cmp	x0, #0x20
ffff0000000835d8:	54000500 	b.eq	ffff000000083678 <default_handler+0x164>  // b.none
ffff0000000835dc:	f100801f 	cmp	x0, #0x20
ffff0000000835e0:	54000848 	b.hi	ffff0000000836e8 <default_handler+0x1d4>  // b.pmore
ffff0000000835e4:	f100541f 	cmp	x0, #0x15
ffff0000000835e8:	54000400 	b.eq	ffff000000083668 <default_handler+0x154>  // b.none
ffff0000000835ec:	f100541f 	cmp	x0, #0x15
ffff0000000835f0:	540007c8 	b.hi	ffff0000000836e8 <default_handler+0x1d4>  // b.pmore
ffff0000000835f4:	f100381f 	cmp	x0, #0xe
ffff0000000835f8:	54000300 	b.eq	ffff000000083658 <default_handler+0x144>  // b.none
ffff0000000835fc:	f100381f 	cmp	x0, #0xe
ffff000000083600:	54000748 	b.hi	ffff0000000836e8 <default_handler+0x1d4>  // b.pmore
ffff000000083604:	f100081f 	cmp	x0, #0x2
ffff000000083608:	54000200 	b.eq	ffff000000083648 <default_handler+0x134>  // b.none
ffff00000008360c:	f100081f 	cmp	x0, #0x2
ffff000000083610:	540006c8 	b.hi	ffff0000000836e8 <default_handler+0x1d4>  // b.pmore
ffff000000083614:	f100001f 	cmp	x0, #0x0
ffff000000083618:	54000080 	b.eq	ffff000000083628 <default_handler+0x114>  // b.none
ffff00000008361c:	f100041f 	cmp	x0, #0x1
ffff000000083620:	540000c0 	b.eq	ffff000000083638 <default_handler+0x124>  // b.none
ffff000000083624:	14000031 	b	ffff0000000836e8 <default_handler+0x1d4>
ffff000000083628:	f0000040 	adrp	x0, ffff00000008e000 <pool_slots+0x340>
ffff00000008362c:	9122e000 	add	x0, x0, #0x8b8
ffff000000083630:	94000df3 	bl	ffff000000086dfc <uart_write_str_raw>
ffff000000083634:	14000031 	b	ffff0000000836f8 <default_handler+0x1e4>
ffff000000083638:	f0000040 	adrp	x0, ffff00000008e000 <pool_slots+0x340>
ffff00000008363c:	91230000 	add	x0, x0, #0x8c0
ffff000000083640:	94000def 	bl	ffff000000086dfc <uart_write_str_raw>
ffff000000083644:	1400002d 	b	ffff0000000836f8 <default_handler+0x1e4>
ffff000000083648:	f0000040 	adrp	x0, ffff00000008e000 <pool_slots+0x340>
ffff00000008364c:	91234000 	add	x0, x0, #0x8d0
ffff000000083650:	94000deb 	bl	ffff000000086dfc <uart_write_str_raw>
ffff000000083654:	14000029 	b	ffff0000000836f8 <default_handler+0x1e4>
ffff000000083658:	f0000040 	adrp	x0, ffff00000008e000 <pool_slots+0x340>
ffff00000008365c:	91244000 	add	x0, x0, #0x910
ffff000000083660:	94000de7 	bl	ffff000000086dfc <uart_write_str_raw>
ffff000000083664:	14000025 	b	ffff0000000836f8 <default_handler+0x1e4>
ffff000000083668:	f0000040 	adrp	x0, ffff00000008e000 <pool_slots+0x340>
ffff00000008366c:	9124a000 	add	x0, x0, #0x928
ffff000000083670:	94000de3 	bl	ffff000000086dfc <uart_write_str_raw>
ffff000000083674:	14000021 	b	ffff0000000836f8 <default_handler+0x1e4>
ffff000000083678:	f0000040 	adrp	x0, ffff00000008e000 <pool_slots+0x340>
ffff00000008367c:	9124e000 	add	x0, x0, #0x938
ffff000000083680:	94000ddf 	bl	ffff000000086dfc <uart_write_str_raw>
ffff000000083684:	1400001d 	b	ffff0000000836f8 <default_handler+0x1e4>
ffff000000083688:	f0000040 	adrp	x0, ffff00000008e000 <pool_slots+0x340>
ffff00000008368c:	91256000 	add	x0, x0, #0x958
ffff000000083690:	94000ddb 	bl	ffff000000086dfc <uart_write_str_raw>
ffff000000083694:	14000019 	b	ffff0000000836f8 <default_handler+0x1e4>
ffff000000083698:	f0000040 	adrp	x0, ffff00000008e000 <pool_slots+0x340>
ffff00000008369c:	9125e000 	add	x0, x0, #0x978
ffff0000000836a0:	94000dd7 	bl	ffff000000086dfc <uart_write_str_raw>
ffff0000000836a4:	14000015 	b	ffff0000000836f8 <default_handler+0x1e4>
ffff0000000836a8:	f0000040 	adrp	x0, ffff00000008e000 <pool_slots+0x340>
ffff0000000836ac:	91266000 	add	x0, x0, #0x998
ffff0000000836b0:	94000dd3 	bl	ffff000000086dfc <uart_write_str_raw>
ffff0000000836b4:	14000011 	b	ffff0000000836f8 <default_handler+0x1e4>
ffff0000000836b8:	f0000040 	adrp	x0, ffff00000008e000 <pool_slots+0x340>
ffff0000000836bc:	9126c000 	add	x0, x0, #0x9b0
ffff0000000836c0:	94000dcf 	bl	ffff000000086dfc <uart_write_str_raw>
ffff0000000836c4:	1400000d 	b	ffff0000000836f8 <default_handler+0x1e4>
ffff0000000836c8:	f0000040 	adrp	x0, ffff00000008e000 <pool_slots+0x340>
ffff0000000836cc:	91272000 	add	x0, x0, #0x9c8
ffff0000000836d0:	94000dcb 	bl	ffff000000086dfc <uart_write_str_raw>
ffff0000000836d4:	14000009 	b	ffff0000000836f8 <default_handler+0x1e4>
ffff0000000836d8:	f0000040 	adrp	x0, ffff00000008e000 <pool_slots+0x340>
ffff0000000836dc:	91278000 	add	x0, x0, #0x9e0
ffff0000000836e0:	94000dc7 	bl	ffff000000086dfc <uart_write_str_raw>
ffff0000000836e4:	14000005 	b	ffff0000000836f8 <default_handler+0x1e4>
ffff0000000836e8:	f0000040 	adrp	x0, ffff00000008e000 <pool_slots+0x340>
ffff0000000836ec:	9122e000 	add	x0, x0, #0x8b8
ffff0000000836f0:	94000dc3 	bl	ffff000000086dfc <uart_write_str_raw>
ffff0000000836f4:	d503201f 	nop
ffff0000000836f8:	f0000040 	adrp	x0, ffff00000008e000 <pool_slots+0x340>
ffff0000000836fc:	9127c000 	add	x0, x0, #0x9f0
ffff000000083700:	94000dbf 	bl	ffff000000086dfc <uart_write_str_raw>
ffff000000083704:	f9401be0 	ldr	x0, [sp, #48]
ffff000000083708:	d35afc00 	lsr	x0, x0, #26
ffff00000008370c:	f100901f 	cmp	x0, #0x24
ffff000000083710:	540000a0 	b.eq	ffff000000083724 <default_handler+0x210>  // b.none
ffff000000083714:	f9401be0 	ldr	x0, [sp, #48]
ffff000000083718:	d35afc00 	lsr	x0, x0, #26
ffff00000008371c:	f100941f 	cmp	x0, #0x25
ffff000000083720:	54000861 	b.ne	ffff00000008382c <default_handler+0x318>  // b.any
ffff000000083724:	f0000040 	adrp	x0, ffff00000008e000 <pool_slots+0x340>
ffff000000083728:	91280000 	add	x0, x0, #0xa00
ffff00000008372c:	94000db4 	bl	ffff000000086dfc <uart_write_str_raw>
ffff000000083730:	f9401be0 	ldr	x0, [sp, #48]
ffff000000083734:	d342fc00 	lsr	x0, x0, #2
ffff000000083738:	92400400 	and	x0, x0, #0x3
ffff00000008373c:	f1000c1f 	cmp	x0, #0x3
ffff000000083740:	54000300 	b.eq	ffff0000000837a0 <default_handler+0x28c>  // b.none
ffff000000083744:	f1000c1f 	cmp	x0, #0x3
ffff000000083748:	54000348 	b.hi	ffff0000000837b0 <default_handler+0x29c>  // b.pmore
ffff00000008374c:	f100081f 	cmp	x0, #0x2
ffff000000083750:	54000200 	b.eq	ffff000000083790 <default_handler+0x27c>  // b.none
ffff000000083754:	f100081f 	cmp	x0, #0x2
ffff000000083758:	540002c8 	b.hi	ffff0000000837b0 <default_handler+0x29c>  // b.pmore
ffff00000008375c:	f100001f 	cmp	x0, #0x0
ffff000000083760:	54000080 	b.eq	ffff000000083770 <default_handler+0x25c>  // b.none
ffff000000083764:	f100041f 	cmp	x0, #0x1
ffff000000083768:	540000c0 	b.eq	ffff000000083780 <default_handler+0x26c>  // b.none
ffff00000008376c:	14000011 	b	ffff0000000837b0 <default_handler+0x29c>
ffff000000083770:	f0000040 	adrp	x0, ffff00000008e000 <pool_slots+0x340>
ffff000000083774:	91282000 	add	x0, x0, #0xa08
ffff000000083778:	94000da1 	bl	ffff000000086dfc <uart_write_str_raw>
ffff00000008377c:	1400000d 	b	ffff0000000837b0 <default_handler+0x29c>
ffff000000083780:	f0000040 	adrp	x0, ffff00000008e000 <pool_slots+0x340>
ffff000000083784:	91288000 	add	x0, x0, #0xa20
ffff000000083788:	94000d9d 	bl	ffff000000086dfc <uart_write_str_raw>
ffff00000008378c:	14000009 	b	ffff0000000837b0 <default_handler+0x29c>
ffff000000083790:	f0000040 	adrp	x0, ffff00000008e000 <pool_slots+0x340>
ffff000000083794:	9128e000 	add	x0, x0, #0xa38
ffff000000083798:	94000d99 	bl	ffff000000086dfc <uart_write_str_raw>
ffff00000008379c:	14000005 	b	ffff0000000837b0 <default_handler+0x29c>
ffff0000000837a0:	f0000040 	adrp	x0, ffff00000008e000 <pool_slots+0x340>
ffff0000000837a4:	91294000 	add	x0, x0, #0xa50
ffff0000000837a8:	94000d95 	bl	ffff000000086dfc <uart_write_str_raw>
ffff0000000837ac:	d503201f 	nop
ffff0000000837b0:	f9401be0 	ldr	x0, [sp, #48]
ffff0000000837b4:	92400400 	and	x0, x0, #0x3
ffff0000000837b8:	f1000c1f 	cmp	x0, #0x3
ffff0000000837bc:	54000300 	b.eq	ffff00000008381c <default_handler+0x308>  // b.none
ffff0000000837c0:	f1000c1f 	cmp	x0, #0x3
ffff0000000837c4:	54000348 	b.hi	ffff00000008382c <default_handler+0x318>  // b.pmore
ffff0000000837c8:	f100081f 	cmp	x0, #0x2
ffff0000000837cc:	54000200 	b.eq	ffff00000008380c <default_handler+0x2f8>  // b.none
ffff0000000837d0:	f100081f 	cmp	x0, #0x2
ffff0000000837d4:	540002c8 	b.hi	ffff00000008382c <default_handler+0x318>  // b.pmore
ffff0000000837d8:	f100001f 	cmp	x0, #0x0
ffff0000000837dc:	54000080 	b.eq	ffff0000000837ec <default_handler+0x2d8>  // b.none
ffff0000000837e0:	f100041f 	cmp	x0, #0x1
ffff0000000837e4:	540000c0 	b.eq	ffff0000000837fc <default_handler+0x2e8>  // b.none
ffff0000000837e8:	14000011 	b	ffff00000008382c <default_handler+0x318>
ffff0000000837ec:	f0000040 	adrp	x0, ffff00000008e000 <pool_slots+0x340>
ffff0000000837f0:	9129a000 	add	x0, x0, #0xa68
ffff0000000837f4:	94000d82 	bl	ffff000000086dfc <uart_write_str_raw>
ffff0000000837f8:	1400000d 	b	ffff00000008382c <default_handler+0x318>
ffff0000000837fc:	f0000040 	adrp	x0, ffff00000008e000 <pool_slots+0x340>
ffff000000083800:	9129e000 	add	x0, x0, #0xa78
ffff000000083804:	94000d7e 	bl	ffff000000086dfc <uart_write_str_raw>
ffff000000083808:	14000009 	b	ffff00000008382c <default_handler+0x318>
ffff00000008380c:	f0000040 	adrp	x0, ffff00000008e000 <pool_slots+0x340>
ffff000000083810:	912a2000 	add	x0, x0, #0xa88
ffff000000083814:	94000d7a 	bl	ffff000000086dfc <uart_write_str_raw>
ffff000000083818:	14000005 	b	ffff00000008382c <default_handler+0x318>
ffff00000008381c:	f0000040 	adrp	x0, ffff00000008e000 <pool_slots+0x340>
ffff000000083820:	912a6000 	add	x0, x0, #0xa98
ffff000000083824:	94000d76 	bl	ffff000000086dfc <uart_write_str_raw>
ffff000000083828:	d503201f 	nop
ffff00000008382c:	f0000040 	adrp	x0, ffff00000008e000 <pool_slots+0x340>
ffff000000083830:	912aa000 	add	x0, x0, #0xaa8
ffff000000083834:	94000d72 	bl	ffff000000086dfc <uart_write_str_raw>
ffff000000083838:	f9401be0 	ldr	x0, [sp, #48]
ffff00000008383c:	94000d9f 	bl	ffff000000086eb8 <uart_write_hex_raw>
ffff000000083840:	f0000040 	adrp	x0, ffff00000008e000 <pool_slots+0x340>
ffff000000083844:	912c2000 	add	x0, x0, #0xb08
ffff000000083848:	94000d6d 	bl	ffff000000086dfc <uart_write_str_raw>
ffff00000008384c:	f94017e0 	ldr	x0, [sp, #40]
ffff000000083850:	94000d9a 	bl	ffff000000086eb8 <uart_write_hex_raw>
ffff000000083854:	f0000040 	adrp	x0, ffff00000008e000 <pool_slots+0x340>
ffff000000083858:	912b2000 	add	x0, x0, #0xac8
ffff00000008385c:	94000d68 	bl	ffff000000086dfc <uart_write_str_raw>
ffff000000083860:	f94013e0 	ldr	x0, [sp, #32]
ffff000000083864:	94000d95 	bl	ffff000000086eb8 <uart_write_hex_raw>
ffff000000083868:	f0000040 	adrp	x0, ffff00000008e000 <pool_slots+0x340>
ffff00000008386c:	912c6000 	add	x0, x0, #0xb18
ffff000000083870:	94000d63 	bl	ffff000000086dfc <uart_write_str_raw>
ffff000000083874:	f9400fe0 	ldr	x0, [sp, #24]
ffff000000083878:	94000d90 	bl	ffff000000086eb8 <uart_write_hex_raw>
ffff00000008387c:	14000000 	b	ffff00000008387c <default_handler+0x368>

ffff000000083880 <task_enqueue>:
ffff000000083880:	a9bb7bfd 	stp	x29, x30, [sp, #-80]!
ffff000000083884:	910003fd 	mov	x29, sp
ffff000000083888:	f90017e0 	str	x0, [sp, #40]
ffff00000008388c:	f90013e1 	str	x1, [sp, #32]
ffff000000083890:	b9001fe2 	str	w2, [sp, #28]
ffff000000083894:	f90027ff 	str	xzr, [sp, #72]
ffff000000083898:	b90047ff 	str	wzr, [sp, #68]
ffff00000008389c:	14000016 	b	ffff0000000838f4 <task_enqueue+0x74>
ffff0000000838a0:	90000080 	adrp	x0, ffff000000093000 <task_pool+0x6f8>
ffff0000000838a4:	91042000 	add	x0, x0, #0x108
ffff0000000838a8:	b98047e1 	ldrsw	x1, [sp, #68]
ffff0000000838ac:	b8617800 	ldr	w0, [x0, x1, lsl #2]
ffff0000000838b0:	7100001f 	cmp	w0, #0x0
ffff0000000838b4:	540001a1 	b.ne	ffff0000000838e8 <task_enqueue+0x68>  // b.any
ffff0000000838b8:	90000080 	adrp	x0, ffff000000093000 <task_pool+0x6f8>
ffff0000000838bc:	91042000 	add	x0, x0, #0x108
ffff0000000838c0:	b98047e1 	ldrsw	x1, [sp, #68]
ffff0000000838c4:	52800022 	mov	w2, #0x1                   	// #1
ffff0000000838c8:	b8217802 	str	w2, [x0, x1, lsl #2]
ffff0000000838cc:	b98047e0 	ldrsw	x0, [sp, #68]
ffff0000000838d0:	d37be801 	lsl	x1, x0, #5
ffff0000000838d4:	f0000060 	adrp	x0, ffff000000092000 <pool_slots+0xe38>
ffff0000000838d8:	91242000 	add	x0, x0, #0x908
ffff0000000838dc:	8b000020 	add	x0, x1, x0
ffff0000000838e0:	f90027e0 	str	x0, [sp, #72]
ffff0000000838e4:	14000007 	b	ffff000000083900 <task_enqueue+0x80>
ffff0000000838e8:	b94047e0 	ldr	w0, [sp, #68]
ffff0000000838ec:	11000400 	add	w0, w0, #0x1
ffff0000000838f0:	b90047e0 	str	w0, [sp, #68]
ffff0000000838f4:	b94047e0 	ldr	w0, [sp, #68]
ffff0000000838f8:	7100fc1f 	cmp	w0, #0x3f
ffff0000000838fc:	54fffd2d 	b.le	ffff0000000838a0 <task_enqueue+0x20>
ffff000000083900:	f94027e0 	ldr	x0, [sp, #72]
ffff000000083904:	f100001f 	cmp	x0, #0x0
ffff000000083908:	540000a1 	b.ne	ffff00000008391c <task_enqueue+0x9c>  // b.any
ffff00000008390c:	f0000040 	adrp	x0, ffff00000008e000 <pool_slots+0x340>
ffff000000083910:	912ca000 	add	x0, x0, #0xb28
ffff000000083914:	94000d3a 	bl	ffff000000086dfc <uart_write_str_raw>
ffff000000083918:	14000047 	b	ffff000000083a34 <task_enqueue+0x1b4>
ffff00000008391c:	f94027e0 	ldr	x0, [sp, #72]
ffff000000083920:	f94017e1 	ldr	x1, [sp, #40]
ffff000000083924:	f9000001 	str	x1, [x0]
ffff000000083928:	f94027e0 	ldr	x0, [sp, #72]
ffff00000008392c:	f94013e1 	ldr	x1, [sp, #32]
ffff000000083930:	f9000401 	str	x1, [x0, #8]
ffff000000083934:	f94027e0 	ldr	x0, [sp, #72]
ffff000000083938:	b9401fe1 	ldr	w1, [sp, #28]
ffff00000008393c:	b9001001 	str	w1, [x0, #16]
ffff000000083940:	f94027e0 	ldr	x0, [sp, #72]
ffff000000083944:	f9000c1f 	str	xzr, [x0, #24]
ffff000000083948:	90000080 	adrp	x0, ffff000000093000 <task_pool+0x6f8>
ffff00000008394c:	91082000 	add	x0, x0, #0x208
ffff000000083950:	f9400000 	ldr	x0, [x0]
ffff000000083954:	f100001f 	cmp	x0, #0x0
ffff000000083958:	54000100 	b.eq	ffff000000083978 <task_enqueue+0xf8>  // b.none
ffff00000008395c:	90000080 	adrp	x0, ffff000000093000 <task_pool+0x6f8>
ffff000000083960:	91082000 	add	x0, x0, #0x208
ffff000000083964:	f9400000 	ldr	x0, [x0]
ffff000000083968:	b9401000 	ldr	w0, [x0, #16]
ffff00000008396c:	b9401fe1 	ldr	w1, [sp, #28]
ffff000000083970:	6b00003f 	cmp	w1, w0
ffff000000083974:	5400016a 	b.ge	ffff0000000839a0 <task_enqueue+0x120>  // b.tcont
ffff000000083978:	90000080 	adrp	x0, ffff000000093000 <task_pool+0x6f8>
ffff00000008397c:	91082000 	add	x0, x0, #0x208
ffff000000083980:	f9400001 	ldr	x1, [x0]
ffff000000083984:	f94027e0 	ldr	x0, [sp, #72]
ffff000000083988:	f9000c01 	str	x1, [x0, #24]
ffff00000008398c:	90000080 	adrp	x0, ffff000000093000 <task_pool+0x6f8>
ffff000000083990:	91082000 	add	x0, x0, #0x208
ffff000000083994:	f94027e1 	ldr	x1, [sp, #72]
ffff000000083998:	f9000001 	str	x1, [x0]
ffff00000008399c:	1400001a 	b	ffff000000083a04 <task_enqueue+0x184>
ffff0000000839a0:	90000080 	adrp	x0, ffff000000093000 <task_pool+0x6f8>
ffff0000000839a4:	91082000 	add	x0, x0, #0x208
ffff0000000839a8:	f9400000 	ldr	x0, [x0]
ffff0000000839ac:	f9001fe0 	str	x0, [sp, #56]
ffff0000000839b0:	14000004 	b	ffff0000000839c0 <task_enqueue+0x140>
ffff0000000839b4:	f9401fe0 	ldr	x0, [sp, #56]
ffff0000000839b8:	f9400c00 	ldr	x0, [x0, #24]
ffff0000000839bc:	f9001fe0 	str	x0, [sp, #56]
ffff0000000839c0:	f9401fe0 	ldr	x0, [sp, #56]
ffff0000000839c4:	f9400c00 	ldr	x0, [x0, #24]
ffff0000000839c8:	f100001f 	cmp	x0, #0x0
ffff0000000839cc:	540000e0 	b.eq	ffff0000000839e8 <task_enqueue+0x168>  // b.none
ffff0000000839d0:	f9401fe0 	ldr	x0, [sp, #56]
ffff0000000839d4:	f9400c00 	ldr	x0, [x0, #24]
ffff0000000839d8:	b9401000 	ldr	w0, [x0, #16]
ffff0000000839dc:	b9401fe1 	ldr	w1, [sp, #28]
ffff0000000839e0:	6b00003f 	cmp	w1, w0
ffff0000000839e4:	54fffe8a 	b.ge	ffff0000000839b4 <task_enqueue+0x134>  // b.tcont
ffff0000000839e8:	f9401fe0 	ldr	x0, [sp, #56]
ffff0000000839ec:	f9400c01 	ldr	x1, [x0, #24]
ffff0000000839f0:	f94027e0 	ldr	x0, [sp, #72]
ffff0000000839f4:	f9000c01 	str	x1, [x0, #24]
ffff0000000839f8:	f9401fe0 	ldr	x0, [sp, #56]
ffff0000000839fc:	f94027e1 	ldr	x1, [sp, #72]
ffff000000083a00:	f9000c01 	str	x1, [x0, #24]
ffff000000083a04:	f0000060 	adrp	x0, ffff000000092000 <pool_slots+0xe38>
ffff000000083a08:	91240000 	add	x0, x0, #0x900
ffff000000083a0c:	b9400000 	ldr	w0, [x0]
ffff000000083a10:	7100001f 	cmp	w0, #0x0
ffff000000083a14:	54000100 	b.eq	ffff000000083a34 <task_enqueue+0x1b4>  // b.none
ffff000000083a18:	f0000060 	adrp	x0, ffff000000092000 <pool_slots+0xe38>
ffff000000083a1c:	911ce000 	add	x0, x0, #0x738
ffff000000083a20:	b9400000 	ldr	w0, [x0]
ffff000000083a24:	b9401fe1 	ldr	w1, [sp, #28]
ffff000000083a28:	6b00003f 	cmp	w1, w0
ffff000000083a2c:	5400004a 	b.ge	ffff000000083a34 <task_enqueue+0x1b4>  // b.tcont
ffff000000083a30:	9400003b 	bl	ffff000000083b1c <task_execute_one>
ffff000000083a34:	a8c57bfd 	ldp	x29, x30, [sp], #80
ffff000000083a38:	d65f03c0 	ret

ffff000000083a3c <task_execute_loop>:
ffff000000083a3c:	a9be7bfd 	stp	x29, x30, [sp, #-32]!
ffff000000083a40:	910003fd 	mov	x29, sp
ffff000000083a44:	1400002d 	b	ffff000000083af8 <task_execute_loop+0xbc>
ffff000000083a48:	97fffd67 	bl	ffff000000082fe4 <disable_interrupt>
ffff000000083a4c:	90000080 	adrp	x0, ffff000000093000 <task_pool+0x6f8>
ffff000000083a50:	91082000 	add	x0, x0, #0x208
ffff000000083a54:	f9400000 	ldr	x0, [x0]
ffff000000083a58:	f9000be0 	str	x0, [sp, #16]
ffff000000083a5c:	90000080 	adrp	x0, ffff000000093000 <task_pool+0x6f8>
ffff000000083a60:	91082000 	add	x0, x0, #0x208
ffff000000083a64:	f9400000 	ldr	x0, [x0]
ffff000000083a68:	f9400c01 	ldr	x1, [x0, #24]
ffff000000083a6c:	90000080 	adrp	x0, ffff000000093000 <task_pool+0x6f8>
ffff000000083a70:	91082000 	add	x0, x0, #0x208
ffff000000083a74:	f9000001 	str	x1, [x0]
ffff000000083a78:	b9001fff 	str	wzr, [sp, #28]
ffff000000083a7c:	14000011 	b	ffff000000083ac0 <task_execute_loop+0x84>
ffff000000083a80:	b9801fe0 	ldrsw	x0, [sp, #28]
ffff000000083a84:	d37be801 	lsl	x1, x0, #5
ffff000000083a88:	f0000060 	adrp	x0, ffff000000092000 <pool_slots+0xe38>
ffff000000083a8c:	91242000 	add	x0, x0, #0x908
ffff000000083a90:	8b000020 	add	x0, x1, x0
ffff000000083a94:	f9400be1 	ldr	x1, [sp, #16]
ffff000000083a98:	eb00003f 	cmp	x1, x0
ffff000000083a9c:	540000c1 	b.ne	ffff000000083ab4 <task_execute_loop+0x78>  // b.any
ffff000000083aa0:	90000080 	adrp	x0, ffff000000093000 <task_pool+0x6f8>
ffff000000083aa4:	91042000 	add	x0, x0, #0x108
ffff000000083aa8:	b9801fe1 	ldrsw	x1, [sp, #28]
ffff000000083aac:	b821781f 	str	wzr, [x0, x1, lsl #2]
ffff000000083ab0:	14000007 	b	ffff000000083acc <task_execute_loop+0x90>
ffff000000083ab4:	b9401fe0 	ldr	w0, [sp, #28]
ffff000000083ab8:	11000400 	add	w0, w0, #0x1
ffff000000083abc:	b9001fe0 	str	w0, [sp, #28]
ffff000000083ac0:	b9401fe0 	ldr	w0, [sp, #28]
ffff000000083ac4:	7100fc1f 	cmp	w0, #0x3f
ffff000000083ac8:	54fffdcd 	b.le	ffff000000083a80 <task_execute_loop+0x44>
ffff000000083acc:	f9400be0 	ldr	x0, [sp, #16]
ffff000000083ad0:	b9401001 	ldr	w1, [x0, #16]
ffff000000083ad4:	f0000060 	adrp	x0, ffff000000092000 <pool_slots+0xe38>
ffff000000083ad8:	911ce000 	add	x0, x0, #0x738
ffff000000083adc:	b9000001 	str	w1, [x0]
ffff000000083ae0:	97fffd3e 	bl	ffff000000082fd8 <enable_interrupt>
ffff000000083ae4:	f9400be0 	ldr	x0, [sp, #16]
ffff000000083ae8:	f9400001 	ldr	x1, [x0]
ffff000000083aec:	f9400be0 	ldr	x0, [sp, #16]
ffff000000083af0:	f9400400 	ldr	x0, [x0, #8]
ffff000000083af4:	d63f0020 	blr	x1
ffff000000083af8:	90000080 	adrp	x0, ffff000000093000 <task_pool+0x6f8>
ffff000000083afc:	91082000 	add	x0, x0, #0x208
ffff000000083b00:	f9400000 	ldr	x0, [x0]
ffff000000083b04:	f100001f 	cmp	x0, #0x0
ffff000000083b08:	54fffa01 	b.ne	ffff000000083a48 <task_execute_loop+0xc>  // b.any
ffff000000083b0c:	d503201f 	nop
ffff000000083b10:	d503201f 	nop
ffff000000083b14:	a8c27bfd 	ldp	x29, x30, [sp], #32
ffff000000083b18:	d65f03c0 	ret

ffff000000083b1c <task_execute_one>:
ffff000000083b1c:	a9be7bfd 	stp	x29, x30, [sp, #-32]!
ffff000000083b20:	910003fd 	mov	x29, sp
ffff000000083b24:	90000080 	adrp	x0, ffff000000093000 <task_pool+0x6f8>
ffff000000083b28:	91082000 	add	x0, x0, #0x208
ffff000000083b2c:	f9400000 	ldr	x0, [x0]
ffff000000083b30:	f100001f 	cmp	x0, #0x0
ffff000000083b34:	54000580 	b.eq	ffff000000083be4 <task_execute_one+0xc8>  // b.none
ffff000000083b38:	97fffd2b 	bl	ffff000000082fe4 <disable_interrupt>
ffff000000083b3c:	90000080 	adrp	x0, ffff000000093000 <task_pool+0x6f8>
ffff000000083b40:	91082000 	add	x0, x0, #0x208
ffff000000083b44:	f9400000 	ldr	x0, [x0]
ffff000000083b48:	f9000be0 	str	x0, [sp, #16]
ffff000000083b4c:	f9400be0 	ldr	x0, [sp, #16]
ffff000000083b50:	f9400c01 	ldr	x1, [x0, #24]
ffff000000083b54:	90000080 	adrp	x0, ffff000000093000 <task_pool+0x6f8>
ffff000000083b58:	91082000 	add	x0, x0, #0x208
ffff000000083b5c:	f9000001 	str	x1, [x0]
ffff000000083b60:	b9001fff 	str	wzr, [sp, #28]
ffff000000083b64:	14000011 	b	ffff000000083ba8 <task_execute_one+0x8c>
ffff000000083b68:	b9801fe0 	ldrsw	x0, [sp, #28]
ffff000000083b6c:	d37be801 	lsl	x1, x0, #5
ffff000000083b70:	f0000060 	adrp	x0, ffff000000092000 <pool_slots+0xe38>
ffff000000083b74:	91242000 	add	x0, x0, #0x908
ffff000000083b78:	8b000020 	add	x0, x1, x0
ffff000000083b7c:	f9400be1 	ldr	x1, [sp, #16]
ffff000000083b80:	eb00003f 	cmp	x1, x0
ffff000000083b84:	540000c1 	b.ne	ffff000000083b9c <task_execute_one+0x80>  // b.any
ffff000000083b88:	90000080 	adrp	x0, ffff000000093000 <task_pool+0x6f8>
ffff000000083b8c:	91042000 	add	x0, x0, #0x108
ffff000000083b90:	b9801fe1 	ldrsw	x1, [sp, #28]
ffff000000083b94:	b821781f 	str	wzr, [x0, x1, lsl #2]
ffff000000083b98:	14000007 	b	ffff000000083bb4 <task_execute_one+0x98>
ffff000000083b9c:	b9401fe0 	ldr	w0, [sp, #28]
ffff000000083ba0:	11000400 	add	w0, w0, #0x1
ffff000000083ba4:	b9001fe0 	str	w0, [sp, #28]
ffff000000083ba8:	b9401fe0 	ldr	w0, [sp, #28]
ffff000000083bac:	7100fc1f 	cmp	w0, #0x3f
ffff000000083bb0:	54fffdcd 	b.le	ffff000000083b68 <task_execute_one+0x4c>
ffff000000083bb4:	f9400be0 	ldr	x0, [sp, #16]
ffff000000083bb8:	b9401001 	ldr	w1, [x0, #16]
ffff000000083bbc:	f0000060 	adrp	x0, ffff000000092000 <pool_slots+0xe38>
ffff000000083bc0:	911ce000 	add	x0, x0, #0x738
ffff000000083bc4:	b9000001 	str	w1, [x0]
ffff000000083bc8:	97fffd04 	bl	ffff000000082fd8 <enable_interrupt>
ffff000000083bcc:	f9400be0 	ldr	x0, [sp, #16]
ffff000000083bd0:	f9400001 	ldr	x1, [x0]
ffff000000083bd4:	f9400be0 	ldr	x0, [sp, #16]
ffff000000083bd8:	f9400400 	ldr	x0, [x0, #8]
ffff000000083bdc:	d63f0020 	blr	x1
ffff000000083be0:	14000002 	b	ffff000000083be8 <task_execute_one+0xcc>
ffff000000083be4:	d503201f 	nop
ffff000000083be8:	a8c27bfd 	ldp	x29, x30, [sp], #32
ffff000000083bec:	d65f03c0 	ret

ffff000000083bf0 <mailbox_call>:
ffff000000083bf0:	d10083ff 	sub	sp, sp, #0x20
ffff000000083bf4:	39003fe0 	strb	w0, [sp, #15]
ffff000000083bf8:	f90003e1 	str	x1, [sp]
ffff000000083bfc:	f94003e0 	ldr	x0, [sp]
ffff000000083c00:	121c6c01 	and	w1, w0, #0xfffffff0
ffff000000083c04:	39403fe0 	ldrb	w0, [sp, #15]
ffff000000083c08:	12000c00 	and	w0, w0, #0xf
ffff000000083c0c:	2a000020 	orr	w0, w1, w0
ffff000000083c10:	b9001fe0 	str	w0, [sp, #28]
ffff000000083c14:	14000002 	b	ffff000000083c1c <mailbox_call+0x2c>
ffff000000083c18:	d503201f 	nop
ffff000000083c1c:	d2971300 	mov	x0, #0xb898                	// #47256
ffff000000083c20:	f2a7e000 	movk	x0, #0x3f00, lsl #16
ffff000000083c24:	f2ffffe0 	movk	x0, #0xffff, lsl #48
ffff000000083c28:	b9400000 	ldr	w0, [x0]
ffff000000083c2c:	7100001f 	cmp	w0, #0x0
ffff000000083c30:	54ffff4b 	b.lt	ffff000000083c18 <mailbox_call+0x28>  // b.tstop
ffff000000083c34:	d2971400 	mov	x0, #0xb8a0                	// #47264
ffff000000083c38:	f2a7e000 	movk	x0, #0x3f00, lsl #16
ffff000000083c3c:	f2ffffe0 	movk	x0, #0xffff, lsl #48
ffff000000083c40:	b9401fe1 	ldr	w1, [sp, #28]
ffff000000083c44:	b9000001 	str	w1, [x0]
ffff000000083c48:	14000002 	b	ffff000000083c50 <mailbox_call+0x60>
ffff000000083c4c:	d503201f 	nop
ffff000000083c50:	d2971300 	mov	x0, #0xb898                	// #47256
ffff000000083c54:	f2a7e000 	movk	x0, #0x3f00, lsl #16
ffff000000083c58:	f2ffffe0 	movk	x0, #0xffff, lsl #48
ffff000000083c5c:	b9400000 	ldr	w0, [x0]
ffff000000083c60:	12020000 	and	w0, w0, #0x40000000
ffff000000083c64:	7100001f 	cmp	w0, #0x0
ffff000000083c68:	54ffff21 	b.ne	ffff000000083c4c <mailbox_call+0x5c>  // b.any
ffff000000083c6c:	d2971000 	mov	x0, #0xb880                	// #47232
ffff000000083c70:	f2a7e000 	movk	x0, #0x3f00, lsl #16
ffff000000083c74:	f2ffffe0 	movk	x0, #0xffff, lsl #48
ffff000000083c78:	b9400000 	ldr	w0, [x0]
ffff000000083c7c:	b9401fe1 	ldr	w1, [sp, #28]
ffff000000083c80:	6b00003f 	cmp	w1, w0
ffff000000083c84:	54fffe61 	b.ne	ffff000000083c50 <mailbox_call+0x60>  // b.any
ffff000000083c88:	52800020 	mov	w0, #0x1                   	// #1
ffff000000083c8c:	910083ff 	add	sp, sp, #0x20
ffff000000083c90:	d65f03c0 	ret

ffff000000083c94 <get_board_info>:
ffff000000083c94:	a9b67bfd 	stp	x29, x30, [sp, #-160]!
ffff000000083c98:	910003fd 	mov	x29, sp
ffff000000083c9c:	52800400 	mov	w0, #0x20                  	// #32
ffff000000083ca0:	b90013e0 	str	w0, [sp, #16]
ffff000000083ca4:	b90017ff 	str	wzr, [sp, #20]
ffff000000083ca8:	52800040 	mov	w0, #0x2                   	// #2
ffff000000083cac:	72a00020 	movk	w0, #0x1, lsl #16
ffff000000083cb0:	b9001be0 	str	w0, [sp, #24]
ffff000000083cb4:	52800080 	mov	w0, #0x4                   	// #4
ffff000000083cb8:	b9001fe0 	str	w0, [sp, #28]
ffff000000083cbc:	b90023ff 	str	wzr, [sp, #32]
ffff000000083cc0:	b90027ff 	str	wzr, [sp, #36]
ffff000000083cc4:	528000a0 	mov	w0, #0x5                   	// #5
ffff000000083cc8:	72a00020 	movk	w0, #0x1, lsl #16
ffff000000083ccc:	b9002be0 	str	w0, [sp, #40]
ffff000000083cd0:	52800100 	mov	w0, #0x8                   	// #8
ffff000000083cd4:	b9002fe0 	str	w0, [sp, #44]
ffff000000083cd8:	b90033ff 	str	wzr, [sp, #48]
ffff000000083cdc:	b90037ff 	str	wzr, [sp, #52]
ffff000000083ce0:	b9003bff 	str	wzr, [sp, #56]
ffff000000083ce4:	b9003fff 	str	wzr, [sp, #60]
ffff000000083ce8:	910043e0 	add	x0, sp, #0x10
ffff000000083cec:	aa0003e1 	mov	x1, x0
ffff000000083cf0:	52800100 	mov	w0, #0x8                   	// #8
ffff000000083cf4:	97ffffbf 	bl	ffff000000083bf0 <mailbox_call>
ffff000000083cf8:	7100001f 	cmp	w0, #0x0
ffff000000083cfc:	540003a0 	b.eq	ffff000000083d70 <get_board_info+0xdc>  // b.none
ffff000000083d00:	f0000040 	adrp	x0, ffff00000008e000 <pool_slots+0x340>
ffff000000083d04:	912de000 	add	x0, x0, #0xb78
ffff000000083d08:	94000aed 	bl	ffff0000000868bc <uart_write_str>
ffff000000083d0c:	f0000040 	adrp	x0, ffff00000008e000 <pool_slots+0x340>
ffff000000083d10:	912e0000 	add	x0, x0, #0xb80
ffff000000083d14:	94000aea 	bl	ffff0000000868bc <uart_write_str>
ffff000000083d18:	b94027e0 	ldr	w0, [sp, #36]
ffff000000083d1c:	2a0003e0 	mov	w0, w0
ffff000000083d20:	94000c01 	bl	ffff000000086d24 <uart_write_hex>
ffff000000083d24:	f0000040 	adrp	x0, ffff00000008e000 <pool_slots+0x340>
ffff000000083d28:	912de000 	add	x0, x0, #0xb78
ffff000000083d2c:	94000ae4 	bl	ffff0000000868bc <uart_write_str>
ffff000000083d30:	f0000040 	adrp	x0, ffff00000008e000 <pool_slots+0x340>
ffff000000083d34:	912e6000 	add	x0, x0, #0xb98
ffff000000083d38:	94000ae1 	bl	ffff0000000868bc <uart_write_str>
ffff000000083d3c:	b94037e0 	ldr	w0, [sp, #52]
ffff000000083d40:	2a0003e0 	mov	w0, w0
ffff000000083d44:	94000bf8 	bl	ffff000000086d24 <uart_write_hex>
ffff000000083d48:	f0000040 	adrp	x0, ffff00000008e000 <pool_slots+0x340>
ffff000000083d4c:	912de000 	add	x0, x0, #0xb78
ffff000000083d50:	94000adb 	bl	ffff0000000868bc <uart_write_str>
ffff000000083d54:	f0000040 	adrp	x0, ffff00000008e000 <pool_slots+0x340>
ffff000000083d58:	912ee000 	add	x0, x0, #0xbb8
ffff000000083d5c:	94000ad8 	bl	ffff0000000868bc <uart_write_str>
ffff000000083d60:	b9403be0 	ldr	w0, [sp, #56]
ffff000000083d64:	2a0003e0 	mov	w0, w0
ffff000000083d68:	94000bef 	bl	ffff000000086d24 <uart_write_hex>
ffff000000083d6c:	14000004 	b	ffff000000083d7c <get_board_info+0xe8>
ffff000000083d70:	f0000040 	adrp	x0, ffff00000008e000 <pool_slots+0x340>
ffff000000083d74:	912f4000 	add	x0, x0, #0xbd0
ffff000000083d78:	94000ad1 	bl	ffff0000000868bc <uart_write_str>
ffff000000083d7c:	d503201f 	nop
ffff000000083d80:	a8ca7bfd 	ldp	x29, x30, [sp], #160
ffff000000083d84:	d65f03c0 	ret

ffff000000083d88 <mailbox_get_memory>:
ffff000000083d88:	a9b67bfd 	stp	x29, x30, [sp, #-160]!
ffff000000083d8c:	910003fd 	mov	x29, sp
ffff000000083d90:	52800380 	mov	w0, #0x1c                  	// #28
ffff000000083d94:	b90013e0 	str	w0, [sp, #16]
ffff000000083d98:	b90017ff 	str	wzr, [sp, #20]
ffff000000083d9c:	528000a0 	mov	w0, #0x5                   	// #5
ffff000000083da0:	72a00020 	movk	w0, #0x1, lsl #16
ffff000000083da4:	b9001be0 	str	w0, [sp, #24]
ffff000000083da8:	52800100 	mov	w0, #0x8                   	// #8
ffff000000083dac:	b9001fe0 	str	w0, [sp, #28]
ffff000000083db0:	b90023ff 	str	wzr, [sp, #32]
ffff000000083db4:	b90027ff 	str	wzr, [sp, #36]
ffff000000083db8:	b9002bff 	str	wzr, [sp, #40]
ffff000000083dbc:	b9002fff 	str	wzr, [sp, #44]
ffff000000083dc0:	910043e0 	add	x0, sp, #0x10
ffff000000083dc4:	aa0003e1 	mov	x1, x0
ffff000000083dc8:	52800100 	mov	w0, #0x8                   	// #8
ffff000000083dcc:	97ffff89 	bl	ffff000000083bf0 <mailbox_call>
ffff000000083dd0:	7100001f 	cmp	w0, #0x0
ffff000000083dd4:	54000180 	b.eq	ffff000000083e04 <mailbox_get_memory+0x7c>  // b.none
ffff000000083dd8:	b94027e0 	ldr	w0, [sp, #36]
ffff000000083ddc:	2a0003e1 	mov	w1, w0
ffff000000083de0:	90000080 	adrp	x0, ffff000000093000 <task_pool+0x6f8>
ffff000000083de4:	91084000 	add	x0, x0, #0x210
ffff000000083de8:	f9000001 	str	x1, [x0]
ffff000000083dec:	b9402be0 	ldr	w0, [sp, #40]
ffff000000083df0:	2a0003e1 	mov	w1, w0
ffff000000083df4:	90000080 	adrp	x0, ffff000000093000 <task_pool+0x6f8>
ffff000000083df8:	91086000 	add	x0, x0, #0x218
ffff000000083dfc:	f9000001 	str	x1, [x0]
ffff000000083e00:	14000004 	b	ffff000000083e10 <mailbox_get_memory+0x88>
ffff000000083e04:	f0000040 	adrp	x0, ffff00000008e000 <pool_slots+0x340>
ffff000000083e08:	912fa000 	add	x0, x0, #0xbe8
ffff000000083e0c:	94000aac 	bl	ffff0000000868bc <uart_write_str>
ffff000000083e10:	d503201f 	nop
ffff000000083e14:	a8ca7bfd 	ldp	x29, x30, [sp], #160
ffff000000083e18:	d65f03c0 	ret

ffff000000083e1c <init_framebuffer>:
ffff000000083e1c:	a9b47bfd 	stp	x29, x30, [sp, #-192]!
ffff000000083e20:	910003fd 	mov	x29, sp
ffff000000083e24:	f90017e0 	str	x0, [sp, #40]
ffff000000083e28:	b90027e1 	str	w1, [sp, #36]
ffff000000083e2c:	b90023e2 	str	w2, [sp, #32]
ffff000000083e30:	b9001fe3 	str	w3, [sp, #28]
ffff000000083e34:	b9001be4 	str	w4, [sp, #24]
ffff000000083e38:	52801180 	mov	w0, #0x8c                  	// #140
ffff000000083e3c:	b90033e0 	str	w0, [sp, #48]
ffff000000083e40:	b90037ff 	str	wzr, [sp, #52]
ffff000000083e44:	52900060 	mov	w0, #0x8003                	// #32771
ffff000000083e48:	72a00080 	movk	w0, #0x4, lsl #16
ffff000000083e4c:	b9003be0 	str	w0, [sp, #56]
ffff000000083e50:	52800100 	mov	w0, #0x8                   	// #8
ffff000000083e54:	b9003fe0 	str	w0, [sp, #60]
ffff000000083e58:	52800100 	mov	w0, #0x8                   	// #8
ffff000000083e5c:	b90043e0 	str	w0, [sp, #64]
ffff000000083e60:	b94027e0 	ldr	w0, [sp, #36]
ffff000000083e64:	b90047e0 	str	w0, [sp, #68]
ffff000000083e68:	b94023e0 	ldr	w0, [sp, #32]
ffff000000083e6c:	b9004be0 	str	w0, [sp, #72]
ffff000000083e70:	52900080 	mov	w0, #0x8004                	// #32772
ffff000000083e74:	72a00080 	movk	w0, #0x4, lsl #16
ffff000000083e78:	b9004fe0 	str	w0, [sp, #76]
ffff000000083e7c:	52800100 	mov	w0, #0x8                   	// #8
ffff000000083e80:	b90053e0 	str	w0, [sp, #80]
ffff000000083e84:	52800100 	mov	w0, #0x8                   	// #8
ffff000000083e88:	b90057e0 	str	w0, [sp, #84]
ffff000000083e8c:	b94027e0 	ldr	w0, [sp, #36]
ffff000000083e90:	b9005be0 	str	w0, [sp, #88]
ffff000000083e94:	b94023e0 	ldr	w0, [sp, #32]
ffff000000083e98:	b9005fe0 	str	w0, [sp, #92]
ffff000000083e9c:	529000a0 	mov	w0, #0x8005                	// #32773
ffff000000083ea0:	72a00080 	movk	w0, #0x4, lsl #16
ffff000000083ea4:	b90063e0 	str	w0, [sp, #96]
ffff000000083ea8:	52800100 	mov	w0, #0x8                   	// #8
ffff000000083eac:	b90067e0 	str	w0, [sp, #100]
ffff000000083eb0:	52800100 	mov	w0, #0x8                   	// #8
ffff000000083eb4:	b9006be0 	str	w0, [sp, #104]
ffff000000083eb8:	b9401fe0 	ldr	w0, [sp, #28]
ffff000000083ebc:	b9006fe0 	str	w0, [sp, #108]
ffff000000083ec0:	529000c0 	mov	w0, #0x8006                	// #32774
ffff000000083ec4:	72a00080 	movk	w0, #0x4, lsl #16
ffff000000083ec8:	b90073e0 	str	w0, [sp, #112]
ffff000000083ecc:	52800100 	mov	w0, #0x8                   	// #8
ffff000000083ed0:	b90077e0 	str	w0, [sp, #116]
ffff000000083ed4:	52800100 	mov	w0, #0x8                   	// #8
ffff000000083ed8:	b9007be0 	str	w0, [sp, #120]
ffff000000083edc:	b9401be0 	ldr	w0, [sp, #24]
ffff000000083ee0:	b9007fe0 	str	w0, [sp, #124]
ffff000000083ee4:	52800020 	mov	w0, #0x1                   	// #1
ffff000000083ee8:	72a00080 	movk	w0, #0x4, lsl #16
ffff000000083eec:	b90083e0 	str	w0, [sp, #128]
ffff000000083ef0:	52800100 	mov	w0, #0x8                   	// #8
ffff000000083ef4:	b90087e0 	str	w0, [sp, #132]
ffff000000083ef8:	52800100 	mov	w0, #0x8                   	// #8
ffff000000083efc:	b9008be0 	str	w0, [sp, #136]
ffff000000083f00:	52800200 	mov	w0, #0x10                  	// #16
ffff000000083f04:	b9008fe0 	str	w0, [sp, #140]
ffff000000083f08:	b90093ff 	str	wzr, [sp, #144]
ffff000000083f0c:	52800100 	mov	w0, #0x8                   	// #8
ffff000000083f10:	72a00080 	movk	w0, #0x4, lsl #16
ffff000000083f14:	b90097e0 	str	w0, [sp, #148]
ffff000000083f18:	52800080 	mov	w0, #0x4                   	// #4
ffff000000083f1c:	b9009be0 	str	w0, [sp, #152]
ffff000000083f20:	52800080 	mov	w0, #0x4                   	// #4
ffff000000083f24:	b9009fe0 	str	w0, [sp, #156]
ffff000000083f28:	b900a3ff 	str	wzr, [sp, #160]
ffff000000083f2c:	b900a7ff 	str	wzr, [sp, #164]
ffff000000083f30:	9100c3e0 	add	x0, sp, #0x30
ffff000000083f34:	aa0003e1 	mov	x1, x0
ffff000000083f38:	52800100 	mov	w0, #0x8                   	// #8
ffff000000083f3c:	97ffff2d 	bl	ffff000000083bf0 <mailbox_call>
ffff000000083f40:	7100001f 	cmp	w0, #0x0
ffff000000083f44:	540006a0 	b.eq	ffff000000084018 <init_framebuffer+0x1fc>  // b.none
ffff000000083f48:	b94083e0 	ldr	w0, [sp, #128]
ffff000000083f4c:	7100001f 	cmp	w0, #0x0
ffff000000083f50:	54000640 	b.eq	ffff000000084018 <init_framebuffer+0x1fc>  // b.none
ffff000000083f54:	b94047e1 	ldr	w1, [sp, #68]
ffff000000083f58:	f94017e0 	ldr	x0, [sp, #40]
ffff000000083f5c:	b9000001 	str	w1, [x0]
ffff000000083f60:	b9404be1 	ldr	w1, [sp, #72]
ffff000000083f64:	f94017e0 	ldr	x0, [sp, #40]
ffff000000083f68:	b9000401 	str	w1, [x0, #4]
ffff000000083f6c:	b940a3e1 	ldr	w1, [sp, #160]
ffff000000083f70:	f94017e0 	ldr	x0, [sp, #40]
ffff000000083f74:	b9000801 	str	w1, [x0, #8]
ffff000000083f78:	b9407fe0 	ldr	w0, [sp, #124]
ffff000000083f7c:	7100001f 	cmp	w0, #0x0
ffff000000083f80:	1a9f17e0 	cset	w0, eq  // eq = none
ffff000000083f84:	12001c00 	and	w0, w0, #0xff
ffff000000083f88:	2a0003e1 	mov	w1, w0
ffff000000083f8c:	f94017e0 	ldr	x0, [sp, #40]
ffff000000083f90:	b9000c01 	str	w1, [x0, #12]
ffff000000083f94:	b94093e0 	ldr	w0, [sp, #144]
ffff000000083f98:	2a0003e0 	mov	w0, w0
ffff000000083f9c:	92407400 	and	x0, x0, #0x3fffffff
ffff000000083fa0:	b2503c00 	orr	x0, x0, #0xffff000000000000
ffff000000083fa4:	aa0003e1 	mov	x1, x0
ffff000000083fa8:	f94017e0 	ldr	x0, [sp, #40]
ffff000000083fac:	f9000801 	str	x1, [x0, #16]
ffff000000083fb0:	f0000040 	adrp	x0, ffff00000008e000 <pool_slots+0x340>
ffff000000083fb4:	91306000 	add	x0, x0, #0xc18
ffff000000083fb8:	94000b91 	bl	ffff000000086dfc <uart_write_str_raw>
ffff000000083fbc:	f94017e0 	ldr	x0, [sp, #40]
ffff000000083fc0:	f9400800 	ldr	x0, [x0, #16]
ffff000000083fc4:	94000bbd 	bl	ffff000000086eb8 <uart_write_hex_raw>
ffff000000083fc8:	f0000040 	adrp	x0, ffff00000008e000 <pool_slots+0x340>
ffff000000083fcc:	9130e000 	add	x0, x0, #0xc38
ffff000000083fd0:	94000b8b 	bl	ffff000000086dfc <uart_write_str_raw>
ffff000000083fd4:	f94017e0 	ldr	x0, [sp, #40]
ffff000000083fd8:	b9400000 	ldr	w0, [x0]
ffff000000083fdc:	94000b9f 	bl	ffff000000086e58 <uart_write_int_raw>
ffff000000083fe0:	f0000040 	adrp	x0, ffff00000008e000 <pool_slots+0x340>
ffff000000083fe4:	91312000 	add	x0, x0, #0xc48
ffff000000083fe8:	94000b85 	bl	ffff000000086dfc <uart_write_str_raw>
ffff000000083fec:	f94017e0 	ldr	x0, [sp, #40]
ffff000000083ff0:	b9400400 	ldr	w0, [x0, #4]
ffff000000083ff4:	94000b99 	bl	ffff000000086e58 <uart_write_int_raw>
ffff000000083ff8:	f0000040 	adrp	x0, ffff00000008e000 <pool_slots+0x340>
ffff000000083ffc:	91316000 	add	x0, x0, #0xc58
ffff000000084000:	94000b7f 	bl	ffff000000086dfc <uart_write_str_raw>
ffff000000084004:	f94017e0 	ldr	x0, [sp, #40]
ffff000000084008:	b9400800 	ldr	w0, [x0, #8]
ffff00000008400c:	94000b93 	bl	ffff000000086e58 <uart_write_int_raw>
ffff000000084010:	52800000 	mov	w0, #0x0                   	// #0
ffff000000084014:	14000005 	b	ffff000000084028 <init_framebuffer+0x20c>
ffff000000084018:	d0000040 	adrp	x0, ffff00000008e000 <pool_slots+0x340>
ffff00000008401c:	9131a000 	add	x0, x0, #0xc68
ffff000000084020:	94000b77 	bl	ffff000000086dfc <uart_write_str_raw>
ffff000000084024:	12800000 	mov	w0, #0xffffffff            	// #-1
ffff000000084028:	a8cc7bfd 	ldp	x29, x30, [sp], #192
ffff00000008402c:	d65f03c0 	ret

ffff000000084030 <draw_pixel>:
ffff000000084030:	d100c3ff 	sub	sp, sp, #0x30
ffff000000084034:	f9000fe0 	str	x0, [sp, #24]
ffff000000084038:	b90017e1 	str	w1, [sp, #20]
ffff00000008403c:	b90013e2 	str	w2, [sp, #16]
ffff000000084040:	b9000fe3 	str	w3, [sp, #12]
ffff000000084044:	f9400fe0 	ldr	x0, [sp, #24]
ffff000000084048:	f9400801 	ldr	x1, [x0, #16]
ffff00000008404c:	f9400fe0 	ldr	x0, [sp, #24]
ffff000000084050:	b9400802 	ldr	w2, [x0, #8]
ffff000000084054:	b94013e0 	ldr	w0, [sp, #16]
ffff000000084058:	1b007c40 	mul	w0, w2, w0
ffff00000008405c:	2a0003e2 	mov	w2, w0
ffff000000084060:	b94017e0 	ldr	w0, [sp, #20]
ffff000000084064:	531e7400 	lsl	w0, w0, #2
ffff000000084068:	93407c00 	sxtw	x0, w0
ffff00000008406c:	8b000040 	add	x0, x2, x0
ffff000000084070:	8b000020 	add	x0, x1, x0
ffff000000084074:	f90017e0 	str	x0, [sp, #40]
ffff000000084078:	f94017e0 	ldr	x0, [sp, #40]
ffff00000008407c:	b9400fe1 	ldr	w1, [sp, #12]
ffff000000084080:	b9000001 	str	w1, [x0]
ffff000000084084:	d503201f 	nop
ffff000000084088:	9100c3ff 	add	sp, sp, #0x30
ffff00000008408c:	d65f03c0 	ret

ffff000000084090 <check_framebuffer>:
ffff000000084090:	a9b57bfd 	stp	x29, x30, [sp, #-176]!
ffff000000084094:	910003fd 	mov	x29, sp
ffff000000084098:	52800400 	mov	w0, #0x20                  	// #32
ffff00000008409c:	b90013e0 	str	w0, [sp, #16]
ffff0000000840a0:	b90017ff 	str	wzr, [sp, #20]
ffff0000000840a4:	52800020 	mov	w0, #0x1                   	// #1
ffff0000000840a8:	72a00080 	movk	w0, #0x4, lsl #16
ffff0000000840ac:	b9001be0 	str	w0, [sp, #24]
ffff0000000840b0:	52800100 	mov	w0, #0x8                   	// #8
ffff0000000840b4:	b9001fe0 	str	w0, [sp, #28]
ffff0000000840b8:	b90023ff 	str	wzr, [sp, #32]
ffff0000000840bc:	52800200 	mov	w0, #0x10                  	// #16
ffff0000000840c0:	b90027e0 	str	w0, [sp, #36]
ffff0000000840c4:	b9002bff 	str	wzr, [sp, #40]
ffff0000000840c8:	b9002fff 	str	wzr, [sp, #44]
ffff0000000840cc:	910043e0 	add	x0, sp, #0x10
ffff0000000840d0:	aa0003e1 	mov	x1, x0
ffff0000000840d4:	52800100 	mov	w0, #0x8                   	// #8
ffff0000000840d8:	97fffec6 	bl	ffff000000083bf0 <mailbox_call>
ffff0000000840dc:	7100001f 	cmp	w0, #0x0
ffff0000000840e0:	54000240 	b.eq	ffff000000084128 <check_framebuffer+0x98>  // b.none
ffff0000000840e4:	b94027e0 	ldr	w0, [sp, #36]
ffff0000000840e8:	b900afe0 	str	w0, [sp, #172]
ffff0000000840ec:	d0000040 	adrp	x0, ffff00000008e000 <pool_slots+0x340>
ffff0000000840f0:	91322000 	add	x0, x0, #0xc88
ffff0000000840f4:	94000b42 	bl	ffff000000086dfc <uart_write_str_raw>
ffff0000000840f8:	b940afe0 	ldr	w0, [sp, #172]
ffff0000000840fc:	94000b6f 	bl	ffff000000086eb8 <uart_write_hex_raw>
ffff000000084100:	b940afe0 	ldr	w0, [sp, #172]
ffff000000084104:	7100001f 	cmp	w0, #0x0
ffff000000084108:	540000a1 	b.ne	ffff00000008411c <check_framebuffer+0x8c>  // b.any
ffff00000008410c:	d0000040 	adrp	x0, ffff00000008e000 <pool_slots+0x340>
ffff000000084110:	91328000 	add	x0, x0, #0xca0
ffff000000084114:	94000b3a 	bl	ffff000000086dfc <uart_write_str_raw>
ffff000000084118:	14000004 	b	ffff000000084128 <check_framebuffer+0x98>
ffff00000008411c:	d0000040 	adrp	x0, ffff00000008e000 <pool_slots+0x340>
ffff000000084120:	9132e000 	add	x0, x0, #0xcb8
ffff000000084124:	94000b36 	bl	ffff000000086dfc <uart_write_str_raw>
ffff000000084128:	52800400 	mov	w0, #0x20                  	// #32
ffff00000008412c:	b90013e0 	str	w0, [sp, #16]
ffff000000084130:	b90017ff 	str	wzr, [sp, #20]
ffff000000084134:	52800060 	mov	w0, #0x3                   	// #3
ffff000000084138:	72a00080 	movk	w0, #0x4, lsl #16
ffff00000008413c:	b9001be0 	str	w0, [sp, #24]
ffff000000084140:	52800100 	mov	w0, #0x8                   	// #8
ffff000000084144:	b9001fe0 	str	w0, [sp, #28]
ffff000000084148:	b90023ff 	str	wzr, [sp, #32]
ffff00000008414c:	b90027ff 	str	wzr, [sp, #36]
ffff000000084150:	b9002bff 	str	wzr, [sp, #40]
ffff000000084154:	b9002fff 	str	wzr, [sp, #44]
ffff000000084158:	910043e0 	add	x0, sp, #0x10
ffff00000008415c:	aa0003e1 	mov	x1, x0
ffff000000084160:	52800100 	mov	w0, #0x8                   	// #8
ffff000000084164:	97fffea3 	bl	ffff000000083bf0 <mailbox_call>
ffff000000084168:	7100001f 	cmp	w0, #0x0
ffff00000008416c:	54000160 	b.eq	ffff000000084198 <check_framebuffer+0x108>  // b.none
ffff000000084170:	d0000040 	adrp	x0, ffff00000008e000 <pool_slots+0x340>
ffff000000084174:	91332000 	add	x0, x0, #0xcc8
ffff000000084178:	94000b21 	bl	ffff000000086dfc <uart_write_str_raw>
ffff00000008417c:	b94027e0 	ldr	w0, [sp, #36]
ffff000000084180:	94000b36 	bl	ffff000000086e58 <uart_write_int_raw>
ffff000000084184:	d0000040 	adrp	x0, ffff00000008e000 <pool_slots+0x340>
ffff000000084188:	9133a000 	add	x0, x0, #0xce8
ffff00000008418c:	94000b1c 	bl	ffff000000086dfc <uart_write_str_raw>
ffff000000084190:	b9402be0 	ldr	w0, [sp, #40]
ffff000000084194:	94000b31 	bl	ffff000000086e58 <uart_write_int_raw>
ffff000000084198:	52800400 	mov	w0, #0x20                  	// #32
ffff00000008419c:	b90013e0 	str	w0, [sp, #16]
ffff0000000841a0:	b90017ff 	str	wzr, [sp, #20]
ffff0000000841a4:	320e83e0 	mov	w0, #0x40004               	// #262148
ffff0000000841a8:	b9001be0 	str	w0, [sp, #24]
ffff0000000841ac:	52800100 	mov	w0, #0x8                   	// #8
ffff0000000841b0:	b9001fe0 	str	w0, [sp, #28]
ffff0000000841b4:	b90023ff 	str	wzr, [sp, #32]
ffff0000000841b8:	b90027ff 	str	wzr, [sp, #36]
ffff0000000841bc:	b9002bff 	str	wzr, [sp, #40]
ffff0000000841c0:	b9002fff 	str	wzr, [sp, #44]
ffff0000000841c4:	910043e0 	add	x0, sp, #0x10
ffff0000000841c8:	aa0003e1 	mov	x1, x0
ffff0000000841cc:	52800100 	mov	w0, #0x8                   	// #8
ffff0000000841d0:	97fffe88 	bl	ffff000000083bf0 <mailbox_call>
ffff0000000841d4:	7100001f 	cmp	w0, #0x0
ffff0000000841d8:	54000160 	b.eq	ffff000000084204 <check_framebuffer+0x174>  // b.none
ffff0000000841dc:	d0000040 	adrp	x0, ffff00000008e000 <pool_slots+0x340>
ffff0000000841e0:	9133e000 	add	x0, x0, #0xcf8
ffff0000000841e4:	94000b06 	bl	ffff000000086dfc <uart_write_str_raw>
ffff0000000841e8:	b94027e0 	ldr	w0, [sp, #36]
ffff0000000841ec:	94000b1b 	bl	ffff000000086e58 <uart_write_int_raw>
ffff0000000841f0:	d0000040 	adrp	x0, ffff00000008e000 <pool_slots+0x340>
ffff0000000841f4:	9133a000 	add	x0, x0, #0xce8
ffff0000000841f8:	94000b01 	bl	ffff000000086dfc <uart_write_str_raw>
ffff0000000841fc:	b9402be0 	ldr	w0, [sp, #40]
ffff000000084200:	94000b16 	bl	ffff000000086e58 <uart_write_int_raw>
ffff000000084204:	52800380 	mov	w0, #0x1c                  	// #28
ffff000000084208:	b90013e0 	str	w0, [sp, #16]
ffff00000008420c:	b90017ff 	str	wzr, [sp, #20]
ffff000000084210:	528000a0 	mov	w0, #0x5                   	// #5
ffff000000084214:	72a00080 	movk	w0, #0x4, lsl #16
ffff000000084218:	b9001be0 	str	w0, [sp, #24]
ffff00000008421c:	52800080 	mov	w0, #0x4                   	// #4
ffff000000084220:	b9001fe0 	str	w0, [sp, #28]
ffff000000084224:	b90023ff 	str	wzr, [sp, #32]
ffff000000084228:	b90027ff 	str	wzr, [sp, #36]
ffff00000008422c:	b9002bff 	str	wzr, [sp, #40]
ffff000000084230:	910043e0 	add	x0, sp, #0x10
ffff000000084234:	aa0003e1 	mov	x1, x0
ffff000000084238:	52800100 	mov	w0, #0x8                   	// #8
ffff00000008423c:	97fffe6d 	bl	ffff000000083bf0 <mailbox_call>
ffff000000084240:	7100001f 	cmp	w0, #0x0
ffff000000084244:	540000c0 	b.eq	ffff00000008425c <check_framebuffer+0x1cc>  // b.none
ffff000000084248:	d0000040 	adrp	x0, ffff00000008e000 <pool_slots+0x340>
ffff00000008424c:	91346000 	add	x0, x0, #0xd18
ffff000000084250:	94000aeb 	bl	ffff000000086dfc <uart_write_str_raw>
ffff000000084254:	b94027e0 	ldr	w0, [sp, #36]
ffff000000084258:	94000b00 	bl	ffff000000086e58 <uart_write_int_raw>
ffff00000008425c:	52800380 	mov	w0, #0x1c                  	// #28
ffff000000084260:	b90013e0 	str	w0, [sp, #16]
ffff000000084264:	b90017ff 	str	wzr, [sp, #20]
ffff000000084268:	528000c0 	mov	w0, #0x6                   	// #6
ffff00000008426c:	72a00080 	movk	w0, #0x4, lsl #16
ffff000000084270:	b9001be0 	str	w0, [sp, #24]
ffff000000084274:	52800080 	mov	w0, #0x4                   	// #4
ffff000000084278:	b9001fe0 	str	w0, [sp, #28]
ffff00000008427c:	b90023ff 	str	wzr, [sp, #32]
ffff000000084280:	b90027ff 	str	wzr, [sp, #36]
ffff000000084284:	b9002bff 	str	wzr, [sp, #40]
ffff000000084288:	910043e0 	add	x0, sp, #0x10
ffff00000008428c:	aa0003e1 	mov	x1, x0
ffff000000084290:	52800100 	mov	w0, #0x8                   	// #8
ffff000000084294:	97fffe57 	bl	ffff000000083bf0 <mailbox_call>
ffff000000084298:	7100001f 	cmp	w0, #0x0
ffff00000008429c:	54000340 	b.eq	ffff000000084304 <check_framebuffer+0x274>  // b.none
ffff0000000842a0:	d0000040 	adrp	x0, ffff00000008e000 <pool_slots+0x340>
ffff0000000842a4:	9134c000 	add	x0, x0, #0xd30
ffff0000000842a8:	94000ad5 	bl	ffff000000086dfc <uart_write_str_raw>
ffff0000000842ac:	b94027e0 	ldr	w0, [sp, #36]
ffff0000000842b0:	7100001f 	cmp	w0, #0x0
ffff0000000842b4:	540000a1 	b.ne	ffff0000000842c8 <check_framebuffer+0x238>  // b.any
ffff0000000842b8:	d0000040 	adrp	x0, ffff00000008e000 <pool_slots+0x340>
ffff0000000842bc:	91354000 	add	x0, x0, #0xd50
ffff0000000842c0:	94000acf 	bl	ffff000000086dfc <uart_write_str_raw>
ffff0000000842c4:	14000010 	b	ffff000000084304 <check_framebuffer+0x274>
ffff0000000842c8:	b94027e0 	ldr	w0, [sp, #36]
ffff0000000842cc:	7100041f 	cmp	w0, #0x1
ffff0000000842d0:	540000a1 	b.ne	ffff0000000842e4 <check_framebuffer+0x254>  // b.any
ffff0000000842d4:	d0000040 	adrp	x0, ffff00000008e000 <pool_slots+0x340>
ffff0000000842d8:	91356000 	add	x0, x0, #0xd58
ffff0000000842dc:	94000ac8 	bl	ffff000000086dfc <uart_write_str_raw>
ffff0000000842e0:	14000009 	b	ffff000000084304 <check_framebuffer+0x274>
ffff0000000842e4:	d0000040 	adrp	x0, ffff00000008e000 <pool_slots+0x340>
ffff0000000842e8:	91358000 	add	x0, x0, #0xd60
ffff0000000842ec:	94000ac4 	bl	ffff000000086dfc <uart_write_str_raw>
ffff0000000842f0:	b94027e0 	ldr	w0, [sp, #36]
ffff0000000842f4:	94000ad9 	bl	ffff000000086e58 <uart_write_int_raw>
ffff0000000842f8:	d0000040 	adrp	x0, ffff00000008e000 <pool_slots+0x340>
ffff0000000842fc:	9135c000 	add	x0, x0, #0xd70
ffff000000084300:	94000abf 	bl	ffff000000086dfc <uart_write_str_raw>
ffff000000084304:	52800380 	mov	w0, #0x1c                  	// #28
ffff000000084308:	b90013e0 	str	w0, [sp, #16]
ffff00000008430c:	b90017ff 	str	wzr, [sp, #20]
ffff000000084310:	52800100 	mov	w0, #0x8                   	// #8
ffff000000084314:	72a00080 	movk	w0, #0x4, lsl #16
ffff000000084318:	b9001be0 	str	w0, [sp, #24]
ffff00000008431c:	52800080 	mov	w0, #0x4                   	// #4
ffff000000084320:	b9001fe0 	str	w0, [sp, #28]
ffff000000084324:	b90023ff 	str	wzr, [sp, #32]
ffff000000084328:	b90027ff 	str	wzr, [sp, #36]
ffff00000008432c:	b9002bff 	str	wzr, [sp, #40]
ffff000000084330:	910043e0 	add	x0, sp, #0x10
ffff000000084334:	aa0003e1 	mov	x1, x0
ffff000000084338:	52800100 	mov	w0, #0x8                   	// #8
ffff00000008433c:	97fffe2d 	bl	ffff000000083bf0 <mailbox_call>
ffff000000084340:	7100001f 	cmp	w0, #0x0
ffff000000084344:	540000c0 	b.eq	ffff00000008435c <check_framebuffer+0x2cc>  // b.none
ffff000000084348:	d0000040 	adrp	x0, ffff00000008e000 <pool_slots+0x340>
ffff00000008434c:	9135e000 	add	x0, x0, #0xd78
ffff000000084350:	94000aab 	bl	ffff000000086dfc <uart_write_str_raw>
ffff000000084354:	b94027e0 	ldr	w0, [sp, #36]
ffff000000084358:	94000ac0 	bl	ffff000000086e58 <uart_write_int_raw>
ffff00000008435c:	d503201f 	nop
ffff000000084360:	a8cb7bfd 	ldp	x29, x30, [sp], #176
ffff000000084364:	d65f03c0 	ret

ffff000000084368 <draw_test_pattern>:
ffff000000084368:	a9b37bfd 	stp	x29, x30, [sp, #-208]!
ffff00000008436c:	910003fd 	mov	x29, sp
ffff000000084370:	52800400 	mov	w0, #0x20                  	// #32
ffff000000084374:	b90013e0 	str	w0, [sp, #16]
ffff000000084378:	b90017ff 	str	wzr, [sp, #20]
ffff00000008437c:	52800020 	mov	w0, #0x1                   	// #1
ffff000000084380:	72a00080 	movk	w0, #0x4, lsl #16
ffff000000084384:	b9001be0 	str	w0, [sp, #24]
ffff000000084388:	52800100 	mov	w0, #0x8                   	// #8
ffff00000008438c:	b9001fe0 	str	w0, [sp, #28]
ffff000000084390:	b90023ff 	str	wzr, [sp, #32]
ffff000000084394:	52800200 	mov	w0, #0x10                  	// #16
ffff000000084398:	b90027e0 	str	w0, [sp, #36]
ffff00000008439c:	b9002bff 	str	wzr, [sp, #40]
ffff0000000843a0:	b9002fff 	str	wzr, [sp, #44]
ffff0000000843a4:	910043e0 	add	x0, sp, #0x10
ffff0000000843a8:	aa0003e1 	mov	x1, x0
ffff0000000843ac:	52800100 	mov	w0, #0x8                   	// #8
ffff0000000843b0:	97fffe10 	bl	ffff000000083bf0 <mailbox_call>
ffff0000000843b4:	7100001f 	cmp	w0, #0x0
ffff0000000843b8:	540000a1 	b.ne	ffff0000000843cc <draw_test_pattern+0x64>  // b.any
ffff0000000843bc:	d0000040 	adrp	x0, ffff00000008e000 <pool_slots+0x340>
ffff0000000843c0:	91364000 	add	x0, x0, #0xd90
ffff0000000843c4:	94000a8e 	bl	ffff000000086dfc <uart_write_str_raw>
ffff0000000843c8:	14000093 	b	ffff000000084614 <draw_test_pattern+0x2ac>
ffff0000000843cc:	b94027e0 	ldr	w0, [sp, #36]
ffff0000000843d0:	12007400 	and	w0, w0, #0x3fffffff
ffff0000000843d4:	b900c3e0 	str	w0, [sp, #192]
ffff0000000843d8:	52800400 	mov	w0, #0x20                  	// #32
ffff0000000843dc:	b90013e0 	str	w0, [sp, #16]
ffff0000000843e0:	b90017ff 	str	wzr, [sp, #20]
ffff0000000843e4:	52800060 	mov	w0, #0x3                   	// #3
ffff0000000843e8:	72a00080 	movk	w0, #0x4, lsl #16
ffff0000000843ec:	b9001be0 	str	w0, [sp, #24]
ffff0000000843f0:	52800100 	mov	w0, #0x8                   	// #8
ffff0000000843f4:	b9001fe0 	str	w0, [sp, #28]
ffff0000000843f8:	b90023ff 	str	wzr, [sp, #32]
ffff0000000843fc:	b90027ff 	str	wzr, [sp, #36]
ffff000000084400:	b9002bff 	str	wzr, [sp, #40]
ffff000000084404:	b9002fff 	str	wzr, [sp, #44]
ffff000000084408:	910043e0 	add	x0, sp, #0x10
ffff00000008440c:	aa0003e1 	mov	x1, x0
ffff000000084410:	52800100 	mov	w0, #0x8                   	// #8
ffff000000084414:	97fffdf7 	bl	ffff000000083bf0 <mailbox_call>
ffff000000084418:	b94027e0 	ldr	w0, [sp, #36]
ffff00000008441c:	b900bfe0 	str	w0, [sp, #188]
ffff000000084420:	b9402be0 	ldr	w0, [sp, #40]
ffff000000084424:	b900bbe0 	str	w0, [sp, #184]
ffff000000084428:	52800380 	mov	w0, #0x1c                  	// #28
ffff00000008442c:	b90013e0 	str	w0, [sp, #16]
ffff000000084430:	b90017ff 	str	wzr, [sp, #20]
ffff000000084434:	52800100 	mov	w0, #0x8                   	// #8
ffff000000084438:	72a00080 	movk	w0, #0x4, lsl #16
ffff00000008443c:	b9001be0 	str	w0, [sp, #24]
ffff000000084440:	52800080 	mov	w0, #0x4                   	// #4
ffff000000084444:	b9001fe0 	str	w0, [sp, #28]
ffff000000084448:	b90023ff 	str	wzr, [sp, #32]
ffff00000008444c:	b90027ff 	str	wzr, [sp, #36]
ffff000000084450:	b9002bff 	str	wzr, [sp, #40]
ffff000000084454:	910043e0 	add	x0, sp, #0x10
ffff000000084458:	aa0003e1 	mov	x1, x0
ffff00000008445c:	52800100 	mov	w0, #0x8                   	// #8
ffff000000084460:	97fffde4 	bl	ffff000000083bf0 <mailbox_call>
ffff000000084464:	b94027e0 	ldr	w0, [sp, #36]
ffff000000084468:	b900b7e0 	str	w0, [sp, #180]
ffff00000008446c:	52800380 	mov	w0, #0x1c                  	// #28
ffff000000084470:	b90013e0 	str	w0, [sp, #16]
ffff000000084474:	b90017ff 	str	wzr, [sp, #20]
ffff000000084478:	528000c0 	mov	w0, #0x6                   	// #6
ffff00000008447c:	72a00080 	movk	w0, #0x4, lsl #16
ffff000000084480:	b9001be0 	str	w0, [sp, #24]
ffff000000084484:	52800080 	mov	w0, #0x4                   	// #4
ffff000000084488:	b9001fe0 	str	w0, [sp, #28]
ffff00000008448c:	b90023ff 	str	wzr, [sp, #32]
ffff000000084490:	b90027ff 	str	wzr, [sp, #36]
ffff000000084494:	b9002bff 	str	wzr, [sp, #40]
ffff000000084498:	910043e0 	add	x0, sp, #0x10
ffff00000008449c:	aa0003e1 	mov	x1, x0
ffff0000000844a0:	52800100 	mov	w0, #0x8                   	// #8
ffff0000000844a4:	97fffdd3 	bl	ffff000000083bf0 <mailbox_call>
ffff0000000844a8:	b94027e0 	ldr	w0, [sp, #36]
ffff0000000844ac:	b900b3e0 	str	w0, [sp, #176]
ffff0000000844b0:	b900cfff 	str	wzr, [sp, #204]
ffff0000000844b4:	14000051 	b	ffff0000000845f8 <draw_test_pattern+0x290>
ffff0000000844b8:	b940c3e1 	ldr	w1, [sp, #192]
ffff0000000844bc:	b940cfe2 	ldr	w2, [sp, #204]
ffff0000000844c0:	b940b7e0 	ldr	w0, [sp, #180]
ffff0000000844c4:	1b007c40 	mul	w0, w2, w0
ffff0000000844c8:	2a0003e0 	mov	w0, w0
ffff0000000844cc:	8b000020 	add	x0, x1, x0
ffff0000000844d0:	f90057e0 	str	x0, [sp, #168]
ffff0000000844d4:	b900cbff 	str	wzr, [sp, #200]
ffff0000000844d8:	14000041 	b	ffff0000000845dc <draw_test_pattern+0x274>
ffff0000000844dc:	b940cbe1 	ldr	w1, [sp, #200]
ffff0000000844e0:	2a0103e0 	mov	w0, w1
ffff0000000844e4:	531b6800 	lsl	w0, w0, #5
ffff0000000844e8:	4b010001 	sub	w1, w0, w1
ffff0000000844ec:	b940bfe0 	ldr	w0, [sp, #188]
ffff0000000844f0:	1ac00820 	udiv	w0, w1, w0
ffff0000000844f4:	39029fe0 	strb	w0, [sp, #167]
ffff0000000844f8:	b940cfe1 	ldr	w1, [sp, #204]
ffff0000000844fc:	2a0103e0 	mov	w0, w1
ffff000000084500:	531a6400 	lsl	w0, w0, #6
ffff000000084504:	4b010001 	sub	w1, w0, w1
ffff000000084508:	b940bbe0 	ldr	w0, [sp, #184]
ffff00000008450c:	1ac00820 	udiv	w0, w1, w0
ffff000000084510:	39029be0 	strb	w0, [sp, #166]
ffff000000084514:	b940cbe1 	ldr	w1, [sp, #200]
ffff000000084518:	b940cfe0 	ldr	w0, [sp, #204]
ffff00000008451c:	0b000021 	add	w1, w1, w0
ffff000000084520:	2a0103e0 	mov	w0, w1
ffff000000084524:	531b6800 	lsl	w0, w0, #5
ffff000000084528:	4b010001 	sub	w1, w0, w1
ffff00000008452c:	b940bfe2 	ldr	w2, [sp, #188]
ffff000000084530:	b940bbe0 	ldr	w0, [sp, #184]
ffff000000084534:	0b000040 	add	w0, w2, w0
ffff000000084538:	1ac00820 	udiv	w0, w1, w0
ffff00000008453c:	390297e0 	strb	w0, [sp, #165]
ffff000000084540:	b940b3e0 	ldr	w0, [sp, #176]
ffff000000084544:	7100001f 	cmp	w0, #0x0
ffff000000084548:	540001e1 	b.ne	ffff000000084584 <draw_test_pattern+0x21c>  // b.any
ffff00000008454c:	39429fe0 	ldrb	w0, [sp, #167]
ffff000000084550:	53155000 	lsl	w0, w0, #11
ffff000000084554:	13003c01 	sxth	w1, w0
ffff000000084558:	39429be0 	ldrb	w0, [sp, #166]
ffff00000008455c:	531b6800 	lsl	w0, w0, #5
ffff000000084560:	13003c00 	sxth	w0, w0
ffff000000084564:	2a000020 	orr	w0, w1, w0
ffff000000084568:	13003c01 	sxth	w1, w0
ffff00000008456c:	394297e0 	ldrb	w0, [sp, #165]
ffff000000084570:	13003c00 	sxth	w0, w0
ffff000000084574:	2a000020 	orr	w0, w1, w0
ffff000000084578:	13003c00 	sxth	w0, w0
ffff00000008457c:	79018fe0 	strh	w0, [sp, #198]
ffff000000084580:	1400000e 	b	ffff0000000845b8 <draw_test_pattern+0x250>
ffff000000084584:	394297e0 	ldrb	w0, [sp, #165]
ffff000000084588:	53155000 	lsl	w0, w0, #11
ffff00000008458c:	13003c01 	sxth	w1, w0
ffff000000084590:	39429be0 	ldrb	w0, [sp, #166]
ffff000000084594:	531b6800 	lsl	w0, w0, #5
ffff000000084598:	13003c00 	sxth	w0, w0
ffff00000008459c:	2a000020 	orr	w0, w1, w0
ffff0000000845a0:	13003c01 	sxth	w1, w0
ffff0000000845a4:	39429fe0 	ldrb	w0, [sp, #167]
ffff0000000845a8:	13003c00 	sxth	w0, w0
ffff0000000845ac:	2a000020 	orr	w0, w1, w0
ffff0000000845b0:	13003c00 	sxth	w0, w0
ffff0000000845b4:	79018fe0 	strh	w0, [sp, #198]
ffff0000000845b8:	b940cbe0 	ldr	w0, [sp, #200]
ffff0000000845bc:	d37ff800 	lsl	x0, x0, #1
ffff0000000845c0:	f94057e1 	ldr	x1, [sp, #168]
ffff0000000845c4:	8b000020 	add	x0, x1, x0
ffff0000000845c8:	79418fe1 	ldrh	w1, [sp, #198]
ffff0000000845cc:	79000001 	strh	w1, [x0]
ffff0000000845d0:	b940cbe0 	ldr	w0, [sp, #200]
ffff0000000845d4:	11000400 	add	w0, w0, #0x1
ffff0000000845d8:	b900cbe0 	str	w0, [sp, #200]
ffff0000000845dc:	b940cbe1 	ldr	w1, [sp, #200]
ffff0000000845e0:	b940bfe0 	ldr	w0, [sp, #188]
ffff0000000845e4:	6b00003f 	cmp	w1, w0
ffff0000000845e8:	54fff7a3 	b.cc	ffff0000000844dc <draw_test_pattern+0x174>  // b.lo, b.ul, b.last
ffff0000000845ec:	b940cfe0 	ldr	w0, [sp, #204]
ffff0000000845f0:	11000400 	add	w0, w0, #0x1
ffff0000000845f4:	b900cfe0 	str	w0, [sp, #204]
ffff0000000845f8:	b940cfe1 	ldr	w1, [sp, #204]
ffff0000000845fc:	b940bbe0 	ldr	w0, [sp, #184]
ffff000000084600:	6b00003f 	cmp	w1, w0
ffff000000084604:	54fff5a3 	b.cc	ffff0000000844b8 <draw_test_pattern+0x150>  // b.lo, b.ul, b.last
ffff000000084608:	d0000040 	adrp	x0, ffff00000008e000 <pool_slots+0x340>
ffff00000008460c:	9136e000 	add	x0, x0, #0xdb8
ffff000000084610:	940009fb 	bl	ffff000000086dfc <uart_write_str_raw>
ffff000000084614:	a8cd7bfd 	ldp	x29, x30, [sp], #208
ffff000000084618:	d65f03c0 	ret

ffff00000008461c <prase_number>:
ffff00000008461c:	a9bd7bfd 	stp	x29, x30, [sp, #-48]!
ffff000000084620:	910003fd 	mov	x29, sp
ffff000000084624:	f9000fe0 	str	x0, [sp, #24]
ffff000000084628:	14000004 	b	ffff000000084638 <prase_number+0x1c>
ffff00000008462c:	f9400fe0 	ldr	x0, [sp, #24]
ffff000000084630:	91000400 	add	x0, x0, #0x1
ffff000000084634:	f9000fe0 	str	x0, [sp, #24]
ffff000000084638:	f9400fe0 	ldr	x0, [sp, #24]
ffff00000008463c:	39400000 	ldrb	w0, [x0]
ffff000000084640:	7100001f 	cmp	w0, #0x0
ffff000000084644:	54000120 	b.eq	ffff000000084668 <prase_number+0x4c>  // b.none
ffff000000084648:	f9400fe0 	ldr	x0, [sp, #24]
ffff00000008464c:	39400000 	ldrb	w0, [x0]
ffff000000084650:	7100801f 	cmp	w0, #0x20
ffff000000084654:	54fffec1 	b.ne	ffff00000008462c <prase_number+0x10>  // b.any
ffff000000084658:	14000004 	b	ffff000000084668 <prase_number+0x4c>
ffff00000008465c:	f9400fe0 	ldr	x0, [sp, #24]
ffff000000084660:	91000400 	add	x0, x0, #0x1
ffff000000084664:	f9000fe0 	str	x0, [sp, #24]
ffff000000084668:	f9400fe0 	ldr	x0, [sp, #24]
ffff00000008466c:	39400000 	ldrb	w0, [x0]
ffff000000084670:	7100801f 	cmp	w0, #0x20
ffff000000084674:	54ffff40 	b.eq	ffff00000008465c <prase_number+0x40>  // b.none
ffff000000084678:	910083e0 	add	x0, sp, #0x20
ffff00000008467c:	52800002 	mov	w2, #0x0                   	// #0
ffff000000084680:	aa0003e1 	mov	x1, x0
ffff000000084684:	f9400fe0 	ldr	x0, [sp, #24]
ffff000000084688:	94001a1c 	bl	ffff00000008aef8 <strtol>
ffff00000008468c:	93407c00 	sxtw	x0, w0
ffff000000084690:	f90017e0 	str	x0, [sp, #40]
ffff000000084694:	f94017e0 	ldr	x0, [sp, #40]
ffff000000084698:	f100001f 	cmp	x0, #0x0
ffff00000008469c:	540000a0 	b.eq	ffff0000000846b0 <prase_number+0x94>  // b.none
ffff0000000846a0:	f94013e0 	ldr	x0, [sp, #32]
ffff0000000846a4:	39400000 	ldrb	w0, [x0]
ffff0000000846a8:	7100001f 	cmp	w0, #0x0
ffff0000000846ac:	54000060 	b.eq	ffff0000000846b8 <prase_number+0x9c>  // b.none
ffff0000000846b0:	d2800000 	mov	x0, #0x0                   	// #0
ffff0000000846b4:	14000002 	b	ffff0000000846bc <prase_number+0xa0>
ffff0000000846b8:	f94017e0 	ldr	x0, [sp, #40]
ffff0000000846bc:	a8c37bfd 	ldp	x29, x30, [sp], #48
ffff0000000846c0:	d65f03c0 	ret

ffff0000000846c4 <timeout_callback_log>:
ffff0000000846c4:	a9be7bfd 	stp	x29, x30, [sp, #-32]!
ffff0000000846c8:	910003fd 	mov	x29, sp
ffff0000000846cc:	f9000fe0 	str	x0, [sp, #24]
ffff0000000846d0:	d0000040 	adrp	x0, ffff00000008e000 <pool_slots+0x340>
ffff0000000846d4:	91384000 	add	x0, x0, #0xe10
ffff0000000846d8:	94000879 	bl	ffff0000000868bc <uart_write_str>
ffff0000000846dc:	f9400fe0 	ldr	x0, [sp, #24]
ffff0000000846e0:	94000877 	bl	ffff0000000868bc <uart_write_str>
ffff0000000846e4:	d503201f 	nop
ffff0000000846e8:	a8c27bfd 	ldp	x29, x30, [sp], #32
ffff0000000846ec:	d65f03c0 	ret

ffff0000000846f0 <parse_settimeout>:
ffff0000000846f0:	a9bc7bfd 	stp	x29, x30, [sp, #-64]!
ffff0000000846f4:	910003fd 	mov	x29, sp
ffff0000000846f8:	f9000fe0 	str	x0, [sp, #24]
ffff0000000846fc:	f9400fe0 	ldr	x0, [sp, #24]
ffff000000084700:	91002800 	add	x0, x0, #0xa
ffff000000084704:	f9001fe0 	str	x0, [sp, #56]
ffff000000084708:	14000004 	b	ffff000000084718 <parse_settimeout+0x28>
ffff00000008470c:	f9401fe0 	ldr	x0, [sp, #56]
ffff000000084710:	91000400 	add	x0, x0, #0x1
ffff000000084714:	f9001fe0 	str	x0, [sp, #56]
ffff000000084718:	f9401fe0 	ldr	x0, [sp, #56]
ffff00000008471c:	39400000 	ldrb	w0, [x0]
ffff000000084720:	7100801f 	cmp	w0, #0x20
ffff000000084724:	54ffff40 	b.eq	ffff00000008470c <parse_settimeout+0x1c>  // b.none
ffff000000084728:	f9401fe0 	ldr	x0, [sp, #56]
ffff00000008472c:	f9001be0 	str	x0, [sp, #48]
ffff000000084730:	14000004 	b	ffff000000084740 <parse_settimeout+0x50>
ffff000000084734:	f9401be0 	ldr	x0, [sp, #48]
ffff000000084738:	91000400 	add	x0, x0, #0x1
ffff00000008473c:	f9001be0 	str	x0, [sp, #48]
ffff000000084740:	f9401be0 	ldr	x0, [sp, #48]
ffff000000084744:	39400000 	ldrb	w0, [x0]
ffff000000084748:	7100001f 	cmp	w0, #0x0
ffff00000008474c:	540000a0 	b.eq	ffff000000084760 <parse_settimeout+0x70>  // b.none
ffff000000084750:	f9401be0 	ldr	x0, [sp, #48]
ffff000000084754:	39400000 	ldrb	w0, [x0]
ffff000000084758:	7100801f 	cmp	w0, #0x20
ffff00000008475c:	54fffec1 	b.ne	ffff000000084734 <parse_settimeout+0x44>  // b.any
ffff000000084760:	f9401be0 	ldr	x0, [sp, #48]
ffff000000084764:	39400000 	ldrb	w0, [x0]
ffff000000084768:	7100001f 	cmp	w0, #0x0
ffff00000008476c:	540000c0 	b.eq	ffff000000084784 <parse_settimeout+0x94>  // b.none
ffff000000084770:	f9401be0 	ldr	x0, [sp, #48]
ffff000000084774:	3900001f 	strb	wzr, [x0]
ffff000000084778:	f9401be0 	ldr	x0, [sp, #48]
ffff00000008477c:	91000400 	add	x0, x0, #0x1
ffff000000084780:	f9001be0 	str	x0, [sp, #48]
ffff000000084784:	b9002fff 	str	wzr, [sp, #44]
ffff000000084788:	1400000f 	b	ffff0000000847c4 <parse_settimeout+0xd4>
ffff00000008478c:	b9402fe1 	ldr	w1, [sp, #44]
ffff000000084790:	2a0103e0 	mov	w0, w1
ffff000000084794:	531e7400 	lsl	w0, w0, #2
ffff000000084798:	0b010000 	add	w0, w0, w1
ffff00000008479c:	531f7800 	lsl	w0, w0, #1
ffff0000000847a0:	2a0003e1 	mov	w1, w0
ffff0000000847a4:	f9401be0 	ldr	x0, [sp, #48]
ffff0000000847a8:	39400000 	ldrb	w0, [x0]
ffff0000000847ac:	0b000020 	add	w0, w1, w0
ffff0000000847b0:	5100c000 	sub	w0, w0, #0x30
ffff0000000847b4:	b9002fe0 	str	w0, [sp, #44]
ffff0000000847b8:	f9401be0 	ldr	x0, [sp, #48]
ffff0000000847bc:	91000400 	add	x0, x0, #0x1
ffff0000000847c0:	f9001be0 	str	x0, [sp, #48]
ffff0000000847c4:	f9401be0 	ldr	x0, [sp, #48]
ffff0000000847c8:	39400000 	ldrb	w0, [x0]
ffff0000000847cc:	7100bc1f 	cmp	w0, #0x2f
ffff0000000847d0:	540000a9 	b.ls	ffff0000000847e4 <parse_settimeout+0xf4>  // b.plast
ffff0000000847d4:	f9401be0 	ldr	x0, [sp, #48]
ffff0000000847d8:	39400000 	ldrb	w0, [x0]
ffff0000000847dc:	7100e41f 	cmp	w0, #0x39
ffff0000000847e0:	54fffd69 	b.ls	ffff00000008478c <parse_settimeout+0x9c>  // b.plast
ffff0000000847e4:	b9402fe1 	ldr	w1, [sp, #44]
ffff0000000847e8:	52807d00 	mov	w0, #0x3e8                 	// #1000
ffff0000000847ec:	1b007c20 	mul	w0, w1, w0
ffff0000000847f0:	b9002be0 	str	w0, [sp, #40]
ffff0000000847f4:	b9402be3 	ldr	w3, [sp, #40]
ffff0000000847f8:	f9401fe2 	ldr	x2, [sp, #56]
ffff0000000847fc:	d0000040 	adrp	x0, ffff00000008e000 <pool_slots+0x340>
ffff000000084800:	91388001 	add	x1, x0, #0xe20
ffff000000084804:	90000000 	adrp	x0, ffff000000084000 <init_framebuffer+0x1e4>
ffff000000084808:	911b1000 	add	x0, x0, #0x6c4
ffff00000008480c:	9400176b 	bl	ffff00000008a5b8 <add_timer>
ffff000000084810:	d503201f 	nop
ffff000000084814:	a8c47bfd 	ldp	x29, x30, [sp], #64
ffff000000084818:	d65f03c0 	ret

ffff00000008481c <print_help>:
ffff00000008481c:	a9bf7bfd 	stp	x29, x30, [sp, #-16]!
ffff000000084820:	910003fd 	mov	x29, sp
ffff000000084824:	f0000060 	adrp	x0, ffff000000093000 <task_pool+0x6f8>
ffff000000084828:	91088000 	add	x0, x0, #0x220
ffff00000008482c:	b9400000 	ldr	w0, [x0]
ffff000000084830:	7100001f 	cmp	w0, #0x0
ffff000000084834:	540009a1 	b.ne	ffff000000084968 <print_help+0x14c>  // b.any
ffff000000084838:	d0000040 	adrp	x0, ffff00000008e000 <pool_slots+0x340>
ffff00000008483c:	9138e000 	add	x0, x0, #0xe38
ffff000000084840:	9400081f 	bl	ffff0000000868bc <uart_write_str>
ffff000000084844:	d0000040 	adrp	x0, ffff00000008e000 <pool_slots+0x340>
ffff000000084848:	913a2000 	add	x0, x0, #0xe88
ffff00000008484c:	9400081c 	bl	ffff0000000868bc <uart_write_str>
ffff000000084850:	d0000040 	adrp	x0, ffff00000008e000 <pool_slots+0x340>
ffff000000084854:	913ae000 	add	x0, x0, #0xeb8
ffff000000084858:	94000819 	bl	ffff0000000868bc <uart_write_str>
ffff00000008485c:	d0000040 	adrp	x0, ffff00000008e000 <pool_slots+0x340>
ffff000000084860:	913ba000 	add	x0, x0, #0xee8
ffff000000084864:	94000816 	bl	ffff0000000868bc <uart_write_str>
ffff000000084868:	d0000040 	adrp	x0, ffff00000008e000 <pool_slots+0x340>
ffff00000008486c:	913c6000 	add	x0, x0, #0xf18
ffff000000084870:	94000813 	bl	ffff0000000868bc <uart_write_str>
ffff000000084874:	d0000040 	adrp	x0, ffff00000008e000 <pool_slots+0x340>
ffff000000084878:	913d2000 	add	x0, x0, #0xf48
ffff00000008487c:	94000810 	bl	ffff0000000868bc <uart_write_str>
ffff000000084880:	d0000040 	adrp	x0, ffff00000008e000 <pool_slots+0x340>
ffff000000084884:	913e6000 	add	x0, x0, #0xf98
ffff000000084888:	9400080d 	bl	ffff0000000868bc <uart_write_str>
ffff00000008488c:	d0000040 	adrp	x0, ffff00000008e000 <pool_slots+0x340>
ffff000000084890:	913f0000 	add	x0, x0, #0xfc0
ffff000000084894:	9400080a 	bl	ffff0000000868bc <uart_write_str>
ffff000000084898:	d0000040 	adrp	x0, ffff00000008e000 <pool_slots+0x340>
ffff00000008489c:	913fa000 	add	x0, x0, #0xfe8
ffff0000000848a0:	94000807 	bl	ffff0000000868bc <uart_write_str>
ffff0000000848a4:	f0000040 	adrp	x0, ffff00000008f000 <pool_slots+0x208>
ffff0000000848a8:	91006000 	add	x0, x0, #0x18
ffff0000000848ac:	94000804 	bl	ffff0000000868bc <uart_write_str>
ffff0000000848b0:	f0000040 	adrp	x0, ffff00000008f000 <pool_slots+0x208>
ffff0000000848b4:	9101a000 	add	x0, x0, #0x68
ffff0000000848b8:	94000801 	bl	ffff0000000868bc <uart_write_str>
ffff0000000848bc:	f0000040 	adrp	x0, ffff00000008f000 <pool_slots+0x208>
ffff0000000848c0:	9102e000 	add	x0, x0, #0xb8
ffff0000000848c4:	940007fe 	bl	ffff0000000868bc <uart_write_str>
ffff0000000848c8:	f0000040 	adrp	x0, ffff00000008f000 <pool_slots+0x208>
ffff0000000848cc:	9103e000 	add	x0, x0, #0xf8
ffff0000000848d0:	940007fb 	bl	ffff0000000868bc <uart_write_str>
ffff0000000848d4:	f0000040 	adrp	x0, ffff00000008f000 <pool_slots+0x208>
ffff0000000848d8:	91052000 	add	x0, x0, #0x148
ffff0000000848dc:	940007f8 	bl	ffff0000000868bc <uart_write_str>
ffff0000000848e0:	f0000040 	adrp	x0, ffff00000008f000 <pool_slots+0x208>
ffff0000000848e4:	9105e000 	add	x0, x0, #0x178
ffff0000000848e8:	940007f5 	bl	ffff0000000868bc <uart_write_str>
ffff0000000848ec:	f0000040 	adrp	x0, ffff00000008f000 <pool_slots+0x208>
ffff0000000848f0:	9106a000 	add	x0, x0, #0x1a8
ffff0000000848f4:	940007f2 	bl	ffff0000000868bc <uart_write_str>
ffff0000000848f8:	f0000040 	adrp	x0, ffff00000008f000 <pool_slots+0x208>
ffff0000000848fc:	9107e000 	add	x0, x0, #0x1f8
ffff000000084900:	940007ef 	bl	ffff0000000868bc <uart_write_str>
ffff000000084904:	f0000040 	adrp	x0, ffff00000008f000 <pool_slots+0x208>
ffff000000084908:	91090000 	add	x0, x0, #0x240
ffff00000008490c:	940007ec 	bl	ffff0000000868bc <uart_write_str>
ffff000000084910:	f0000040 	adrp	x0, ffff00000008f000 <pool_slots+0x208>
ffff000000084914:	9109c000 	add	x0, x0, #0x270
ffff000000084918:	940007e9 	bl	ffff0000000868bc <uart_write_str>
ffff00000008491c:	f0000040 	adrp	x0, ffff00000008f000 <pool_slots+0x208>
ffff000000084920:	910ac000 	add	x0, x0, #0x2b0
ffff000000084924:	940007e6 	bl	ffff0000000868bc <uart_write_str>
ffff000000084928:	f0000040 	adrp	x0, ffff00000008f000 <pool_slots+0x208>
ffff00000008492c:	910be000 	add	x0, x0, #0x2f8
ffff000000084930:	940007e3 	bl	ffff0000000868bc <uart_write_str>
ffff000000084934:	f0000040 	adrp	x0, ffff00000008f000 <pool_slots+0x208>
ffff000000084938:	910d4000 	add	x0, x0, #0x350
ffff00000008493c:	940007e0 	bl	ffff0000000868bc <uart_write_str>
ffff000000084940:	f0000040 	adrp	x0, ffff00000008f000 <pool_slots+0x208>
ffff000000084944:	910e8000 	add	x0, x0, #0x3a0
ffff000000084948:	940007dd 	bl	ffff0000000868bc <uart_write_str>
ffff00000008494c:	f0000040 	adrp	x0, ffff00000008f000 <pool_slots+0x208>
ffff000000084950:	910fa000 	add	x0, x0, #0x3e8
ffff000000084954:	940007da 	bl	ffff0000000868bc <uart_write_str>
ffff000000084958:	f0000040 	adrp	x0, ffff00000008f000 <pool_slots+0x208>
ffff00000008495c:	91110000 	add	x0, x0, #0x440
ffff000000084960:	940007d7 	bl	ffff0000000868bc <uart_write_str>
ffff000000084964:	14000049 	b	ffff000000084a88 <print_help+0x26c>
ffff000000084968:	d0000040 	adrp	x0, ffff00000008e000 <pool_slots+0x340>
ffff00000008496c:	9138e000 	add	x0, x0, #0xe38
ffff000000084970:	9400073f 	bl	ffff00000008666c <uart_write_str_async>
ffff000000084974:	d0000040 	adrp	x0, ffff00000008e000 <pool_slots+0x340>
ffff000000084978:	913a2000 	add	x0, x0, #0xe88
ffff00000008497c:	9400073c 	bl	ffff00000008666c <uart_write_str_async>
ffff000000084980:	d0000040 	adrp	x0, ffff00000008e000 <pool_slots+0x340>
ffff000000084984:	913ae000 	add	x0, x0, #0xeb8
ffff000000084988:	94000739 	bl	ffff00000008666c <uart_write_str_async>
ffff00000008498c:	d0000040 	adrp	x0, ffff00000008e000 <pool_slots+0x340>
ffff000000084990:	913ba000 	add	x0, x0, #0xee8
ffff000000084994:	94000736 	bl	ffff00000008666c <uart_write_str_async>
ffff000000084998:	d0000040 	adrp	x0, ffff00000008e000 <pool_slots+0x340>
ffff00000008499c:	913c6000 	add	x0, x0, #0xf18
ffff0000000849a0:	94000733 	bl	ffff00000008666c <uart_write_str_async>
ffff0000000849a4:	d0000040 	adrp	x0, ffff00000008e000 <pool_slots+0x340>
ffff0000000849a8:	913d2000 	add	x0, x0, #0xf48
ffff0000000849ac:	94000730 	bl	ffff00000008666c <uart_write_str_async>
ffff0000000849b0:	d0000040 	adrp	x0, ffff00000008e000 <pool_slots+0x340>
ffff0000000849b4:	913e6000 	add	x0, x0, #0xf98
ffff0000000849b8:	9400072d 	bl	ffff00000008666c <uart_write_str_async>
ffff0000000849bc:	d0000040 	adrp	x0, ffff00000008e000 <pool_slots+0x340>
ffff0000000849c0:	913f0000 	add	x0, x0, #0xfc0
ffff0000000849c4:	9400072a 	bl	ffff00000008666c <uart_write_str_async>
ffff0000000849c8:	d0000040 	adrp	x0, ffff00000008e000 <pool_slots+0x340>
ffff0000000849cc:	913fa000 	add	x0, x0, #0xfe8
ffff0000000849d0:	94000727 	bl	ffff00000008666c <uart_write_str_async>
ffff0000000849d4:	f0000040 	adrp	x0, ffff00000008f000 <pool_slots+0x208>
ffff0000000849d8:	91006000 	add	x0, x0, #0x18
ffff0000000849dc:	94000724 	bl	ffff00000008666c <uart_write_str_async>
ffff0000000849e0:	f0000040 	adrp	x0, ffff00000008f000 <pool_slots+0x208>
ffff0000000849e4:	91128000 	add	x0, x0, #0x4a0
ffff0000000849e8:	94000721 	bl	ffff00000008666c <uart_write_str_async>
ffff0000000849ec:	f0000040 	adrp	x0, ffff00000008f000 <pool_slots+0x208>
ffff0000000849f0:	9102e000 	add	x0, x0, #0xb8
ffff0000000849f4:	9400071e 	bl	ffff00000008666c <uart_write_str_async>
ffff0000000849f8:	f0000040 	adrp	x0, ffff00000008f000 <pool_slots+0x208>
ffff0000000849fc:	9103e000 	add	x0, x0, #0xf8
ffff000000084a00:	9400071b 	bl	ffff00000008666c <uart_write_str_async>
ffff000000084a04:	f0000040 	adrp	x0, ffff00000008f000 <pool_slots+0x208>
ffff000000084a08:	91052000 	add	x0, x0, #0x148
ffff000000084a0c:	94000718 	bl	ffff00000008666c <uart_write_str_async>
ffff000000084a10:	f0000040 	adrp	x0, ffff00000008f000 <pool_slots+0x208>
ffff000000084a14:	9113a000 	add	x0, x0, #0x4e8
ffff000000084a18:	94000715 	bl	ffff00000008666c <uart_write_str_async>
ffff000000084a1c:	f0000040 	adrp	x0, ffff00000008f000 <pool_slots+0x208>
ffff000000084a20:	9106a000 	add	x0, x0, #0x1a8
ffff000000084a24:	94000712 	bl	ffff00000008666c <uart_write_str_async>
ffff000000084a28:	f0000040 	adrp	x0, ffff00000008f000 <pool_slots+0x208>
ffff000000084a2c:	9107e000 	add	x0, x0, #0x1f8
ffff000000084a30:	9400070f 	bl	ffff00000008666c <uart_write_str_async>
ffff000000084a34:	f0000040 	adrp	x0, ffff00000008f000 <pool_slots+0x208>
ffff000000084a38:	91090000 	add	x0, x0, #0x240
ffff000000084a3c:	9400070c 	bl	ffff00000008666c <uart_write_str_async>
ffff000000084a40:	f0000040 	adrp	x0, ffff00000008f000 <pool_slots+0x208>
ffff000000084a44:	9109c000 	add	x0, x0, #0x270
ffff000000084a48:	94000709 	bl	ffff00000008666c <uart_write_str_async>
ffff000000084a4c:	f0000040 	adrp	x0, ffff00000008f000 <pool_slots+0x208>
ffff000000084a50:	910ac000 	add	x0, x0, #0x2b0
ffff000000084a54:	94000706 	bl	ffff00000008666c <uart_write_str_async>
ffff000000084a58:	f0000040 	adrp	x0, ffff00000008f000 <pool_slots+0x208>
ffff000000084a5c:	910be000 	add	x0, x0, #0x2f8
ffff000000084a60:	94000703 	bl	ffff00000008666c <uart_write_str_async>
ffff000000084a64:	f0000040 	adrp	x0, ffff00000008f000 <pool_slots+0x208>
ffff000000084a68:	910d4000 	add	x0, x0, #0x350
ffff000000084a6c:	94000700 	bl	ffff00000008666c <uart_write_str_async>
ffff000000084a70:	f0000040 	adrp	x0, ffff00000008f000 <pool_slots+0x208>
ffff000000084a74:	910e8000 	add	x0, x0, #0x3a0
ffff000000084a78:	940006fd 	bl	ffff00000008666c <uart_write_str_async>
ffff000000084a7c:	f0000040 	adrp	x0, ffff00000008f000 <pool_slots+0x208>
ffff000000084a80:	91144000 	add	x0, x0, #0x510
ffff000000084a84:	940006fa 	bl	ffff00000008666c <uart_write_str_async>
ffff000000084a88:	d503201f 	nop
ffff000000084a8c:	a8c17bfd 	ldp	x29, x30, [sp], #16
ffff000000084a90:	d65f03c0 	ret

ffff000000084a94 <async_on>:
ffff000000084a94:	a9bf7bfd 	stp	x29, x30, [sp, #-16]!
ffff000000084a98:	910003fd 	mov	x29, sp
ffff000000084a9c:	f0000060 	adrp	x0, ffff000000093000 <task_pool+0x6f8>
ffff000000084aa0:	91088000 	add	x0, x0, #0x220
ffff000000084aa4:	b9400000 	ldr	w0, [x0]
ffff000000084aa8:	7100001f 	cmp	w0, #0x0
ffff000000084aac:	54000141 	b.ne	ffff000000084ad4 <async_on+0x40>  // b.any
ffff000000084ab0:	f0000040 	adrp	x0, ffff00000008f000 <pool_slots+0x208>
ffff000000084ab4:	91154000 	add	x0, x0, #0x550
ffff000000084ab8:	94000781 	bl	ffff0000000868bc <uart_write_str>
ffff000000084abc:	94000500 	bl	ffff000000085ebc <enable_uart_interrupt>
ffff000000084ac0:	f0000060 	adrp	x0, ffff000000093000 <task_pool+0x6f8>
ffff000000084ac4:	91088000 	add	x0, x0, #0x220
ffff000000084ac8:	52800021 	mov	w1, #0x1                   	// #1
ffff000000084acc:	b9000001 	str	w1, [x0]
ffff000000084ad0:	14000004 	b	ffff000000084ae0 <async_on+0x4c>
ffff000000084ad4:	f0000040 	adrp	x0, ffff00000008f000 <pool_slots+0x208>
ffff000000084ad8:	9115c000 	add	x0, x0, #0x570
ffff000000084adc:	94000778 	bl	ffff0000000868bc <uart_write_str>
ffff000000084ae0:	d503201f 	nop
ffff000000084ae4:	a8c17bfd 	ldp	x29, x30, [sp], #16
ffff000000084ae8:	d65f03c0 	ret

ffff000000084aec <shell>:
ffff000000084aec:	d10943ff 	sub	sp, sp, #0x250
ffff000000084af0:	a9007bfd 	stp	x29, x30, [sp]
ffff000000084af4:	910003fd 	mov	x29, sp
ffff000000084af8:	f0000060 	adrp	x0, ffff000000093000 <task_pool+0x6f8>
ffff000000084afc:	91088000 	add	x0, x0, #0x220
ffff000000084b00:	b9400000 	ldr	w0, [x0]
ffff000000084b04:	7100001f 	cmp	w0, #0x0
ffff000000084b08:	540000e1 	b.ne	ffff000000084b24 <shell+0x38>  // b.any
ffff000000084b0c:	f0000040 	adrp	x0, ffff00000008f000 <pool_slots+0x208>
ffff000000084b10:	91162000 	add	x0, x0, #0x588
ffff000000084b14:	9400076a 	bl	ffff0000000868bc <uart_write_str>
ffff000000084b18:	910043e0 	add	x0, sp, #0x10
ffff000000084b1c:	94000731 	bl	ffff0000000867e0 <readcmd>
ffff000000084b20:	14000006 	b	ffff000000084b38 <shell+0x4c>
ffff000000084b24:	f0000040 	adrp	x0, ffff00000008f000 <pool_slots+0x208>
ffff000000084b28:	9116a000 	add	x0, x0, #0x5a8
ffff000000084b2c:	940006d0 	bl	ffff00000008666c <uart_write_str_async>
ffff000000084b30:	910043e0 	add	x0, sp, #0x10
ffff000000084b34:	9400068a 	bl	ffff00000008655c <readcmd_async>
ffff000000084b38:	910043e2 	add	x2, sp, #0x10
ffff000000084b3c:	f0000040 	adrp	x0, ffff00000008f000 <pool_slots+0x208>
ffff000000084b40:	91172001 	add	x1, x0, #0x5c8
ffff000000084b44:	aa0203e0 	mov	x0, x2
ffff000000084b48:	940018a2 	bl	ffff00000008add0 <strcmp>
ffff000000084b4c:	7100001f 	cmp	w0, #0x0
ffff000000084b50:	54000060 	b.eq	ffff000000084b5c <shell+0x70>  // b.none
ffff000000084b54:	97ffff32 	bl	ffff00000008481c <print_help>
ffff000000084b58:	17ffffe8 	b	ffff000000084af8 <shell+0xc>
ffff000000084b5c:	910043e2 	add	x2, sp, #0x10
ffff000000084b60:	f0000040 	adrp	x0, ffff00000008f000 <pool_slots+0x208>
ffff000000084b64:	91174001 	add	x1, x0, #0x5d0
ffff000000084b68:	aa0203e0 	mov	x0, x2
ffff000000084b6c:	94001899 	bl	ffff00000008add0 <strcmp>
ffff000000084b70:	7100001f 	cmp	w0, #0x0
ffff000000084b74:	540000a0 	b.eq	ffff000000084b88 <shell+0x9c>  // b.none
ffff000000084b78:	f0000040 	adrp	x0, ffff00000008f000 <pool_slots+0x208>
ffff000000084b7c:	91176000 	add	x0, x0, #0x5d8
ffff000000084b80:	9400074f 	bl	ffff0000000868bc <uart_write_str>
ffff000000084b84:	17ffffdd 	b	ffff000000084af8 <shell+0xc>
ffff000000084b88:	910043e2 	add	x2, sp, #0x10
ffff000000084b8c:	f0000040 	adrp	x0, ffff00000008f000 <pool_slots+0x208>
ffff000000084b90:	9117a001 	add	x1, x0, #0x5e8
ffff000000084b94:	aa0203e0 	mov	x0, x2
ffff000000084b98:	9400188e 	bl	ffff00000008add0 <strcmp>
ffff000000084b9c:	7100001f 	cmp	w0, #0x0
ffff000000084ba0:	54000060 	b.eq	ffff000000084bac <shell+0xc0>  // b.none
ffff000000084ba4:	97fffc3c 	bl	ffff000000083c94 <get_board_info>
ffff000000084ba8:	17ffffd4 	b	ffff000000084af8 <shell+0xc>
ffff000000084bac:	910043e2 	add	x2, sp, #0x10
ffff000000084bb0:	f0000040 	adrp	x0, ffff00000008f000 <pool_slots+0x208>
ffff000000084bb4:	9117c001 	add	x1, x0, #0x5f0
ffff000000084bb8:	aa0203e0 	mov	x0, x2
ffff000000084bbc:	94001885 	bl	ffff00000008add0 <strcmp>
ffff000000084bc0:	7100001f 	cmp	w0, #0x0
ffff000000084bc4:	540000e0 	b.eq	ffff000000084be0 <shell+0xf4>  // b.none
ffff000000084bc8:	f0000040 	adrp	x0, ffff00000008f000 <pool_slots+0x208>
ffff000000084bcc:	9117e000 	add	x0, x0, #0x5f8
ffff000000084bd0:	9400073b 	bl	ffff0000000868bc <uart_write_str>
ffff000000084bd4:	52801900 	mov	w0, #0xc8                  	// #200
ffff000000084bd8:	94000bd0 	bl	ffff000000087b18 <reset>
ffff000000084bdc:	14000152 	b	ffff000000085124 <shell+0x638>
ffff000000084be0:	910043e3 	add	x3, sp, #0x10
ffff000000084be4:	d2800062 	mov	x2, #0x3                   	// #3
ffff000000084be8:	f0000040 	adrp	x0, ffff00000008f000 <pool_slots+0x208>
ffff000000084bec:	91182001 	add	x1, x0, #0x608
ffff000000084bf0:	aa0303e0 	mov	x0, x3
ffff000000084bf4:	9400183e 	bl	ffff00000008acec <memcmp>
ffff000000084bf8:	7100001f 	cmp	w0, #0x0
ffff000000084bfc:	54000541 	b.ne	ffff000000084ca4 <shell+0x1b8>  // b.any
ffff000000084c00:	52800080 	mov	w0, #0x4                   	// #4
ffff000000084c04:	b9024fe0 	str	w0, [sp, #588]
ffff000000084c08:	b9024bff 	str	wzr, [sp, #584]
ffff000000084c0c:	52800020 	mov	w0, #0x1                   	// #1
ffff000000084c10:	b9021be0 	str	w0, [sp, #536]
ffff000000084c14:	1400000d 	b	ffff000000084c48 <shell+0x15c>
ffff000000084c18:	b9424fe1 	ldr	w1, [sp, #588]
ffff000000084c1c:	11000420 	add	w0, w1, #0x1
ffff000000084c20:	b9024fe0 	str	w0, [sp, #588]
ffff000000084c24:	b9424be0 	ldr	w0, [sp, #584]
ffff000000084c28:	11000402 	add	w2, w0, #0x1
ffff000000084c2c:	b9024be2 	str	w2, [sp, #584]
ffff000000084c30:	93407c21 	sxtw	x1, w1
ffff000000084c34:	910043e2 	add	x2, sp, #0x10
ffff000000084c38:	38616842 	ldrb	w2, [x2, x1]
ffff000000084c3c:	93407c00 	sxtw	x0, w0
ffff000000084c40:	910443e1 	add	x1, sp, #0x110
ffff000000084c44:	38206822 	strb	w2, [x1, x0]
ffff000000084c48:	b9824fe0 	ldrsw	x0, [sp, #588]
ffff000000084c4c:	910043e1 	add	x1, sp, #0x10
ffff000000084c50:	38606820 	ldrb	w0, [x1, x0]
ffff000000084c54:	7100001f 	cmp	w0, #0x0
ffff000000084c58:	540000c0 	b.eq	ffff000000084c70 <shell+0x184>  // b.none
ffff000000084c5c:	b9824fe0 	ldrsw	x0, [sp, #588]
ffff000000084c60:	910043e1 	add	x1, sp, #0x10
ffff000000084c64:	38606820 	ldrb	w0, [x1, x0]
ffff000000084c68:	7100801f 	cmp	w0, #0x20
ffff000000084c6c:	54fffd61 	b.ne	ffff000000084c18 <shell+0x12c>  // b.any
ffff000000084c70:	b9824be0 	ldrsw	x0, [sp, #584]
ffff000000084c74:	910443e1 	add	x1, sp, #0x110
ffff000000084c78:	3820683f 	strb	wzr, [x1, x0]
ffff000000084c7c:	910443e0 	add	x0, sp, #0x110
ffff000000084c80:	97fff310 	bl	ffff0000000818c0 <cpio_cat>
ffff000000084c84:	b9021be0 	str	w0, [sp, #536]
ffff000000084c88:	b9421be0 	ldr	w0, [sp, #536]
ffff000000084c8c:	7100001f 	cmp	w0, #0x0
ffff000000084c90:	54fff341 	b.ne	ffff000000084af8 <shell+0xc>  // b.any
ffff000000084c94:	f0000040 	adrp	x0, ffff00000008f000 <pool_slots+0x208>
ffff000000084c98:	91184000 	add	x0, x0, #0x610
ffff000000084c9c:	94000708 	bl	ffff0000000868bc <uart_write_str>
ffff000000084ca0:	17ffff96 	b	ffff000000084af8 <shell+0xc>
ffff000000084ca4:	910043e2 	add	x2, sp, #0x10
ffff000000084ca8:	f0000040 	adrp	x0, ffff00000008f000 <pool_slots+0x208>
ffff000000084cac:	91188001 	add	x1, x0, #0x620
ffff000000084cb0:	aa0203e0 	mov	x0, x2
ffff000000084cb4:	94001847 	bl	ffff00000008add0 <strcmp>
ffff000000084cb8:	7100001f 	cmp	w0, #0x0
ffff000000084cbc:	54000060 	b.eq	ffff000000084cc8 <shell+0x1dc>  // b.none
ffff000000084cc0:	97fff2a4 	bl	ffff000000081750 <cpio_ls>
ffff000000084cc4:	17ffff8d 	b	ffff000000084af8 <shell+0xc>
ffff000000084cc8:	910043e3 	add	x3, sp, #0x10
ffff000000084ccc:	d2800082 	mov	x2, #0x4                   	// #4
ffff000000084cd0:	f0000040 	adrp	x0, ffff00000008f000 <pool_slots+0x208>
ffff000000084cd4:	9118a001 	add	x1, x0, #0x628
ffff000000084cd8:	aa0303e0 	mov	x0, x3
ffff000000084cdc:	94001804 	bl	ffff00000008acec <memcmp>
ffff000000084ce0:	7100001f 	cmp	w0, #0x0
ffff000000084ce4:	54000541 	b.ne	ffff000000084d8c <shell+0x2a0>  // b.any
ffff000000084ce8:	528000a0 	mov	w0, #0x5                   	// #5
ffff000000084cec:	b90247e0 	str	w0, [sp, #580]
ffff000000084cf0:	b90243ff 	str	wzr, [sp, #576]
ffff000000084cf4:	52800020 	mov	w0, #0x1                   	// #1
ffff000000084cf8:	b9021fe0 	str	w0, [sp, #540]
ffff000000084cfc:	1400000d 	b	ffff000000084d30 <shell+0x244>
ffff000000084d00:	b94247e1 	ldr	w1, [sp, #580]
ffff000000084d04:	11000420 	add	w0, w1, #0x1
ffff000000084d08:	b90247e0 	str	w0, [sp, #580]
ffff000000084d0c:	b94243e0 	ldr	w0, [sp, #576]
ffff000000084d10:	11000402 	add	w2, w0, #0x1
ffff000000084d14:	b90243e2 	str	w2, [sp, #576]
ffff000000084d18:	93407c21 	sxtw	x1, w1
ffff000000084d1c:	910043e2 	add	x2, sp, #0x10
ffff000000084d20:	38616842 	ldrb	w2, [x2, x1]
ffff000000084d24:	93407c00 	sxtw	x0, w0
ffff000000084d28:	910443e1 	add	x1, sp, #0x110
ffff000000084d2c:	38206822 	strb	w2, [x1, x0]
ffff000000084d30:	b98247e0 	ldrsw	x0, [sp, #580]
ffff000000084d34:	910043e1 	add	x1, sp, #0x10
ffff000000084d38:	38606820 	ldrb	w0, [x1, x0]
ffff000000084d3c:	7100001f 	cmp	w0, #0x0
ffff000000084d40:	540000c0 	b.eq	ffff000000084d58 <shell+0x26c>  // b.none
ffff000000084d44:	b98247e0 	ldrsw	x0, [sp, #580]
ffff000000084d48:	910043e1 	add	x1, sp, #0x10
ffff000000084d4c:	38606820 	ldrb	w0, [x1, x0]
ffff000000084d50:	7100801f 	cmp	w0, #0x20
ffff000000084d54:	54fffd61 	b.ne	ffff000000084d00 <shell+0x214>  // b.any
ffff000000084d58:	b98243e0 	ldrsw	x0, [sp, #576]
ffff000000084d5c:	910443e1 	add	x1, sp, #0x110
ffff000000084d60:	3820683f 	strb	wzr, [x1, x0]
ffff000000084d64:	910443e0 	add	x0, sp, #0x110
ffff000000084d68:	97fff3b9 	bl	ffff000000081c4c <cpio_exec_user_program>
ffff000000084d6c:	b9021fe0 	str	w0, [sp, #540]
ffff000000084d70:	b9421fe0 	ldr	w0, [sp, #540]
ffff000000084d74:	7100001f 	cmp	w0, #0x0
ffff000000084d78:	54ffec01 	b.ne	ffff000000084af8 <shell+0xc>  // b.any
ffff000000084d7c:	f0000040 	adrp	x0, ffff00000008f000 <pool_slots+0x208>
ffff000000084d80:	9118c000 	add	x0, x0, #0x630
ffff000000084d84:	940006ce 	bl	ffff0000000868bc <uart_write_str>
ffff000000084d88:	17ffff5c 	b	ffff000000084af8 <shell+0xc>
ffff000000084d8c:	910043e3 	add	x3, sp, #0x10
ffff000000084d90:	d2800142 	mov	x2, #0xa                   	// #10
ffff000000084d94:	f0000040 	adrp	x0, ffff00000008f000 <pool_slots+0x208>
ffff000000084d98:	91192001 	add	x1, x0, #0x648
ffff000000084d9c:	aa0303e0 	mov	x0, x3
ffff000000084da0:	940017d3 	bl	ffff00000008acec <memcmp>
ffff000000084da4:	7100001f 	cmp	w0, #0x0
ffff000000084da8:	54000081 	b.ne	ffff000000084db8 <shell+0x2cc>  // b.any
ffff000000084dac:	910043e0 	add	x0, sp, #0x10
ffff000000084db0:	97fffe50 	bl	ffff0000000846f0 <parse_settimeout>
ffff000000084db4:	17ffff51 	b	ffff000000084af8 <shell+0xc>
ffff000000084db8:	910043e2 	add	x2, sp, #0x10
ffff000000084dbc:	f0000040 	adrp	x0, ffff00000008f000 <pool_slots+0x208>
ffff000000084dc0:	91196001 	add	x1, x0, #0x658
ffff000000084dc4:	aa0203e0 	mov	x0, x2
ffff000000084dc8:	94001802 	bl	ffff00000008add0 <strcmp>
ffff000000084dcc:	7100001f 	cmp	w0, #0x0
ffff000000084dd0:	540001e0 	b.eq	ffff000000084e0c <shell+0x320>  // b.none
ffff000000084dd4:	9400043a 	bl	ffff000000085ebc <enable_uart_interrupt>
ffff000000084dd8:	f0000040 	adrp	x0, ffff00000008f000 <pool_slots+0x208>
ffff000000084ddc:	91198000 	add	x0, x0, #0x660
ffff000000084de0:	94000623 	bl	ffff00000008666c <uart_write_str_async>
ffff000000084de4:	910443e0 	add	x0, sp, #0x110
ffff000000084de8:	940005dd 	bl	ffff00000008655c <readcmd_async>
ffff000000084dec:	f0000040 	adrp	x0, ffff00000008f000 <pool_slots+0x208>
ffff000000084df0:	9119e000 	add	x0, x0, #0x678
ffff000000084df4:	9400061e 	bl	ffff00000008666c <uart_write_str_async>
ffff000000084df8:	910443e0 	add	x0, sp, #0x110
ffff000000084dfc:	9400061c 	bl	ffff00000008666c <uart_write_str_async>
ffff000000084e00:	94000632 	bl	ffff0000000866c8 <uart_write_flush>
ffff000000084e04:	94000450 	bl	ffff000000085f44 <disable_uart_interrupt>
ffff000000084e08:	17ffff3c 	b	ffff000000084af8 <shell+0xc>
ffff000000084e0c:	910043e3 	add	x3, sp, #0x10
ffff000000084e10:	d2800142 	mov	x2, #0xa                   	// #10
ffff000000084e14:	f0000040 	adrp	x0, ffff00000008f000 <pool_slots+0x208>
ffff000000084e18:	911a4001 	add	x1, x0, #0x690
ffff000000084e1c:	aa0303e0 	mov	x0, x3
ffff000000084e20:	940017b3 	bl	ffff00000008acec <memcmp>
ffff000000084e24:	7100001f 	cmp	w0, #0x0
ffff000000084e28:	54000961 	b.ne	ffff000000084f54 <shell+0x468>  // b.any
ffff000000084e2c:	910043e0 	add	x0, sp, #0x10
ffff000000084e30:	97fffdfb 	bl	ffff00000008461c <prase_number>
ffff000000084e34:	f90113e0 	str	x0, [sp, #544]
ffff000000084e38:	f94113e0 	ldr	x0, [sp, #544]
ffff000000084e3c:	f100241f 	cmp	x0, #0x9
ffff000000084e40:	540007e0 	b.eq	ffff000000084f3c <shell+0x450>  // b.none
ffff000000084e44:	f94113e0 	ldr	x0, [sp, #544]
ffff000000084e48:	f100241f 	cmp	x0, #0x9
ffff000000084e4c:	540007c8 	b.hi	ffff000000084f44 <shell+0x458>  // b.pmore
ffff000000084e50:	f94113e0 	ldr	x0, [sp, #544]
ffff000000084e54:	f100201f 	cmp	x0, #0x8
ffff000000084e58:	540006e0 	b.eq	ffff000000084f34 <shell+0x448>  // b.none
ffff000000084e5c:	f94113e0 	ldr	x0, [sp, #544]
ffff000000084e60:	f100201f 	cmp	x0, #0x8
ffff000000084e64:	54000708 	b.hi	ffff000000084f44 <shell+0x458>  // b.pmore
ffff000000084e68:	f94113e0 	ldr	x0, [sp, #544]
ffff000000084e6c:	f1001c1f 	cmp	x0, #0x7
ffff000000084e70:	540005e0 	b.eq	ffff000000084f2c <shell+0x440>  // b.none
ffff000000084e74:	f94113e0 	ldr	x0, [sp, #544]
ffff000000084e78:	f1001c1f 	cmp	x0, #0x7
ffff000000084e7c:	54000648 	b.hi	ffff000000084f44 <shell+0x458>  // b.pmore
ffff000000084e80:	f94113e0 	ldr	x0, [sp, #544]
ffff000000084e84:	f100181f 	cmp	x0, #0x6
ffff000000084e88:	540004e0 	b.eq	ffff000000084f24 <shell+0x438>  // b.none
ffff000000084e8c:	f94113e0 	ldr	x0, [sp, #544]
ffff000000084e90:	f100181f 	cmp	x0, #0x6
ffff000000084e94:	54000588 	b.hi	ffff000000084f44 <shell+0x458>  // b.pmore
ffff000000084e98:	f94113e0 	ldr	x0, [sp, #544]
ffff000000084e9c:	f100141f 	cmp	x0, #0x5
ffff000000084ea0:	540003e0 	b.eq	ffff000000084f1c <shell+0x430>  // b.none
ffff000000084ea4:	f94113e0 	ldr	x0, [sp, #544]
ffff000000084ea8:	f100141f 	cmp	x0, #0x5
ffff000000084eac:	540004c8 	b.hi	ffff000000084f44 <shell+0x458>  // b.pmore
ffff000000084eb0:	f94113e0 	ldr	x0, [sp, #544]
ffff000000084eb4:	f100101f 	cmp	x0, #0x4
ffff000000084eb8:	540002e0 	b.eq	ffff000000084f14 <shell+0x428>  // b.none
ffff000000084ebc:	f94113e0 	ldr	x0, [sp, #544]
ffff000000084ec0:	f100101f 	cmp	x0, #0x4
ffff000000084ec4:	54000408 	b.hi	ffff000000084f44 <shell+0x458>  // b.pmore
ffff000000084ec8:	f94113e0 	ldr	x0, [sp, #544]
ffff000000084ecc:	f1000c1f 	cmp	x0, #0x3
ffff000000084ed0:	540001e0 	b.eq	ffff000000084f0c <shell+0x420>  // b.none
ffff000000084ed4:	f94113e0 	ldr	x0, [sp, #544]
ffff000000084ed8:	f1000c1f 	cmp	x0, #0x3
ffff000000084edc:	54000348 	b.hi	ffff000000084f44 <shell+0x458>  // b.pmore
ffff000000084ee0:	f94113e0 	ldr	x0, [sp, #544]
ffff000000084ee4:	f100041f 	cmp	x0, #0x1
ffff000000084ee8:	540000a0 	b.eq	ffff000000084efc <shell+0x410>  // b.none
ffff000000084eec:	f94113e0 	ldr	x0, [sp, #544]
ffff000000084ef0:	f100081f 	cmp	x0, #0x2
ffff000000084ef4:	54000080 	b.eq	ffff000000084f04 <shell+0x418>  // b.none
ffff000000084ef8:	14000013 	b	ffff000000084f44 <shell+0x458>
ffff000000084efc:	9400010e 	bl	ffff000000085334 <buddy_test1>
ffff000000084f00:	14000088 	b	ffff000000085120 <shell+0x634>
ffff000000084f04:	9400015a 	bl	ffff00000008546c <buddy_test2>
ffff000000084f08:	14000086 	b	ffff000000085120 <shell+0x634>
ffff000000084f0c:	94000196 	bl	ffff000000085564 <buddy_test3>
ffff000000084f10:	14000084 	b	ffff000000085120 <shell+0x634>
ffff000000084f14:	94000202 	bl	ffff00000008571c <chunk_test1>
ffff000000084f18:	14000082 	b	ffff000000085120 <shell+0x634>
ffff000000084f1c:	94000258 	bl	ffff00000008587c <chunk_test2>
ffff000000084f20:	14000080 	b	ffff000000085120 <shell+0x634>
ffff000000084f24:	94000295 	bl	ffff000000085978 <chunk_test3>
ffff000000084f28:	1400007e 	b	ffff000000085120 <shell+0x634>
ffff000000084f2c:	940002b9 	bl	ffff000000085a10 <mix_test1>
ffff000000084f30:	1400007c 	b	ffff000000085120 <shell+0x634>
ffff000000084f34:	94000316 	bl	ffff000000085b8c <mix_test2>
ffff000000084f38:	1400007a 	b	ffff000000085120 <shell+0x634>
ffff000000084f3c:	940001b7 	bl	ffff000000085618 <buddy_test4>
ffff000000084f40:	14000078 	b	ffff000000085120 <shell+0x634>
ffff000000084f44:	f0000040 	adrp	x0, ffff00000008f000 <pool_slots+0x208>
ffff000000084f48:	911a8000 	add	x0, x0, #0x6a0
ffff000000084f4c:	9400065c 	bl	ffff0000000868bc <uart_write_str>
ffff000000084f50:	14000074 	b	ffff000000085120 <shell+0x634>
ffff000000084f54:	910043e3 	add	x3, sp, #0x10
ffff000000084f58:	d28000e2 	mov	x2, #0x7                   	// #7
ffff000000084f5c:	f0000040 	adrp	x0, ffff00000008f000 <pool_slots+0x208>
ffff000000084f60:	911b4001 	add	x1, x0, #0x6d0
ffff000000084f64:	aa0303e0 	mov	x0, x3
ffff000000084f68:	94001761 	bl	ffff00000008acec <memcmp>
ffff000000084f6c:	7100001f 	cmp	w0, #0x0
ffff000000084f70:	540000e1 	b.ne	ffff000000084f8c <shell+0x4a0>  // b.any
ffff000000084f74:	910043e0 	add	x0, sp, #0x10
ffff000000084f78:	97fffda9 	bl	ffff00000008461c <prase_number>
ffff000000084f7c:	f90117e0 	str	x0, [sp, #552]
ffff000000084f80:	f94117e0 	ldr	x0, [sp, #552]
ffff000000084f84:	940000d4 	bl	ffff0000000852d4 <kmalloc>
ffff000000084f88:	17fffedc 	b	ffff000000084af8 <shell+0xc>
ffff000000084f8c:	910043e3 	add	x3, sp, #0x10
ffff000000084f90:	d28000a2 	mov	x2, #0x5                   	// #5
ffff000000084f94:	f0000040 	adrp	x0, ffff00000008f000 <pool_slots+0x208>
ffff000000084f98:	911b6001 	add	x1, x0, #0x6d8
ffff000000084f9c:	aa0303e0 	mov	x0, x3
ffff000000084fa0:	94001753 	bl	ffff00000008acec <memcmp>
ffff000000084fa4:	7100001f 	cmp	w0, #0x0
ffff000000084fa8:	54000241 	b.ne	ffff000000084ff0 <shell+0x504>  // b.any
ffff000000084fac:	910043e0 	add	x0, sp, #0x10
ffff000000084fb0:	91001400 	add	x0, x0, #0x5
ffff000000084fb4:	910843e1 	add	x1, sp, #0x210
ffff000000084fb8:	52800002 	mov	w2, #0x0                   	// #0
ffff000000084fbc:	9400186a 	bl	ffff00000008b164 <strtoull>
ffff000000084fc0:	f9011be0 	str	x0, [sp, #560]
ffff000000084fc4:	f9410be0 	ldr	x0, [sp, #528]
ffff000000084fc8:	39400000 	ldrb	w0, [x0]
ffff000000084fcc:	7100001f 	cmp	w0, #0x0
ffff000000084fd0:	540000a0 	b.eq	ffff000000084fe4 <shell+0x4f8>  // b.none
ffff000000084fd4:	f0000040 	adrp	x0, ffff00000008f000 <pool_slots+0x208>
ffff000000084fd8:	911b8000 	add	x0, x0, #0x6e0
ffff000000084fdc:	94000638 	bl	ffff0000000868bc <uart_write_str>
ffff000000084fe0:	17fffec6 	b	ffff000000084af8 <shell+0xc>
ffff000000084fe4:	f9411be0 	ldr	x0, [sp, #560]
ffff000000084fe8:	9400008b 	bl	ffff000000085214 <kfree>
ffff000000084fec:	17fffec3 	b	ffff000000084af8 <shell+0xc>
ffff000000084ff0:	910043e2 	add	x2, sp, #0x10
ffff000000084ff4:	f0000040 	adrp	x0, ffff00000008f000 <pool_slots+0x208>
ffff000000084ff8:	911c0001 	add	x1, x0, #0x700
ffff000000084ffc:	aa0203e0 	mov	x0, x2
ffff000000085000:	94001774 	bl	ffff00000008add0 <strcmp>
ffff000000085004:	7100001f 	cmp	w0, #0x0
ffff000000085008:	54000060 	b.eq	ffff000000085014 <shell+0x528>  // b.none
ffff00000008500c:	97ffed07 	bl	ffff000000080428 <dump_allocated_nodes>
ffff000000085010:	17fffeba 	b	ffff000000084af8 <shell+0xc>
ffff000000085014:	910043e3 	add	x3, sp, #0x10
ffff000000085018:	d2800222 	mov	x2, #0x11                  	// #17
ffff00000008501c:	d0000040 	adrp	x0, ffff00000008f000 <pool_slots+0x208>
ffff000000085020:	911c6001 	add	x1, x0, #0x718
ffff000000085024:	aa0303e0 	mov	x0, x3
ffff000000085028:	94001731 	bl	ffff00000008acec <memcmp>
ffff00000008502c:	7100001f 	cmp	w0, #0x0
ffff000000085030:	540000e1 	b.ne	ffff00000008504c <shell+0x560>  // b.any
ffff000000085034:	910043e0 	add	x0, sp, #0x10
ffff000000085038:	97fffd79 	bl	ffff00000008461c <prase_number>
ffff00000008503c:	b9023be0 	str	w0, [sp, #568]
ffff000000085040:	b9423be0 	ldr	w0, [sp, #568]
ffff000000085044:	97ffeec5 	bl	ffff000000080b58 <dump_free_blocks>
ffff000000085048:	17fffeac 	b	ffff000000084af8 <shell+0xc>
ffff00000008504c:	910043e2 	add	x2, sp, #0x10
ffff000000085050:	d0000040 	adrp	x0, ffff00000008f000 <pool_slots+0x208>
ffff000000085054:	911cc001 	add	x1, x0, #0x730
ffff000000085058:	aa0203e0 	mov	x0, x2
ffff00000008505c:	9400175d 	bl	ffff00000008add0 <strcmp>
ffff000000085060:	7100001f 	cmp	w0, #0x0
ffff000000085064:	54000060 	b.eq	ffff000000085070 <shell+0x584>  // b.none
ffff000000085068:	97fff794 	bl	ffff000000082eb8 <dump_chunk_pools>
ffff00000008506c:	17fffea3 	b	ffff000000084af8 <shell+0xc>
ffff000000085070:	910043e2 	add	x2, sp, #0x10
ffff000000085074:	d0000040 	adrp	x0, ffff00000008f000 <pool_slots+0x208>
ffff000000085078:	911d0001 	add	x1, x0, #0x740
ffff00000008507c:	aa0203e0 	mov	x0, x2
ffff000000085080:	94001754 	bl	ffff00000008add0 <strcmp>
ffff000000085084:	7100001f 	cmp	w0, #0x0
ffff000000085088:	54000460 	b.eq	ffff000000085114 <shell+0x628>  // b.none
ffff00000008508c:	d0000040 	adrp	x0, ffff00000008f000 <pool_slots+0x208>
ffff000000085090:	911d6000 	add	x0, x0, #0x758
ffff000000085094:	9400060a 	bl	ffff0000000868bc <uart_write_str>
ffff000000085098:	d0000040 	adrp	x0, ffff00000008f000 <pool_slots+0x208>
ffff00000008509c:	911ec003 	add	x3, x0, #0x7b0
ffff0000000850a0:	52800002 	mov	w2, #0x0                   	// #0
ffff0000000850a4:	528003e1 	mov	w1, #0x1f                  	// #31
ffff0000000850a8:	b0000060 	adrp	x0, ffff000000092000 <pool_slots+0xe38>
ffff0000000850ac:	f943e400 	ldr	x0, [x0, #1992]
ffff0000000850b0:	94000fce 	bl	ffff000000088fe8 <thread_create>
ffff0000000850b4:	b9023fff 	str	wzr, [sp, #572]
ffff0000000850b8:	1400000b 	b	ffff0000000850e4 <shell+0x5f8>
ffff0000000850bc:	d0000040 	adrp	x0, ffff00000008f000 <pool_slots+0x208>
ffff0000000850c0:	911ec003 	add	x3, x0, #0x7b0
ffff0000000850c4:	52800002 	mov	w2, #0x0                   	// #0
ffff0000000850c8:	52800001 	mov	w1, #0x0                   	// #0
ffff0000000850cc:	b0000060 	adrp	x0, ffff000000092000 <pool_slots+0xe38>
ffff0000000850d0:	f943d000 	ldr	x0, [x0, #1952]
ffff0000000850d4:	94000fc5 	bl	ffff000000088fe8 <thread_create>
ffff0000000850d8:	b9423fe0 	ldr	w0, [sp, #572]
ffff0000000850dc:	11000400 	add	w0, w0, #0x1
ffff0000000850e0:	b9023fe0 	str	w0, [sp, #572]
ffff0000000850e4:	b9423fe0 	ldr	w0, [sp, #572]
ffff0000000850e8:	7100101f 	cmp	w0, #0x4
ffff0000000850ec:	54fffe8d 	b.le	ffff0000000850bc <shell+0x5d0>
ffff0000000850f0:	d0000040 	adrp	x0, ffff00000008f000 <pool_slots+0x208>
ffff0000000850f4:	911ee000 	add	x0, x0, #0x7b8
ffff0000000850f8:	940005f1 	bl	ffff0000000868bc <uart_write_str>
ffff0000000850fc:	94000eb9 	bl	ffff000000088be0 <ready_queue_dump>
ffff000000085100:	d518d09f 	msr	tpidr_el1, xzr
ffff000000085104:	940014e5 	bl	ffff00000008a498 <core_timer_enable>
ffff000000085108:	d2800020 	mov	x0, #0x1                   	// #1
ffff00000008510c:	94001240 	bl	ffff000000089a0c <schedule_complete>
ffff000000085110:	17fffe7a 	b	ffff000000084af8 <shell+0xc>
ffff000000085114:	d0000040 	adrp	x0, ffff00000008f000 <pool_slots+0x208>
ffff000000085118:	91202000 	add	x0, x0, #0x808
ffff00000008511c:	940005e8 	bl	ffff0000000868bc <uart_write_str>
ffff000000085120:	17fffe76 	b	ffff000000084af8 <shell+0xc>
ffff000000085124:	a9407bfd 	ldp	x29, x30, [sp]
ffff000000085128:	910943ff 	add	sp, sp, #0x250
ffff00000008512c:	d65f03c0 	ret

ffff000000085130 <main>:
ffff000000085130:	a9bd7bfd 	stp	x29, x30, [sp, #-48]!
ffff000000085134:	910003fd 	mov	x29, sp
ffff000000085138:	f9000bf3 	str	x19, [sp, #16]
ffff00000008513c:	940003ac 	bl	ffff000000085fec <uart_init>
ffff000000085140:	aa1503e1 	mov	x1, x21
ffff000000085144:	b0000060 	adrp	x0, ffff000000092000 <pool_slots+0xe38>
ffff000000085148:	f9440000 	ldr	x0, [x0, #2048]
ffff00000008514c:	f9000001 	str	x1, [x0]
ffff000000085150:	b0000060 	adrp	x0, ffff000000092000 <pool_slots+0xe38>
ffff000000085154:	f9440000 	ldr	x0, [x0, #2048]
ffff000000085158:	f9400000 	ldr	x0, [x0]
ffff00000008515c:	b2503c01 	orr	x1, x0, #0xffff000000000000
ffff000000085160:	b0000060 	adrp	x0, ffff000000092000 <pool_slots+0xe38>
ffff000000085164:	f9440000 	ldr	x0, [x0, #2048]
ffff000000085168:	f9000001 	str	x1, [x0]
ffff00000008516c:	b0000060 	adrp	x0, ffff000000092000 <pool_slots+0xe38>
ffff000000085170:	f9440000 	ldr	x0, [x0, #2048]
ffff000000085174:	f9400000 	ldr	x0, [x0]
ffff000000085178:	aa0003e1 	mov	x1, x0
ffff00000008517c:	b0000060 	adrp	x0, ffff000000092000 <pool_slots+0xe38>
ffff000000085180:	f943e800 	ldr	x0, [x0, #2000]
ffff000000085184:	97fff46e 	bl	ffff00000008233c <fdt_traverse>
ffff000000085188:	97fffb00 	bl	ffff000000083d88 <mailbox_get_memory>
ffff00000008518c:	b0000060 	adrp	x0, ffff000000092000 <pool_slots+0xe38>
ffff000000085190:	f9441000 	ldr	x0, [x0, #2080]
ffff000000085194:	f9400002 	ldr	x2, [x0]
ffff000000085198:	b0000060 	adrp	x0, ffff000000092000 <pool_slots+0xe38>
ffff00000008519c:	f943cc00 	ldr	x0, [x0, #1944]
ffff0000000851a0:	f9400000 	ldr	x0, [x0]
ffff0000000851a4:	aa0003e1 	mov	x1, x0
ffff0000000851a8:	aa0203e0 	mov	x0, x2
ffff0000000851ac:	94000a6f 	bl	ffff000000087b68 <startup_alloc_init>
ffff0000000851b0:	910003e0 	mov	x0, sp
ffff0000000851b4:	aa0003f3 	mov	x19, x0
ffff0000000851b8:	b2503e60 	orr	x0, x19, #0xffff000000000000
ffff0000000851bc:	f90017e0 	str	x0, [sp, #40]
ffff0000000851c0:	f94017e0 	ldr	x0, [sp, #40]
ffff0000000851c4:	9100001f 	mov	sp, x0
ffff0000000851c8:	94000748 	bl	ffff000000086ee8 <kernel_vm_init>
ffff0000000851cc:	d0000040 	adrp	x0, ffff00000008f000 <pool_slots+0x208>
ffff0000000851d0:	9120c000 	add	x0, x0, #0x830
ffff0000000851d4:	940005ba 	bl	ffff0000000868bc <uart_write_str>
ffff0000000851d8:	d0000040 	adrp	x0, ffff00000008f000 <pool_slots+0x208>
ffff0000000851dc:	91224003 	add	x3, x0, #0x890
ffff0000000851e0:	52800022 	mov	w2, #0x1                   	// #1
ffff0000000851e4:	52800001 	mov	w1, #0x0                   	// #0
ffff0000000851e8:	d2800000 	mov	x0, #0x0                   	// #0
ffff0000000851ec:	94000f7f 	bl	ffff000000088fe8 <thread_create>
ffff0000000851f0:	d0000040 	adrp	x0, ffff00000008f000 <pool_slots+0x208>
ffff0000000851f4:	91228000 	add	x0, x0, #0x8a0
ffff0000000851f8:	940005b1 	bl	ffff0000000868bc <uart_write_str>
ffff0000000851fc:	d2800020 	mov	x0, #0x1                   	// #1
ffff000000085200:	94001203 	bl	ffff000000089a0c <schedule_complete>
ffff000000085204:	52800000 	mov	w0, #0x0                   	// #0
ffff000000085208:	f9400bf3 	ldr	x19, [sp, #16]
ffff00000008520c:	a8c37bfd 	ldp	x29, x30, [sp], #48
ffff000000085210:	d65f03c0 	ret

ffff000000085214 <kfree>:
ffff000000085214:	a9bb7bfd 	stp	x29, x30, [sp, #-80]!
ffff000000085218:	910003fd 	mov	x29, sp
ffff00000008521c:	f9000fe0 	str	x0, [sp, #24]
ffff000000085220:	97fff768 	bl	ffff000000082fc0 <get_chunk_pages>
ffff000000085224:	f90023e0 	str	x0, [sp, #64]
ffff000000085228:	97fff76a 	bl	ffff000000082fd0 <get_chunk_page_count>
ffff00000008522c:	b9003fe0 	str	w0, [sp, #60]
ffff000000085230:	b9004fff 	str	wzr, [sp, #76]
ffff000000085234:	14000020 	b	ffff0000000852b4 <kfree+0xa0>
ffff000000085238:	b9804fe0 	ldrsw	x0, [sp, #76]
ffff00000008523c:	d37be800 	lsl	x0, x0, #5
ffff000000085240:	f94023e1 	ldr	x1, [sp, #64]
ffff000000085244:	8b000020 	add	x0, x1, x0
ffff000000085248:	f9400400 	ldr	x0, [x0, #8]
ffff00000008524c:	f100001f 	cmp	x0, #0x0
ffff000000085250:	540002a0 	b.eq	ffff0000000852a4 <kfree+0x90>  // b.none
ffff000000085254:	b9804fe0 	ldrsw	x0, [sp, #76]
ffff000000085258:	d37be800 	lsl	x0, x0, #5
ffff00000008525c:	f94023e1 	ldr	x1, [sp, #64]
ffff000000085260:	8b000020 	add	x0, x1, x0
ffff000000085264:	f9400400 	ldr	x0, [x0, #8]
ffff000000085268:	f9001be0 	str	x0, [sp, #48]
ffff00000008526c:	f9401be0 	ldr	x0, [sp, #48]
ffff000000085270:	91400400 	add	x0, x0, #0x1, lsl #12
ffff000000085274:	f90017e0 	str	x0, [sp, #40]
ffff000000085278:	f9400fe1 	ldr	x1, [sp, #24]
ffff00000008527c:	f9401be0 	ldr	x0, [sp, #48]
ffff000000085280:	eb00003f 	cmp	x1, x0
ffff000000085284:	54000123 	b.cc	ffff0000000852a8 <kfree+0x94>  // b.lo, b.ul, b.last
ffff000000085288:	f9400fe1 	ldr	x1, [sp, #24]
ffff00000008528c:	f94017e0 	ldr	x0, [sp, #40]
ffff000000085290:	eb00003f 	cmp	x1, x0
ffff000000085294:	540000a2 	b.cs	ffff0000000852a8 <kfree+0x94>  // b.hs, b.nlast
ffff000000085298:	f9400fe0 	ldr	x0, [sp, #24]
ffff00000008529c:	97fff676 	bl	ffff000000082c74 <chunk_free>
ffff0000000852a0:	1400000b 	b	ffff0000000852cc <kfree+0xb8>
ffff0000000852a4:	d503201f 	nop
ffff0000000852a8:	b9404fe0 	ldr	w0, [sp, #76]
ffff0000000852ac:	11000400 	add	w0, w0, #0x1
ffff0000000852b0:	b9004fe0 	str	w0, [sp, #76]
ffff0000000852b4:	b9404fe1 	ldr	w1, [sp, #76]
ffff0000000852b8:	b9403fe0 	ldr	w0, [sp, #60]
ffff0000000852bc:	6b00003f 	cmp	w1, w0
ffff0000000852c0:	54fffbcb 	b.lt	ffff000000085238 <kfree+0x24>  // b.tstop
ffff0000000852c4:	f9400fe0 	ldr	x0, [sp, #24]
ffff0000000852c8:	97fff0b6 	bl	ffff0000000815a0 <buddy_free>
ffff0000000852cc:	a8c57bfd 	ldp	x29, x30, [sp], #80
ffff0000000852d0:	d65f03c0 	ret

ffff0000000852d4 <kmalloc>:
ffff0000000852d4:	a9bd7bfd 	stp	x29, x30, [sp, #-48]!
ffff0000000852d8:	910003fd 	mov	x29, sp
ffff0000000852dc:	f9000fe0 	str	x0, [sp, #24]
ffff0000000852e0:	f90017ff 	str	xzr, [sp, #40]
ffff0000000852e4:	f9400fe0 	ldr	x0, [sp, #24]
ffff0000000852e8:	f110001f 	cmp	x0, #0x400
ffff0000000852ec:	540000a9 	b.ls	ffff000000085300 <kmalloc+0x2c>  // b.plast
ffff0000000852f0:	f9400fe0 	ldr	x0, [sp, #24]
ffff0000000852f4:	97fff02d 	bl	ffff0000000813a8 <buddy_alloc>
ffff0000000852f8:	f90017e0 	str	x0, [sp, #40]
ffff0000000852fc:	14000004 	b	ffff00000008530c <kmalloc+0x38>
ffff000000085300:	f9400fe0 	ldr	x0, [sp, #24]
ffff000000085304:	97fff539 	bl	ffff0000000827e8 <chunk_alloc>
ffff000000085308:	f90017e0 	str	x0, [sp, #40]
ffff00000008530c:	f94017e0 	ldr	x0, [sp, #40]
ffff000000085310:	f100001f 	cmp	x0, #0x0
ffff000000085314:	540000a0 	b.eq	ffff000000085328 <kmalloc+0x54>  // b.none
ffff000000085318:	f9400fe2 	ldr	x2, [sp, #24]
ffff00000008531c:	52800001 	mov	w1, #0x0                   	// #0
ffff000000085320:	f94017e0 	ldr	x0, [sp, #40]
ffff000000085324:	9400163d 	bl	ffff00000008ac18 <memset>
ffff000000085328:	f94017e0 	ldr	x0, [sp, #40]
ffff00000008532c:	a8c37bfd 	ldp	x29, x30, [sp], #48
ffff000000085330:	d65f03c0 	ret

ffff000000085334 <buddy_test1>:
ffff000000085334:	a9bd7bfd 	stp	x29, x30, [sp, #-48]!
ffff000000085338:	910003fd 	mov	x29, sp
ffff00000008533c:	d0000040 	adrp	x0, ffff00000008f000 <pool_slots+0x208>
ffff000000085340:	9124a000 	add	x0, x0, #0x928
ffff000000085344:	9400055e 	bl	ffff0000000868bc <uart_write_str>
ffff000000085348:	97ffec38 	bl	ffff000000080428 <dump_allocated_nodes>
ffff00000008534c:	52800000 	mov	w0, #0x0                   	// #0
ffff000000085350:	97ffee02 	bl	ffff000000080b58 <dump_free_blocks>
ffff000000085354:	52800020 	mov	w0, #0x1                   	// #1
ffff000000085358:	97ffee00 	bl	ffff000000080b58 <dump_free_blocks>
ffff00000008535c:	52800040 	mov	w0, #0x2                   	// #2
ffff000000085360:	97ffedfe 	bl	ffff000000080b58 <dump_free_blocks>
ffff000000085364:	52800060 	mov	w0, #0x3                   	// #3
ffff000000085368:	97ffedfc 	bl	ffff000000080b58 <dump_free_blocks>
ffff00000008536c:	d0000040 	adrp	x0, ffff00000008f000 <pool_slots+0x208>
ffff000000085370:	9125a000 	add	x0, x0, #0x968
ffff000000085374:	94000552 	bl	ffff0000000868bc <uart_write_str>
ffff000000085378:	d2820000 	mov	x0, #0x1000                	// #4096
ffff00000008537c:	97fff00b 	bl	ffff0000000813a8 <buddy_alloc>
ffff000000085380:	f90017e0 	str	x0, [sp, #40]
ffff000000085384:	97ffec29 	bl	ffff000000080428 <dump_allocated_nodes>
ffff000000085388:	52800000 	mov	w0, #0x0                   	// #0
ffff00000008538c:	97ffedf3 	bl	ffff000000080b58 <dump_free_blocks>
ffff000000085390:	52800020 	mov	w0, #0x1                   	// #1
ffff000000085394:	97ffedf1 	bl	ffff000000080b58 <dump_free_blocks>
ffff000000085398:	52800040 	mov	w0, #0x2                   	// #2
ffff00000008539c:	97ffedef 	bl	ffff000000080b58 <dump_free_blocks>
ffff0000000853a0:	52800060 	mov	w0, #0x3                   	// #3
ffff0000000853a4:	97ffeded 	bl	ffff000000080b58 <dump_free_blocks>
ffff0000000853a8:	d0000040 	adrp	x0, ffff00000008f000 <pool_slots+0x208>
ffff0000000853ac:	9126c000 	add	x0, x0, #0x9b0
ffff0000000853b0:	94000543 	bl	ffff0000000868bc <uart_write_str>
ffff0000000853b4:	d2840000 	mov	x0, #0x2000                	// #8192
ffff0000000853b8:	97ffeffc 	bl	ffff0000000813a8 <buddy_alloc>
ffff0000000853bc:	f90013e0 	str	x0, [sp, #32]
ffff0000000853c0:	97ffec1a 	bl	ffff000000080428 <dump_allocated_nodes>
ffff0000000853c4:	52800000 	mov	w0, #0x0                   	// #0
ffff0000000853c8:	97ffede4 	bl	ffff000000080b58 <dump_free_blocks>
ffff0000000853cc:	52800020 	mov	w0, #0x1                   	// #1
ffff0000000853d0:	97ffede2 	bl	ffff000000080b58 <dump_free_blocks>
ffff0000000853d4:	52800040 	mov	w0, #0x2                   	// #2
ffff0000000853d8:	97ffede0 	bl	ffff000000080b58 <dump_free_blocks>
ffff0000000853dc:	52800060 	mov	w0, #0x3                   	// #3
ffff0000000853e0:	97ffedde 	bl	ffff000000080b58 <dump_free_blocks>
ffff0000000853e4:	d0000040 	adrp	x0, ffff00000008f000 <pool_slots+0x208>
ffff0000000853e8:	9127e000 	add	x0, x0, #0x9f8
ffff0000000853ec:	94000534 	bl	ffff0000000868bc <uart_write_str>
ffff0000000853f0:	d2900000 	mov	x0, #0x8000                	// #32768
ffff0000000853f4:	97ffefed 	bl	ffff0000000813a8 <buddy_alloc>
ffff0000000853f8:	f9000fe0 	str	x0, [sp, #24]
ffff0000000853fc:	97ffec0b 	bl	ffff000000080428 <dump_allocated_nodes>
ffff000000085400:	52800000 	mov	w0, #0x0                   	// #0
ffff000000085404:	97ffedd5 	bl	ffff000000080b58 <dump_free_blocks>
ffff000000085408:	52800020 	mov	w0, #0x1                   	// #1
ffff00000008540c:	97ffedd3 	bl	ffff000000080b58 <dump_free_blocks>
ffff000000085410:	52800040 	mov	w0, #0x2                   	// #2
ffff000000085414:	97ffedd1 	bl	ffff000000080b58 <dump_free_blocks>
ffff000000085418:	52800060 	mov	w0, #0x3                   	// #3
ffff00000008541c:	97ffedcf 	bl	ffff000000080b58 <dump_free_blocks>
ffff000000085420:	d0000040 	adrp	x0, ffff00000008f000 <pool_slots+0x208>
ffff000000085424:	91290000 	add	x0, x0, #0xa40
ffff000000085428:	94000525 	bl	ffff0000000868bc <uart_write_str>
ffff00000008542c:	f94013e0 	ldr	x0, [sp, #32]
ffff000000085430:	97fff05c 	bl	ffff0000000815a0 <buddy_free>
ffff000000085434:	97ffebfd 	bl	ffff000000080428 <dump_allocated_nodes>
ffff000000085438:	d0000040 	adrp	x0, ffff00000008f000 <pool_slots+0x208>
ffff00000008543c:	912a2000 	add	x0, x0, #0xa88
ffff000000085440:	9400051f 	bl	ffff0000000868bc <uart_write_str>
ffff000000085444:	f94017e0 	ldr	x0, [sp, #40]
ffff000000085448:	97fff056 	bl	ffff0000000815a0 <buddy_free>
ffff00000008544c:	d0000040 	adrp	x0, ffff00000008f000 <pool_slots+0x208>
ffff000000085450:	912b4000 	add	x0, x0, #0xad0
ffff000000085454:	9400051a 	bl	ffff0000000868bc <uart_write_str>
ffff000000085458:	f9400fe0 	ldr	x0, [sp, #24]
ffff00000008545c:	97fff051 	bl	ffff0000000815a0 <buddy_free>
ffff000000085460:	d503201f 	nop
ffff000000085464:	a8c37bfd 	ldp	x29, x30, [sp], #48
ffff000000085468:	d65f03c0 	ret

ffff00000008546c <buddy_test2>:
ffff00000008546c:	a9bc7bfd 	stp	x29, x30, [sp, #-64]!
ffff000000085470:	910003fd 	mov	x29, sp
ffff000000085474:	d0000040 	adrp	x0, ffff00000008f000 <pool_slots+0x208>
ffff000000085478:	9124a000 	add	x0, x0, #0x928
ffff00000008547c:	94000510 	bl	ffff0000000868bc <uart_write_str>
ffff000000085480:	97ffebea 	bl	ffff000000080428 <dump_allocated_nodes>
ffff000000085484:	52800000 	mov	w0, #0x0                   	// #0
ffff000000085488:	97ffedb4 	bl	ffff000000080b58 <dump_free_blocks>
ffff00000008548c:	52800020 	mov	w0, #0x1                   	// #1
ffff000000085490:	97ffedb2 	bl	ffff000000080b58 <dump_free_blocks>
ffff000000085494:	d0000040 	adrp	x0, ffff00000008f000 <pool_slots+0x208>
ffff000000085498:	912c6000 	add	x0, x0, #0xb18
ffff00000008549c:	94000508 	bl	ffff0000000868bc <uart_write_str>
ffff0000000854a0:	d2820000 	mov	x0, #0x1000                	// #4096
ffff0000000854a4:	97ffefc1 	bl	ffff0000000813a8 <buddy_alloc>
ffff0000000854a8:	f9001fe0 	str	x0, [sp, #56]
ffff0000000854ac:	d2840000 	mov	x0, #0x2000                	// #8192
ffff0000000854b0:	97ffefbe 	bl	ffff0000000813a8 <buddy_alloc>
ffff0000000854b4:	f9001be0 	str	x0, [sp, #48]
ffff0000000854b8:	97ffebdc 	bl	ffff000000080428 <dump_allocated_nodes>
ffff0000000854bc:	52800000 	mov	w0, #0x0                   	// #0
ffff0000000854c0:	97ffeda6 	bl	ffff000000080b58 <dump_free_blocks>
ffff0000000854c4:	52800020 	mov	w0, #0x1                   	// #1
ffff0000000854c8:	97ffeda4 	bl	ffff000000080b58 <dump_free_blocks>
ffff0000000854cc:	d0000040 	adrp	x0, ffff00000008f000 <pool_slots+0x208>
ffff0000000854d0:	912d8000 	add	x0, x0, #0xb60
ffff0000000854d4:	940004fa 	bl	ffff0000000868bc <uart_write_str>
ffff0000000854d8:	d2820000 	mov	x0, #0x1000                	// #4096
ffff0000000854dc:	97ffefb3 	bl	ffff0000000813a8 <buddy_alloc>
ffff0000000854e0:	f90017e0 	str	x0, [sp, #40]
ffff0000000854e4:	d2820000 	mov	x0, #0x1000                	// #4096
ffff0000000854e8:	97ffefb0 	bl	ffff0000000813a8 <buddy_alloc>
ffff0000000854ec:	f90013e0 	str	x0, [sp, #32]
ffff0000000854f0:	d2840000 	mov	x0, #0x2000                	// #8192
ffff0000000854f4:	97ffefad 	bl	ffff0000000813a8 <buddy_alloc>
ffff0000000854f8:	f9000fe0 	str	x0, [sp, #24]
ffff0000000854fc:	97ffebcb 	bl	ffff000000080428 <dump_allocated_nodes>
ffff000000085500:	52800000 	mov	w0, #0x0                   	// #0
ffff000000085504:	97ffed95 	bl	ffff000000080b58 <dump_free_blocks>
ffff000000085508:	52800020 	mov	w0, #0x1                   	// #1
ffff00000008550c:	97ffed93 	bl	ffff000000080b58 <dump_free_blocks>
ffff000000085510:	d0000040 	adrp	x0, ffff00000008f000 <pool_slots+0x208>
ffff000000085514:	912ec000 	add	x0, x0, #0xbb0
ffff000000085518:	940004e9 	bl	ffff0000000868bc <uart_write_str>
ffff00000008551c:	f94013e0 	ldr	x0, [sp, #32]
ffff000000085520:	97fff020 	bl	ffff0000000815a0 <buddy_free>
ffff000000085524:	f9400fe0 	ldr	x0, [sp, #24]
ffff000000085528:	97fff01e 	bl	ffff0000000815a0 <buddy_free>
ffff00000008552c:	f94017e0 	ldr	x0, [sp, #40]
ffff000000085530:	97fff01c 	bl	ffff0000000815a0 <buddy_free>
ffff000000085534:	97ffebbd 	bl	ffff000000080428 <dump_allocated_nodes>
ffff000000085538:	d0000040 	adrp	x0, ffff00000008f000 <pool_slots+0x208>
ffff00000008553c:	91300000 	add	x0, x0, #0xc00
ffff000000085540:	940004df 	bl	ffff0000000868bc <uart_write_str>
ffff000000085544:	f9401be0 	ldr	x0, [sp, #48]
ffff000000085548:	97fff016 	bl	ffff0000000815a0 <buddy_free>
ffff00000008554c:	f9401fe0 	ldr	x0, [sp, #56]
ffff000000085550:	97fff014 	bl	ffff0000000815a0 <buddy_free>
ffff000000085554:	97ffebb5 	bl	ffff000000080428 <dump_allocated_nodes>
ffff000000085558:	d503201f 	nop
ffff00000008555c:	a8c47bfd 	ldp	x29, x30, [sp], #64
ffff000000085560:	d65f03c0 	ret

ffff000000085564 <buddy_test3>:
ffff000000085564:	a9bd7bfd 	stp	x29, x30, [sp, #-48]!
ffff000000085568:	910003fd 	mov	x29, sp
ffff00000008556c:	d0000040 	adrp	x0, ffff00000008f000 <pool_slots+0x208>
ffff000000085570:	9130e000 	add	x0, x0, #0xc38
ffff000000085574:	940004d2 	bl	ffff0000000868bc <uart_write_str>
ffff000000085578:	d2810000 	mov	x0, #0x800                 	// #2048
ffff00000008557c:	97ffff56 	bl	ffff0000000852d4 <kmalloc>
ffff000000085580:	f90017e0 	str	x0, [sp, #40]
ffff000000085584:	d2860000 	mov	x0, #0x3000                	// #12288
ffff000000085588:	97ffff53 	bl	ffff0000000852d4 <kmalloc>
ffff00000008558c:	f90013e0 	str	x0, [sp, #32]
ffff000000085590:	97ffeba6 	bl	ffff000000080428 <dump_allocated_nodes>
ffff000000085594:	d0000040 	adrp	x0, ffff00000008f000 <pool_slots+0x208>
ffff000000085598:	91328000 	add	x0, x0, #0xca0
ffff00000008559c:	940004c8 	bl	ffff0000000868bc <uart_write_str>
ffff0000000855a0:	b2407be0 	mov	x0, #0x7fffffff            	// #2147483647
ffff0000000855a4:	97ffff4c 	bl	ffff0000000852d4 <kmalloc>
ffff0000000855a8:	f9000fe0 	str	x0, [sp, #24]
ffff0000000855ac:	97ffeb9f 	bl	ffff000000080428 <dump_allocated_nodes>
ffff0000000855b0:	f9400fe0 	ldr	x0, [sp, #24]
ffff0000000855b4:	97ffff18 	bl	ffff000000085214 <kfree>
ffff0000000855b8:	d0000040 	adrp	x0, ffff00000008f000 <pool_slots+0x208>
ffff0000000855bc:	9133e000 	add	x0, x0, #0xcf8
ffff0000000855c0:	940004bf 	bl	ffff0000000868bc <uart_write_str>
ffff0000000855c4:	f94013e0 	ldr	x0, [sp, #32]
ffff0000000855c8:	97ffff13 	bl	ffff000000085214 <kfree>
ffff0000000855cc:	f94017e0 	ldr	x0, [sp, #40]
ffff0000000855d0:	97ffff11 	bl	ffff000000085214 <kfree>
ffff0000000855d4:	97ffeb95 	bl	ffff000000080428 <dump_allocated_nodes>
ffff0000000855d8:	d0000040 	adrp	x0, ffff00000008f000 <pool_slots+0x208>
ffff0000000855dc:	91350000 	add	x0, x0, #0xd40
ffff0000000855e0:	940004b7 	bl	ffff0000000868bc <uart_write_str>
ffff0000000855e4:	d2a00080 	mov	x0, #0x40000               	// #262144
ffff0000000855e8:	97ffff3b 	bl	ffff0000000852d4 <kmalloc>
ffff0000000855ec:	f9000be0 	str	x0, [sp, #16]
ffff0000000855f0:	97ffeb8e 	bl	ffff000000080428 <dump_allocated_nodes>
ffff0000000855f4:	d0000040 	adrp	x0, ffff00000008f000 <pool_slots+0x208>
ffff0000000855f8:	9133e000 	add	x0, x0, #0xcf8
ffff0000000855fc:	940004b0 	bl	ffff0000000868bc <uart_write_str>
ffff000000085600:	f9400be0 	ldr	x0, [sp, #16]
ffff000000085604:	97ffff04 	bl	ffff000000085214 <kfree>
ffff000000085608:	97ffeb88 	bl	ffff000000080428 <dump_allocated_nodes>
ffff00000008560c:	d503201f 	nop
ffff000000085610:	a8c37bfd 	ldp	x29, x30, [sp], #48
ffff000000085614:	d65f03c0 	ret

ffff000000085618 <buddy_test4>:
ffff000000085618:	a9be7bfd 	stp	x29, x30, [sp, #-32]!
ffff00000008561c:	910003fd 	mov	x29, sp
ffff000000085620:	d0000040 	adrp	x0, ffff00000008f000 <pool_slots+0x208>
ffff000000085624:	9124a000 	add	x0, x0, #0x928
ffff000000085628:	940004a5 	bl	ffff0000000868bc <uart_write_str>
ffff00000008562c:	97ffeb7f 	bl	ffff000000080428 <dump_allocated_nodes>
ffff000000085630:	52800000 	mov	w0, #0x0                   	// #0
ffff000000085634:	97ffed49 	bl	ffff000000080b58 <dump_free_blocks>
ffff000000085638:	52800020 	mov	w0, #0x1                   	// #1
ffff00000008563c:	97ffed47 	bl	ffff000000080b58 <dump_free_blocks>
ffff000000085640:	52800040 	mov	w0, #0x2                   	// #2
ffff000000085644:	97ffed45 	bl	ffff000000080b58 <dump_free_blocks>
ffff000000085648:	52800060 	mov	w0, #0x3                   	// #3
ffff00000008564c:	97ffed43 	bl	ffff000000080b58 <dump_free_blocks>
ffff000000085650:	d0000040 	adrp	x0, ffff00000008f000 <pool_slots+0x208>
ffff000000085654:	9125a000 	add	x0, x0, #0x968
ffff000000085658:	94000499 	bl	ffff0000000868bc <uart_write_str>
ffff00000008565c:	d2820000 	mov	x0, #0x1000                	// #4096
ffff000000085660:	97ffef52 	bl	ffff0000000813a8 <buddy_alloc>
ffff000000085664:	f9000fe0 	str	x0, [sp, #24]
ffff000000085668:	97ffeb70 	bl	ffff000000080428 <dump_allocated_nodes>
ffff00000008566c:	52800000 	mov	w0, #0x0                   	// #0
ffff000000085670:	97ffed3a 	bl	ffff000000080b58 <dump_free_blocks>
ffff000000085674:	52800020 	mov	w0, #0x1                   	// #1
ffff000000085678:	97ffed38 	bl	ffff000000080b58 <dump_free_blocks>
ffff00000008567c:	52800040 	mov	w0, #0x2                   	// #2
ffff000000085680:	97ffed36 	bl	ffff000000080b58 <dump_free_blocks>
ffff000000085684:	52800060 	mov	w0, #0x3                   	// #3
ffff000000085688:	97ffed34 	bl	ffff000000080b58 <dump_free_blocks>
ffff00000008568c:	d0000040 	adrp	x0, ffff00000008f000 <pool_slots+0x208>
ffff000000085690:	912a2000 	add	x0, x0, #0xa88
ffff000000085694:	9400048a 	bl	ffff0000000868bc <uart_write_str>
ffff000000085698:	f9400fe0 	ldr	x0, [sp, #24]
ffff00000008569c:	97ffefc1 	bl	ffff0000000815a0 <buddy_free>
ffff0000000856a0:	97ffeb62 	bl	ffff000000080428 <dump_allocated_nodes>
ffff0000000856a4:	d0000040 	adrp	x0, ffff00000008f000 <pool_slots+0x208>
ffff0000000856a8:	9126c000 	add	x0, x0, #0x9b0
ffff0000000856ac:	94000484 	bl	ffff0000000868bc <uart_write_str>
ffff0000000856b0:	d2820000 	mov	x0, #0x1000                	// #4096
ffff0000000856b4:	97ffef3d 	bl	ffff0000000813a8 <buddy_alloc>
ffff0000000856b8:	f9000be0 	str	x0, [sp, #16]
ffff0000000856bc:	97ffeb5b 	bl	ffff000000080428 <dump_allocated_nodes>
ffff0000000856c0:	52800000 	mov	w0, #0x0                   	// #0
ffff0000000856c4:	97ffed25 	bl	ffff000000080b58 <dump_free_blocks>
ffff0000000856c8:	52800020 	mov	w0, #0x1                   	// #1
ffff0000000856cc:	97ffed23 	bl	ffff000000080b58 <dump_free_blocks>
ffff0000000856d0:	52800040 	mov	w0, #0x2                   	// #2
ffff0000000856d4:	97ffed21 	bl	ffff000000080b58 <dump_free_blocks>
ffff0000000856d8:	52800060 	mov	w0, #0x3                   	// #3
ffff0000000856dc:	97ffed1f 	bl	ffff000000080b58 <dump_free_blocks>
ffff0000000856e0:	d0000040 	adrp	x0, ffff00000008f000 <pool_slots+0x208>
ffff0000000856e4:	912a2000 	add	x0, x0, #0xa88
ffff0000000856e8:	94000475 	bl	ffff0000000868bc <uart_write_str>
ffff0000000856ec:	f9400fe0 	ldr	x0, [sp, #24]
ffff0000000856f0:	97ffefac 	bl	ffff0000000815a0 <buddy_free>
ffff0000000856f4:	97ffeb4d 	bl	ffff000000080428 <dump_allocated_nodes>
ffff0000000856f8:	d0000040 	adrp	x0, ffff00000008f000 <pool_slots+0x208>
ffff0000000856fc:	91290000 	add	x0, x0, #0xa40
ffff000000085700:	9400046f 	bl	ffff0000000868bc <uart_write_str>
ffff000000085704:	f9400be0 	ldr	x0, [sp, #16]
ffff000000085708:	97ffefa6 	bl	ffff0000000815a0 <buddy_free>
ffff00000008570c:	97ffeb47 	bl	ffff000000080428 <dump_allocated_nodes>
ffff000000085710:	d503201f 	nop
ffff000000085714:	a8c27bfd 	ldp	x29, x30, [sp], #32
ffff000000085718:	d65f03c0 	ret

ffff00000008571c <chunk_test1>:
ffff00000008571c:	a9bb7bfd 	stp	x29, x30, [sp, #-80]!
ffff000000085720:	910003fd 	mov	x29, sp
ffff000000085724:	d0000040 	adrp	x0, ffff00000008f000 <pool_slots+0x208>
ffff000000085728:	91366000 	add	x0, x0, #0xd98
ffff00000008572c:	94000464 	bl	ffff0000000868bc <uart_write_str>
ffff000000085730:	52800200 	mov	w0, #0x10                  	// #16
ffff000000085734:	97fff42d 	bl	ffff0000000827e8 <chunk_alloc>
ffff000000085738:	f90027e0 	str	x0, [sp, #72]
ffff00000008573c:	52800400 	mov	w0, #0x20                  	// #32
ffff000000085740:	97fff42a 	bl	ffff0000000827e8 <chunk_alloc>
ffff000000085744:	f90023e0 	str	x0, [sp, #64]
ffff000000085748:	52800600 	mov	w0, #0x30                  	// #48
ffff00000008574c:	97fff427 	bl	ffff0000000827e8 <chunk_alloc>
ffff000000085750:	f9001fe0 	str	x0, [sp, #56]
ffff000000085754:	52800c00 	mov	w0, #0x60                  	// #96
ffff000000085758:	97fff424 	bl	ffff0000000827e8 <chunk_alloc>
ffff00000008575c:	f9001be0 	str	x0, [sp, #48]
ffff000000085760:	52800200 	mov	w0, #0x10                  	// #16
ffff000000085764:	97fff421 	bl	ffff0000000827e8 <chunk_alloc>
ffff000000085768:	f90017e0 	str	x0, [sp, #40]
ffff00000008576c:	52800400 	mov	w0, #0x20                  	// #32
ffff000000085770:	97fff41e 	bl	ffff0000000827e8 <chunk_alloc>
ffff000000085774:	f90013e0 	str	x0, [sp, #32]
ffff000000085778:	52800600 	mov	w0, #0x30                  	// #48
ffff00000008577c:	97fff41b 	bl	ffff0000000827e8 <chunk_alloc>
ffff000000085780:	f9000fe0 	str	x0, [sp, #24]
ffff000000085784:	52800c00 	mov	w0, #0x60                  	// #96
ffff000000085788:	97fff418 	bl	ffff0000000827e8 <chunk_alloc>
ffff00000008578c:	f9000be0 	str	x0, [sp, #16]
ffff000000085790:	d0000040 	adrp	x0, ffff00000008f000 <pool_slots+0x208>
ffff000000085794:	9137c000 	add	x0, x0, #0xdf0
ffff000000085798:	94000449 	bl	ffff0000000868bc <uart_write_str>
ffff00000008579c:	f94027e0 	ldr	x0, [sp, #72]
ffff0000000857a0:	94000561 	bl	ffff000000086d24 <uart_write_hex>
ffff0000000857a4:	d0000040 	adrp	x0, ffff00000008f000 <pool_slots+0x208>
ffff0000000857a8:	9137e000 	add	x0, x0, #0xdf8
ffff0000000857ac:	94000444 	bl	ffff0000000868bc <uart_write_str>
ffff0000000857b0:	f94023e0 	ldr	x0, [sp, #64]
ffff0000000857b4:	9400055c 	bl	ffff000000086d24 <uart_write_hex>
ffff0000000857b8:	d0000040 	adrp	x0, ffff00000008f000 <pool_slots+0x208>
ffff0000000857bc:	91380000 	add	x0, x0, #0xe00
ffff0000000857c0:	9400043f 	bl	ffff0000000868bc <uart_write_str>
ffff0000000857c4:	f9401fe0 	ldr	x0, [sp, #56]
ffff0000000857c8:	94000557 	bl	ffff000000086d24 <uart_write_hex>
ffff0000000857cc:	d0000040 	adrp	x0, ffff00000008f000 <pool_slots+0x208>
ffff0000000857d0:	91382000 	add	x0, x0, #0xe08
ffff0000000857d4:	9400043a 	bl	ffff0000000868bc <uart_write_str>
ffff0000000857d8:	f9401be0 	ldr	x0, [sp, #48]
ffff0000000857dc:	94000552 	bl	ffff000000086d24 <uart_write_hex>
ffff0000000857e0:	d0000040 	adrp	x0, ffff00000008f000 <pool_slots+0x208>
ffff0000000857e4:	91384000 	add	x0, x0, #0xe10
ffff0000000857e8:	94000435 	bl	ffff0000000868bc <uart_write_str>
ffff0000000857ec:	f94017e0 	ldr	x0, [sp, #40]
ffff0000000857f0:	9400054d 	bl	ffff000000086d24 <uart_write_hex>
ffff0000000857f4:	d0000040 	adrp	x0, ffff00000008f000 <pool_slots+0x208>
ffff0000000857f8:	91386000 	add	x0, x0, #0xe18
ffff0000000857fc:	94000430 	bl	ffff0000000868bc <uart_write_str>
ffff000000085800:	f94013e0 	ldr	x0, [sp, #32]
ffff000000085804:	94000548 	bl	ffff000000086d24 <uart_write_hex>
ffff000000085808:	d0000040 	adrp	x0, ffff00000008f000 <pool_slots+0x208>
ffff00000008580c:	91388000 	add	x0, x0, #0xe20
ffff000000085810:	9400042b 	bl	ffff0000000868bc <uart_write_str>
ffff000000085814:	f9400fe0 	ldr	x0, [sp, #24]
ffff000000085818:	94000543 	bl	ffff000000086d24 <uart_write_hex>
ffff00000008581c:	d0000040 	adrp	x0, ffff00000008f000 <pool_slots+0x208>
ffff000000085820:	9138a000 	add	x0, x0, #0xe28
ffff000000085824:	94000426 	bl	ffff0000000868bc <uart_write_str>
ffff000000085828:	f9400be0 	ldr	x0, [sp, #16]
ffff00000008582c:	9400053e 	bl	ffff000000086d24 <uart_write_hex>
ffff000000085830:	f94027e0 	ldr	x0, [sp, #72]
ffff000000085834:	97fff510 	bl	ffff000000082c74 <chunk_free>
ffff000000085838:	f94023e0 	ldr	x0, [sp, #64]
ffff00000008583c:	97fff50e 	bl	ffff000000082c74 <chunk_free>
ffff000000085840:	f9401fe0 	ldr	x0, [sp, #56]
ffff000000085844:	97fff50c 	bl	ffff000000082c74 <chunk_free>
ffff000000085848:	f9401be0 	ldr	x0, [sp, #48]
ffff00000008584c:	97fff50a 	bl	ffff000000082c74 <chunk_free>
ffff000000085850:	f94017e0 	ldr	x0, [sp, #40]
ffff000000085854:	97fff508 	bl	ffff000000082c74 <chunk_free>
ffff000000085858:	f94013e0 	ldr	x0, [sp, #32]
ffff00000008585c:	97fff506 	bl	ffff000000082c74 <chunk_free>
ffff000000085860:	f9400fe0 	ldr	x0, [sp, #24]
ffff000000085864:	97fff504 	bl	ffff000000082c74 <chunk_free>
ffff000000085868:	f9400be0 	ldr	x0, [sp, #16]
ffff00000008586c:	97fff502 	bl	ffff000000082c74 <chunk_free>
ffff000000085870:	d503201f 	nop
ffff000000085874:	a8c57bfd 	ldp	x29, x30, [sp], #80
ffff000000085878:	d65f03c0 	ret

ffff00000008587c <chunk_test2>:
ffff00000008587c:	d12603ff 	sub	sp, sp, #0x980
ffff000000085880:	a9007bfd 	stp	x29, x30, [sp]
ffff000000085884:	910003fd 	mov	x29, sp
ffff000000085888:	d0000040 	adrp	x0, ffff00000008f000 <pool_slots+0x208>
ffff00000008588c:	9138c000 	add	x0, x0, #0xe30
ffff000000085890:	9400040b 	bl	ffff0000000868bc <uart_write_str>
ffff000000085894:	b9097fff 	str	wzr, [sp, #2428]
ffff000000085898:	1400000b 	b	ffff0000000858c4 <chunk_test2+0x48>
ffff00000008589c:	52800200 	mov	w0, #0x10                  	// #16
ffff0000000858a0:	97fff3d2 	bl	ffff0000000827e8 <chunk_alloc>
ffff0000000858a4:	aa0003e2 	mov	x2, x0
ffff0000000858a8:	b9897fe0 	ldrsw	x0, [sp, #2428]
ffff0000000858ac:	d37df000 	lsl	x0, x0, #3
ffff0000000858b0:	910063e1 	add	x1, sp, #0x18
ffff0000000858b4:	f8206822 	str	x2, [x1, x0]
ffff0000000858b8:	b9497fe0 	ldr	w0, [sp, #2428]
ffff0000000858bc:	11000400 	add	w0, w0, #0x1
ffff0000000858c0:	b9097fe0 	str	w0, [sp, #2428]
ffff0000000858c4:	b9497fe0 	ldr	w0, [sp, #2428]
ffff0000000858c8:	7104ac1f 	cmp	w0, #0x12b
ffff0000000858cc:	54fffe8d 	b.le	ffff00000008589c <chunk_test2+0x20>
ffff0000000858d0:	d0000040 	adrp	x0, ffff00000008f000 <pool_slots+0x208>
ffff0000000858d4:	913a4000 	add	x0, x0, #0xe90
ffff0000000858d8:	940003f9 	bl	ffff0000000868bc <uart_write_str>
ffff0000000858dc:	f9400fe0 	ldr	x0, [sp, #24]
ffff0000000858e0:	94000511 	bl	ffff000000086d24 <uart_write_hex>
ffff0000000858e4:	d0000040 	adrp	x0, ffff00000008f000 <pool_slots+0x208>
ffff0000000858e8:	913a8000 	add	x0, x0, #0xea0
ffff0000000858ec:	940003f4 	bl	ffff0000000868bc <uart_write_str>
ffff0000000858f0:	f9440be0 	ldr	x0, [sp, #2064]
ffff0000000858f4:	9400050c 	bl	ffff000000086d24 <uart_write_hex>
ffff0000000858f8:	d0000040 	adrp	x0, ffff00000008f000 <pool_slots+0x208>
ffff0000000858fc:	913ae000 	add	x0, x0, #0xeb8
ffff000000085900:	940003ef 	bl	ffff0000000868bc <uart_write_str>
ffff000000085904:	f9440fe0 	ldr	x0, [sp, #2072]
ffff000000085908:	94000507 	bl	ffff000000086d24 <uart_write_hex>
ffff00000008590c:	d0000040 	adrp	x0, ffff00000008f000 <pool_slots+0x208>
ffff000000085910:	913b4000 	add	x0, x0, #0xed0
ffff000000085914:	940003ea 	bl	ffff0000000868bc <uart_write_str>
ffff000000085918:	f944bbe0 	ldr	x0, [sp, #2416]
ffff00000008591c:	94000502 	bl	ffff000000086d24 <uart_write_hex>
ffff000000085920:	d0000040 	adrp	x0, ffff00000008f000 <pool_slots+0x208>
ffff000000085924:	913ba000 	add	x0, x0, #0xee8
ffff000000085928:	940003e5 	bl	ffff0000000868bc <uart_write_str>
ffff00000008592c:	97fff563 	bl	ffff000000082eb8 <dump_chunk_pools>
ffff000000085930:	b9097bff 	str	wzr, [sp, #2424]
ffff000000085934:	14000009 	b	ffff000000085958 <chunk_test2+0xdc>
ffff000000085938:	b9897be0 	ldrsw	x0, [sp, #2424]
ffff00000008593c:	d37df000 	lsl	x0, x0, #3
ffff000000085940:	910063e1 	add	x1, sp, #0x18
ffff000000085944:	f8606820 	ldr	x0, [x1, x0]
ffff000000085948:	97fff4cb 	bl	ffff000000082c74 <chunk_free>
ffff00000008594c:	b9497be0 	ldr	w0, [sp, #2424]
ffff000000085950:	11000400 	add	w0, w0, #0x1
ffff000000085954:	b9097be0 	str	w0, [sp, #2424]
ffff000000085958:	b9497be0 	ldr	w0, [sp, #2424]
ffff00000008595c:	7104ac1f 	cmp	w0, #0x12b
ffff000000085960:	54fffecd 	b.le	ffff000000085938 <chunk_test2+0xbc>
ffff000000085964:	d503201f 	nop
ffff000000085968:	d503201f 	nop
ffff00000008596c:	a9407bfd 	ldp	x29, x30, [sp]
ffff000000085970:	912603ff 	add	sp, sp, #0x980
ffff000000085974:	d65f03c0 	ret

ffff000000085978 <chunk_test3>:
ffff000000085978:	a9bd7bfd 	stp	x29, x30, [sp, #-48]!
ffff00000008597c:	910003fd 	mov	x29, sp
ffff000000085980:	d0000040 	adrp	x0, ffff00000008f000 <pool_slots+0x208>
ffff000000085984:	913c4000 	add	x0, x0, #0xf10
ffff000000085988:	940003cd 	bl	ffff0000000868bc <uart_write_str>
ffff00000008598c:	52800200 	mov	w0, #0x10                  	// #16
ffff000000085990:	97fff396 	bl	ffff0000000827e8 <chunk_alloc>
ffff000000085994:	f90017e0 	str	x0, [sp, #40]
ffff000000085998:	d0000040 	adrp	x0, ffff00000008f000 <pool_slots+0x208>
ffff00000008599c:	913d6000 	add	x0, x0, #0xf58
ffff0000000859a0:	940003c7 	bl	ffff0000000868bc <uart_write_str>
ffff0000000859a4:	f94017e0 	ldr	x0, [sp, #40]
ffff0000000859a8:	940004df 	bl	ffff000000086d24 <uart_write_hex>
ffff0000000859ac:	52800200 	mov	w0, #0x10                  	// #16
ffff0000000859b0:	97fff38e 	bl	ffff0000000827e8 <chunk_alloc>
ffff0000000859b4:	f90013e0 	str	x0, [sp, #32]
ffff0000000859b8:	d0000040 	adrp	x0, ffff00000008f000 <pool_slots+0x208>
ffff0000000859bc:	913da000 	add	x0, x0, #0xf68
ffff0000000859c0:	940003bf 	bl	ffff0000000868bc <uart_write_str>
ffff0000000859c4:	f94013e0 	ldr	x0, [sp, #32]
ffff0000000859c8:	940004d7 	bl	ffff000000086d24 <uart_write_hex>
ffff0000000859cc:	f94017e0 	ldr	x0, [sp, #40]
ffff0000000859d0:	97fff4a9 	bl	ffff000000082c74 <chunk_free>
ffff0000000859d4:	52800200 	mov	w0, #0x10                  	// #16
ffff0000000859d8:	97fff384 	bl	ffff0000000827e8 <chunk_alloc>
ffff0000000859dc:	f9000fe0 	str	x0, [sp, #24]
ffff0000000859e0:	d0000040 	adrp	x0, ffff00000008f000 <pool_slots+0x208>
ffff0000000859e4:	913de000 	add	x0, x0, #0xf78
ffff0000000859e8:	940003b5 	bl	ffff0000000868bc <uart_write_str>
ffff0000000859ec:	f9400fe0 	ldr	x0, [sp, #24]
ffff0000000859f0:	940004cd 	bl	ffff000000086d24 <uart_write_hex>
ffff0000000859f4:	f94013e0 	ldr	x0, [sp, #32]
ffff0000000859f8:	97fff49f 	bl	ffff000000082c74 <chunk_free>
ffff0000000859fc:	f9400fe0 	ldr	x0, [sp, #24]
ffff000000085a00:	97fff49d 	bl	ffff000000082c74 <chunk_free>
ffff000000085a04:	d503201f 	nop
ffff000000085a08:	a8c37bfd 	ldp	x29, x30, [sp], #48
ffff000000085a0c:	d65f03c0 	ret

ffff000000085a10 <mix_test1>:
ffff000000085a10:	a9bb7bfd 	stp	x29, x30, [sp, #-80]!
ffff000000085a14:	910003fd 	mov	x29, sp
ffff000000085a18:	d0000040 	adrp	x0, ffff00000008f000 <pool_slots+0x208>
ffff000000085a1c:	9124a000 	add	x0, x0, #0x928
ffff000000085a20:	940003a7 	bl	ffff0000000868bc <uart_write_str>
ffff000000085a24:	97ffea81 	bl	ffff000000080428 <dump_allocated_nodes>
ffff000000085a28:	52800000 	mov	w0, #0x0                   	// #0
ffff000000085a2c:	97ffec4b 	bl	ffff000000080b58 <dump_free_blocks>
ffff000000085a30:	52800020 	mov	w0, #0x1                   	// #1
ffff000000085a34:	97ffec49 	bl	ffff000000080b58 <dump_free_blocks>
ffff000000085a38:	52800040 	mov	w0, #0x2                   	// #2
ffff000000085a3c:	97ffec47 	bl	ffff000000080b58 <dump_free_blocks>
ffff000000085a40:	97fff51e 	bl	ffff000000082eb8 <dump_chunk_pools>
ffff000000085a44:	d0000040 	adrp	x0, ffff00000008f000 <pool_slots+0x208>
ffff000000085a48:	913e4000 	add	x0, x0, #0xf90
ffff000000085a4c:	9400039c 	bl	ffff0000000868bc <uart_write_str>
ffff000000085a50:	d2800200 	mov	x0, #0x10                  	// #16
ffff000000085a54:	97fffe20 	bl	ffff0000000852d4 <kmalloc>
ffff000000085a58:	f90027e0 	str	x0, [sp, #72]
ffff000000085a5c:	d2800600 	mov	x0, #0x30                  	// #48
ffff000000085a60:	97fffe1d 	bl	ffff0000000852d4 <kmalloc>
ffff000000085a64:	f90023e0 	str	x0, [sp, #64]
ffff000000085a68:	d2808000 	mov	x0, #0x400                 	// #1024
ffff000000085a6c:	97fffe1a 	bl	ffff0000000852d4 <kmalloc>
ffff000000085a70:	f9001fe0 	str	x0, [sp, #56]
ffff000000085a74:	d2808000 	mov	x0, #0x400                 	// #1024
ffff000000085a78:	97fffe17 	bl	ffff0000000852d4 <kmalloc>
ffff000000085a7c:	f9001be0 	str	x0, [sp, #48]
ffff000000085a80:	97ffea6a 	bl	ffff000000080428 <dump_allocated_nodes>
ffff000000085a84:	52800000 	mov	w0, #0x0                   	// #0
ffff000000085a88:	97ffec34 	bl	ffff000000080b58 <dump_free_blocks>
ffff000000085a8c:	52800020 	mov	w0, #0x1                   	// #1
ffff000000085a90:	97ffec32 	bl	ffff000000080b58 <dump_free_blocks>
ffff000000085a94:	52800040 	mov	w0, #0x2                   	// #2
ffff000000085a98:	97ffec30 	bl	ffff000000080b58 <dump_free_blocks>
ffff000000085a9c:	97fff507 	bl	ffff000000082eb8 <dump_chunk_pools>
ffff000000085aa0:	d0000040 	adrp	x0, ffff00000008f000 <pool_slots+0x208>
ffff000000085aa4:	913f6000 	add	x0, x0, #0xfd8
ffff000000085aa8:	94000385 	bl	ffff0000000868bc <uart_write_str>
ffff000000085aac:	d281f400 	mov	x0, #0xfa0                 	// #4000
ffff000000085ab0:	97fffe09 	bl	ffff0000000852d4 <kmalloc>
ffff000000085ab4:	f90017e0 	str	x0, [sp, #40]
ffff000000085ab8:	d281f400 	mov	x0, #0xfa0                 	// #4000
ffff000000085abc:	97fffe06 	bl	ffff0000000852d4 <kmalloc>
ffff000000085ac0:	f90013e0 	str	x0, [sp, #32]
ffff000000085ac4:	d283e800 	mov	x0, #0x1f40                	// #8000
ffff000000085ac8:	97fffe03 	bl	ffff0000000852d4 <kmalloc>
ffff000000085acc:	f9000fe0 	str	x0, [sp, #24]
ffff000000085ad0:	97ffea56 	bl	ffff000000080428 <dump_allocated_nodes>
ffff000000085ad4:	52800000 	mov	w0, #0x0                   	// #0
ffff000000085ad8:	97ffec20 	bl	ffff000000080b58 <dump_free_blocks>
ffff000000085adc:	52800020 	mov	w0, #0x1                   	// #1
ffff000000085ae0:	97ffec1e 	bl	ffff000000080b58 <dump_free_blocks>
ffff000000085ae4:	52800040 	mov	w0, #0x2                   	// #2
ffff000000085ae8:	97ffec1c 	bl	ffff000000080b58 <dump_free_blocks>
ffff000000085aec:	97fff4f3 	bl	ffff000000082eb8 <dump_chunk_pools>
ffff000000085af0:	f0000040 	adrp	x0, ffff000000090000 <pool_slots+0x6f0>
ffff000000085af4:	91006000 	add	x0, x0, #0x18
ffff000000085af8:	94000371 	bl	ffff0000000868bc <uart_write_str>
ffff000000085afc:	f94027e0 	ldr	x0, [sp, #72]
ffff000000085b00:	97fffdc5 	bl	ffff000000085214 <kfree>
ffff000000085b04:	f94023e0 	ldr	x0, [sp, #64]
ffff000000085b08:	97fffdc3 	bl	ffff000000085214 <kfree>
ffff000000085b0c:	f9401fe0 	ldr	x0, [sp, #56]
ffff000000085b10:	97fffdc1 	bl	ffff000000085214 <kfree>
ffff000000085b14:	f9401be0 	ldr	x0, [sp, #48]
ffff000000085b18:	97fffdbf 	bl	ffff000000085214 <kfree>
ffff000000085b1c:	97ffea43 	bl	ffff000000080428 <dump_allocated_nodes>
ffff000000085b20:	52800000 	mov	w0, #0x0                   	// #0
ffff000000085b24:	97ffec0d 	bl	ffff000000080b58 <dump_free_blocks>
ffff000000085b28:	52800020 	mov	w0, #0x1                   	// #1
ffff000000085b2c:	97ffec0b 	bl	ffff000000080b58 <dump_free_blocks>
ffff000000085b30:	52800040 	mov	w0, #0x2                   	// #2
ffff000000085b34:	97ffec09 	bl	ffff000000080b58 <dump_free_blocks>
ffff000000085b38:	97fff4e0 	bl	ffff000000082eb8 <dump_chunk_pools>
ffff000000085b3c:	f0000040 	adrp	x0, ffff000000090000 <pool_slots+0x6f0>
ffff000000085b40:	91018000 	add	x0, x0, #0x60
ffff000000085b44:	9400035e 	bl	ffff0000000868bc <uart_write_str>
ffff000000085b48:	f94013e0 	ldr	x0, [sp, #32]
ffff000000085b4c:	97fffdb2 	bl	ffff000000085214 <kfree>
ffff000000085b50:	f9400fe0 	ldr	x0, [sp, #24]
ffff000000085b54:	97fffdb0 	bl	ffff000000085214 <kfree>
ffff000000085b58:	f94017e0 	ldr	x0, [sp, #40]
ffff000000085b5c:	97fffdae 	bl	ffff000000085214 <kfree>
ffff000000085b60:	97ffea32 	bl	ffff000000080428 <dump_allocated_nodes>
ffff000000085b64:	52800000 	mov	w0, #0x0                   	// #0
ffff000000085b68:	97ffebfc 	bl	ffff000000080b58 <dump_free_blocks>
ffff000000085b6c:	52800020 	mov	w0, #0x1                   	// #1
ffff000000085b70:	97ffebfa 	bl	ffff000000080b58 <dump_free_blocks>
ffff000000085b74:	52800040 	mov	w0, #0x2                   	// #2
ffff000000085b78:	97ffebf8 	bl	ffff000000080b58 <dump_free_blocks>
ffff000000085b7c:	97fff4cf 	bl	ffff000000082eb8 <dump_chunk_pools>
ffff000000085b80:	d503201f 	nop
ffff000000085b84:	a8c57bfd 	ldp	x29, x30, [sp], #80
ffff000000085b88:	d65f03c0 	ret

ffff000000085b8c <mix_test2>:
ffff000000085b8c:	d282600c 	mov	x12, #0x1300                	// #4864
ffff000000085b90:	cb2c63ff 	sub	sp, sp, x12
ffff000000085b94:	a9007bfd 	stp	x29, x30, [sp]
ffff000000085b98:	910003fd 	mov	x29, sp
ffff000000085b9c:	f0000040 	adrp	x0, ffff000000090000 <pool_slots+0x6f0>
ffff000000085ba0:	91028000 	add	x0, x0, #0xa0
ffff000000085ba4:	94000346 	bl	ffff0000000868bc <uart_write_str>
ffff000000085ba8:	97ffea20 	bl	ffff000000080428 <dump_allocated_nodes>
ffff000000085bac:	52800000 	mov	w0, #0x0                   	// #0
ffff000000085bb0:	97ffebea 	bl	ffff000000080b58 <dump_free_blocks>
ffff000000085bb4:	52800020 	mov	w0, #0x1                   	// #1
ffff000000085bb8:	97ffebe8 	bl	ffff000000080b58 <dump_free_blocks>
ffff000000085bbc:	52800040 	mov	w0, #0x2                   	// #2
ffff000000085bc0:	97ffebe6 	bl	ffff000000080b58 <dump_free_blocks>
ffff000000085bc4:	97fff4bd 	bl	ffff000000082eb8 <dump_chunk_pools>
ffff000000085bc8:	f0000040 	adrp	x0, ffff000000090000 <pool_slots+0x6f0>
ffff000000085bcc:	91038000 	add	x0, x0, #0xe0
ffff000000085bd0:	9400033b 	bl	ffff0000000868bc <uart_write_str>
ffff000000085bd4:	b912ffff 	str	wzr, [sp, #4860]
ffff000000085bd8:	1400000b 	b	ffff000000085c04 <mix_test2+0x78>
ffff000000085bdc:	d2800200 	mov	x0, #0x10                  	// #16
ffff000000085be0:	97fffdbd 	bl	ffff0000000852d4 <kmalloc>
ffff000000085be4:	aa0003e2 	mov	x2, x0
ffff000000085be8:	b992ffe0 	ldrsw	x0, [sp, #4860]
ffff000000085bec:	d37df000 	lsl	x0, x0, #3
ffff000000085bf0:	9125e3e1 	add	x1, sp, #0x978
ffff000000085bf4:	f8206822 	str	x2, [x1, x0]
ffff000000085bf8:	b952ffe0 	ldr	w0, [sp, #4860]
ffff000000085bfc:	11000400 	add	w0, w0, #0x1
ffff000000085c00:	b912ffe0 	str	w0, [sp, #4860]
ffff000000085c04:	b952ffe0 	ldr	w0, [sp, #4860]
ffff000000085c08:	7104ac1f 	cmp	w0, #0x12b
ffff000000085c0c:	54fffe8d 	b.le	ffff000000085bdc <mix_test2+0x50>
ffff000000085c10:	97ffea06 	bl	ffff000000080428 <dump_allocated_nodes>
ffff000000085c14:	52800000 	mov	w0, #0x0                   	// #0
ffff000000085c18:	97ffebd0 	bl	ffff000000080b58 <dump_free_blocks>
ffff000000085c1c:	52800020 	mov	w0, #0x1                   	// #1
ffff000000085c20:	97ffebce 	bl	ffff000000080b58 <dump_free_blocks>
ffff000000085c24:	52800040 	mov	w0, #0x2                   	// #2
ffff000000085c28:	97ffebcc 	bl	ffff000000080b58 <dump_free_blocks>
ffff000000085c2c:	97fff4a3 	bl	ffff000000082eb8 <dump_chunk_pools>
ffff000000085c30:	f0000040 	adrp	x0, ffff000000090000 <pool_slots+0x6f0>
ffff000000085c34:	9104e000 	add	x0, x0, #0x138
ffff000000085c38:	94000321 	bl	ffff0000000868bc <uart_write_str>
ffff000000085c3c:	d281f400 	mov	x0, #0xfa0                 	// #4000
ffff000000085c40:	97fffda5 	bl	ffff0000000852d4 <kmalloc>
ffff000000085c44:	f90977e0 	str	x0, [sp, #4840]
ffff000000085c48:	d281f400 	mov	x0, #0xfa0                 	// #4000
ffff000000085c4c:	97fffda2 	bl	ffff0000000852d4 <kmalloc>
ffff000000085c50:	f90973e0 	str	x0, [sp, #4832]
ffff000000085c54:	d283e800 	mov	x0, #0x1f40                	// #8000
ffff000000085c58:	97fffd9f 	bl	ffff0000000852d4 <kmalloc>
ffff000000085c5c:	f9096fe0 	str	x0, [sp, #4824]
ffff000000085c60:	97ffe9f2 	bl	ffff000000080428 <dump_allocated_nodes>
ffff000000085c64:	52800000 	mov	w0, #0x0                   	// #0
ffff000000085c68:	97ffebbc 	bl	ffff000000080b58 <dump_free_blocks>
ffff000000085c6c:	52800020 	mov	w0, #0x1                   	// #1
ffff000000085c70:	97ffebba 	bl	ffff000000080b58 <dump_free_blocks>
ffff000000085c74:	52800040 	mov	w0, #0x2                   	// #2
ffff000000085c78:	97ffebb8 	bl	ffff000000080b58 <dump_free_blocks>
ffff000000085c7c:	97fff48f 	bl	ffff000000082eb8 <dump_chunk_pools>
ffff000000085c80:	f0000040 	adrp	x0, ffff000000090000 <pool_slots+0x6f0>
ffff000000085c84:	91060000 	add	x0, x0, #0x180
ffff000000085c88:	9400030d 	bl	ffff0000000868bc <uart_write_str>
ffff000000085c8c:	b912fbff 	str	wzr, [sp, #4856]
ffff000000085c90:	1400000b 	b	ffff000000085cbc <mix_test2+0x130>
ffff000000085c94:	d2800200 	mov	x0, #0x10                  	// #16
ffff000000085c98:	97fffd8f 	bl	ffff0000000852d4 <kmalloc>
ffff000000085c9c:	aa0003e2 	mov	x2, x0
ffff000000085ca0:	b992fbe0 	ldrsw	x0, [sp, #4856]
ffff000000085ca4:	d37df000 	lsl	x0, x0, #3
ffff000000085ca8:	910063e1 	add	x1, sp, #0x18
ffff000000085cac:	f8206822 	str	x2, [x1, x0]
ffff000000085cb0:	b952fbe0 	ldr	w0, [sp, #4856]
ffff000000085cb4:	11000400 	add	w0, w0, #0x1
ffff000000085cb8:	b912fbe0 	str	w0, [sp, #4856]
ffff000000085cbc:	b952fbe0 	ldr	w0, [sp, #4856]
ffff000000085cc0:	7104ac1f 	cmp	w0, #0x12b
ffff000000085cc4:	54fffe8d 	b.le	ffff000000085c94 <mix_test2+0x108>
ffff000000085cc8:	97ffe9d8 	bl	ffff000000080428 <dump_allocated_nodes>
ffff000000085ccc:	52800000 	mov	w0, #0x0                   	// #0
ffff000000085cd0:	97ffeba2 	bl	ffff000000080b58 <dump_free_blocks>
ffff000000085cd4:	52800020 	mov	w0, #0x1                   	// #1
ffff000000085cd8:	97ffeba0 	bl	ffff000000080b58 <dump_free_blocks>
ffff000000085cdc:	52800040 	mov	w0, #0x2                   	// #2
ffff000000085ce0:	97ffeb9e 	bl	ffff000000080b58 <dump_free_blocks>
ffff000000085ce4:	97fff475 	bl	ffff000000082eb8 <dump_chunk_pools>
ffff000000085ce8:	f0000040 	adrp	x0, ffff000000090000 <pool_slots+0x6f0>
ffff000000085cec:	91076000 	add	x0, x0, #0x1d8
ffff000000085cf0:	940002f3 	bl	ffff0000000868bc <uart_write_str>
ffff000000085cf4:	f94977e0 	ldr	x0, [sp, #4840]
ffff000000085cf8:	97fffd47 	bl	ffff000000085214 <kfree>
ffff000000085cfc:	f94973e0 	ldr	x0, [sp, #4832]
ffff000000085d00:	97fffd45 	bl	ffff000000085214 <kfree>
ffff000000085d04:	f9496fe0 	ldr	x0, [sp, #4824]
ffff000000085d08:	97fffd43 	bl	ffff000000085214 <kfree>
ffff000000085d0c:	97ffe9c7 	bl	ffff000000080428 <dump_allocated_nodes>
ffff000000085d10:	52800000 	mov	w0, #0x0                   	// #0
ffff000000085d14:	97ffeb91 	bl	ffff000000080b58 <dump_free_blocks>
ffff000000085d18:	52800020 	mov	w0, #0x1                   	// #1
ffff000000085d1c:	97ffeb8f 	bl	ffff000000080b58 <dump_free_blocks>
ffff000000085d20:	52800040 	mov	w0, #0x2                   	// #2
ffff000000085d24:	97ffeb8d 	bl	ffff000000080b58 <dump_free_blocks>
ffff000000085d28:	97fff464 	bl	ffff000000082eb8 <dump_chunk_pools>
ffff000000085d2c:	f0000040 	adrp	x0, ffff000000090000 <pool_slots+0x6f0>
ffff000000085d30:	91088000 	add	x0, x0, #0x220
ffff000000085d34:	940002e2 	bl	ffff0000000868bc <uart_write_str>
ffff000000085d38:	b912f7ff 	str	wzr, [sp, #4852]
ffff000000085d3c:	14000009 	b	ffff000000085d60 <mix_test2+0x1d4>
ffff000000085d40:	b992f7e0 	ldrsw	x0, [sp, #4852]
ffff000000085d44:	d37df000 	lsl	x0, x0, #3
ffff000000085d48:	9125e3e1 	add	x1, sp, #0x978
ffff000000085d4c:	f8606820 	ldr	x0, [x1, x0]
ffff000000085d50:	97fffd31 	bl	ffff000000085214 <kfree>
ffff000000085d54:	b952f7e0 	ldr	w0, [sp, #4852]
ffff000000085d58:	11000400 	add	w0, w0, #0x1
ffff000000085d5c:	b912f7e0 	str	w0, [sp, #4852]
ffff000000085d60:	b952f7e0 	ldr	w0, [sp, #4852]
ffff000000085d64:	7104ac1f 	cmp	w0, #0x12b
ffff000000085d68:	54fffecd 	b.le	ffff000000085d40 <mix_test2+0x1b4>
ffff000000085d6c:	97ffe9af 	bl	ffff000000080428 <dump_allocated_nodes>
ffff000000085d70:	52800000 	mov	w0, #0x0                   	// #0
ffff000000085d74:	97ffeb79 	bl	ffff000000080b58 <dump_free_blocks>
ffff000000085d78:	52800020 	mov	w0, #0x1                   	// #1
ffff000000085d7c:	97ffeb77 	bl	ffff000000080b58 <dump_free_blocks>
ffff000000085d80:	52800040 	mov	w0, #0x2                   	// #2
ffff000000085d84:	97ffeb75 	bl	ffff000000080b58 <dump_free_blocks>
ffff000000085d88:	97fff44c 	bl	ffff000000082eb8 <dump_chunk_pools>
ffff000000085d8c:	f0000040 	adrp	x0, ffff000000090000 <pool_slots+0x6f0>
ffff000000085d90:	9109c000 	add	x0, x0, #0x270
ffff000000085d94:	940002ca 	bl	ffff0000000868bc <uart_write_str>
ffff000000085d98:	b912f3ff 	str	wzr, [sp, #4848]
ffff000000085d9c:	14000009 	b	ffff000000085dc0 <mix_test2+0x234>
ffff000000085da0:	b992f3e0 	ldrsw	x0, [sp, #4848]
ffff000000085da4:	d37df000 	lsl	x0, x0, #3
ffff000000085da8:	910063e1 	add	x1, sp, #0x18
ffff000000085dac:	f8606820 	ldr	x0, [x1, x0]
ffff000000085db0:	97fffd19 	bl	ffff000000085214 <kfree>
ffff000000085db4:	b952f3e0 	ldr	w0, [sp, #4848]
ffff000000085db8:	11000400 	add	w0, w0, #0x1
ffff000000085dbc:	b912f3e0 	str	w0, [sp, #4848]
ffff000000085dc0:	b952f3e0 	ldr	w0, [sp, #4848]
ffff000000085dc4:	7104ac1f 	cmp	w0, #0x12b
ffff000000085dc8:	54fffecd 	b.le	ffff000000085da0 <mix_test2+0x214>
ffff000000085dcc:	97ffe997 	bl	ffff000000080428 <dump_allocated_nodes>
ffff000000085dd0:	52800000 	mov	w0, #0x0                   	// #0
ffff000000085dd4:	97ffeb61 	bl	ffff000000080b58 <dump_free_blocks>
ffff000000085dd8:	52800020 	mov	w0, #0x1                   	// #1
ffff000000085ddc:	97ffeb5f 	bl	ffff000000080b58 <dump_free_blocks>
ffff000000085de0:	52800040 	mov	w0, #0x2                   	// #2
ffff000000085de4:	97ffeb5d 	bl	ffff000000080b58 <dump_free_blocks>
ffff000000085de8:	97fff434 	bl	ffff000000082eb8 <dump_chunk_pools>
ffff000000085dec:	d503201f 	nop
ffff000000085df0:	a9407bfd 	ldp	x29, x30, [sp]
ffff000000085df4:	d282600c 	mov	x12, #0x1300                	// #4864
ffff000000085df8:	8b2c63ff 	add	sp, sp, x12
ffff000000085dfc:	d65f03c0 	ret

ffff000000085e00 <enable_interrupt>:
ffff000000085e00:	d5034fff 	msr	daifclr, #0xf
ffff000000085e04:	d503201f 	nop
ffff000000085e08:	d65f03c0 	ret

ffff000000085e0c <disable_interrupt>:
ffff000000085e0c:	d5034fdf 	msr	daifset, #0xf
ffff000000085e10:	d503201f 	nop
ffff000000085e14:	d65f03c0 	ret

ffff000000085e18 <set_gpio_uart>:
ffff000000085e18:	f81f0ff3 	str	x19, [sp, #-16]!
ffff000000085e1c:	d2800080 	mov	x0, #0x4                   	// #4
ffff000000085e20:	f2a7e400 	movk	x0, #0x3f20, lsl #16
ffff000000085e24:	f2ffffe0 	movk	x0, #0xffff, lsl #48
ffff000000085e28:	b9400013 	ldr	w19, [x0]
ffff000000085e2c:	120e6673 	and	w19, w19, #0xfffc0fff
ffff000000085e30:	52840000 	mov	w0, #0x2000                	// #8192
ffff000000085e34:	72a00020 	movk	w0, #0x1, lsl #16
ffff000000085e38:	2a000273 	orr	w19, w19, w0
ffff000000085e3c:	d2800080 	mov	x0, #0x4                   	// #4
ffff000000085e40:	f2a7e400 	movk	x0, #0x3f20, lsl #16
ffff000000085e44:	f2ffffe0 	movk	x0, #0xffff, lsl #48
ffff000000085e48:	b9000013 	str	w19, [x0]
ffff000000085e4c:	d2801280 	mov	x0, #0x94                  	// #148
ffff000000085e50:	f2a7e400 	movk	x0, #0x3f20, lsl #16
ffff000000085e54:	f2ffffe0 	movk	x0, #0xffff, lsl #48
ffff000000085e58:	b900001f 	str	wzr, [x0]
ffff000000085e5c:	52802593 	mov	w19, #0x12c                 	// #300
ffff000000085e60:	14000003 	b	ffff000000085e6c <set_gpio_uart+0x54>
ffff000000085e64:	d503201f 	nop
ffff000000085e68:	51000673 	sub	w19, w19, #0x1
ffff000000085e6c:	7100027f 	cmp	w19, #0x0
ffff000000085e70:	54ffffa1 	b.ne	ffff000000085e64 <set_gpio_uart+0x4c>  // b.any
ffff000000085e74:	d2801300 	mov	x0, #0x98                  	// #152
ffff000000085e78:	f2a7e400 	movk	x0, #0x3f20, lsl #16
ffff000000085e7c:	f2ffffe0 	movk	x0, #0xffff, lsl #48
ffff000000085e80:	52980001 	mov	w1, #0xc000                	// #49152
ffff000000085e84:	b9000001 	str	w1, [x0]
ffff000000085e88:	52802593 	mov	w19, #0x12c                 	// #300
ffff000000085e8c:	14000003 	b	ffff000000085e98 <set_gpio_uart+0x80>
ffff000000085e90:	d503201f 	nop
ffff000000085e94:	51000673 	sub	w19, w19, #0x1
ffff000000085e98:	7100027f 	cmp	w19, #0x0
ffff000000085e9c:	54ffffa1 	b.ne	ffff000000085e90 <set_gpio_uart+0x78>  // b.any
ffff000000085ea0:	d2801300 	mov	x0, #0x98                  	// #152
ffff000000085ea4:	f2a7e400 	movk	x0, #0x3f20, lsl #16
ffff000000085ea8:	f2ffffe0 	movk	x0, #0xffff, lsl #48
ffff000000085eac:	b900001f 	str	wzr, [x0]
ffff000000085eb0:	d503201f 	nop
ffff000000085eb4:	f84107f3 	ldr	x19, [sp], #16
ffff000000085eb8:	d65f03c0 	ret

ffff000000085ebc <enable_uart_interrupt>:
ffff000000085ebc:	d10043ff 	sub	sp, sp, #0x10
ffff000000085ec0:	d2964200 	mov	x0, #0xb210                	// #45584
ffff000000085ec4:	f2a7e000 	movk	x0, #0x3f00, lsl #16
ffff000000085ec8:	f2ffffe0 	movk	x0, #0xffff, lsl #48
ffff000000085ecc:	b9400001 	ldr	w1, [x0]
ffff000000085ed0:	d2964200 	mov	x0, #0xb210                	// #45584
ffff000000085ed4:	f2a7e000 	movk	x0, #0x3f00, lsl #16
ffff000000085ed8:	f2ffffe0 	movk	x0, #0xffff, lsl #48
ffff000000085edc:	32030021 	orr	w1, w1, #0x20000000
ffff000000085ee0:	b9000001 	str	w1, [x0]
ffff000000085ee4:	d28a0880 	mov	x0, #0x5044                	// #20548
ffff000000085ee8:	f2a7e420 	movk	x0, #0x3f21, lsl #16
ffff000000085eec:	f2ffffe0 	movk	x0, #0xffff, lsl #48
ffff000000085ef0:	b9400001 	ldr	w1, [x0]
ffff000000085ef4:	d28a0880 	mov	x0, #0x5044                	// #20548
ffff000000085ef8:	f2a7e420 	movk	x0, #0x3f21, lsl #16
ffff000000085efc:	f2ffffe0 	movk	x0, #0xffff, lsl #48
ffff000000085f00:	32000021 	orr	w1, w1, #0x1
ffff000000085f04:	b9000001 	str	w1, [x0]
ffff000000085f08:	d50342ff 	msr	daifclr, #0x2
ffff000000085f0c:	52884800 	mov	w0, #0x4240                	// #16960
ffff000000085f10:	72a001e0 	movk	w0, #0xf, lsl #16
ffff000000085f14:	b9000fe0 	str	w0, [sp, #12]
ffff000000085f18:	14000002 	b	ffff000000085f20 <enable_uart_interrupt+0x64>
ffff000000085f1c:	d503201f 	nop
ffff000000085f20:	b9400fe0 	ldr	w0, [sp, #12]
ffff000000085f24:	51000401 	sub	w1, w0, #0x1
ffff000000085f28:	b9000fe1 	str	w1, [sp, #12]
ffff000000085f2c:	7100001f 	cmp	w0, #0x0
ffff000000085f30:	54ffff61 	b.ne	ffff000000085f1c <enable_uart_interrupt+0x60>  // b.any
ffff000000085f34:	d503201f 	nop
ffff000000085f38:	d503201f 	nop
ffff000000085f3c:	910043ff 	add	sp, sp, #0x10
ffff000000085f40:	d65f03c0 	ret

ffff000000085f44 <disable_uart_interrupt>:
ffff000000085f44:	d10043ff 	sub	sp, sp, #0x10
ffff000000085f48:	d28a0880 	mov	x0, #0x5044                	// #20548
ffff000000085f4c:	f2a7e420 	movk	x0, #0x3f21, lsl #16
ffff000000085f50:	f2ffffe0 	movk	x0, #0xffff, lsl #48
ffff000000085f54:	b9400001 	ldr	w1, [x0]
ffff000000085f58:	d28a0880 	mov	x0, #0x5044                	// #20548
ffff000000085f5c:	f2a7e420 	movk	x0, #0x3f21, lsl #16
ffff000000085f60:	f2ffffe0 	movk	x0, #0xffff, lsl #48
ffff000000085f64:	121f7821 	and	w1, w1, #0xfffffffe
ffff000000085f68:	b9000001 	str	w1, [x0]
ffff000000085f6c:	d28a0880 	mov	x0, #0x5044                	// #20548
ffff000000085f70:	f2a7e420 	movk	x0, #0x3f21, lsl #16
ffff000000085f74:	f2ffffe0 	movk	x0, #0xffff, lsl #48
ffff000000085f78:	b9400001 	ldr	w1, [x0]
ffff000000085f7c:	d28a0880 	mov	x0, #0x5044                	// #20548
ffff000000085f80:	f2a7e420 	movk	x0, #0x3f21, lsl #16
ffff000000085f84:	f2ffffe0 	movk	x0, #0xffff, lsl #48
ffff000000085f88:	121e7821 	and	w1, w1, #0xfffffffd
ffff000000085f8c:	b9000001 	str	w1, [x0]
ffff000000085f90:	d2964380 	mov	x0, #0xb21c                	// #45596
ffff000000085f94:	f2a7e000 	movk	x0, #0x3f00, lsl #16
ffff000000085f98:	f2ffffe0 	movk	x0, #0xffff, lsl #48
ffff000000085f9c:	b9400001 	ldr	w1, [x0]
ffff000000085fa0:	d2964380 	mov	x0, #0xb21c                	// #45596
ffff000000085fa4:	f2a7e000 	movk	x0, #0x3f00, lsl #16
ffff000000085fa8:	f2ffffe0 	movk	x0, #0xffff, lsl #48
ffff000000085fac:	32030021 	orr	w1, w1, #0x20000000
ffff000000085fb0:	b9000001 	str	w1, [x0]
ffff000000085fb4:	52884800 	mov	w0, #0x4240                	// #16960
ffff000000085fb8:	72a001e0 	movk	w0, #0xf, lsl #16
ffff000000085fbc:	b9000fe0 	str	w0, [sp, #12]
ffff000000085fc0:	14000002 	b	ffff000000085fc8 <disable_uart_interrupt+0x84>
ffff000000085fc4:	d503201f 	nop
ffff000000085fc8:	b9400fe0 	ldr	w0, [sp, #12]
ffff000000085fcc:	51000401 	sub	w1, w0, #0x1
ffff000000085fd0:	b9000fe1 	str	w1, [sp, #12]
ffff000000085fd4:	7100001f 	cmp	w0, #0x0
ffff000000085fd8:	54ffff61 	b.ne	ffff000000085fc4 <disable_uart_interrupt+0x80>  // b.any
ffff000000085fdc:	d503201f 	nop
ffff000000085fe0:	d503201f 	nop
ffff000000085fe4:	910043ff 	add	sp, sp, #0x10
ffff000000085fe8:	d65f03c0 	ret

ffff000000085fec <uart_init>:
ffff000000085fec:	a9be7bfd 	stp	x29, x30, [sp, #-32]!
ffff000000085ff0:	910003fd 	mov	x29, sp
ffff000000085ff4:	97ffff89 	bl	ffff000000085e18 <set_gpio_uart>
ffff000000085ff8:	d0000060 	adrp	x0, ffff000000093000 <task_pool+0x6f8>
ffff000000085ffc:	91113000 	add	x0, x0, #0x44c
ffff000000086000:	b900001f 	str	wzr, [x0]
ffff000000086004:	b0000060 	adrp	x0, ffff000000093000 <task_pool+0x6f8>
ffff000000086008:	91113000 	add	x0, x0, #0x44c
ffff00000008600c:	b9400001 	ldr	w1, [x0]
ffff000000086010:	b0000060 	adrp	x0, ffff000000093000 <task_pool+0x6f8>
ffff000000086014:	91112000 	add	x0, x0, #0x448
ffff000000086018:	b9000001 	str	w1, [x0]
ffff00000008601c:	b0000060 	adrp	x0, ffff000000093000 <task_pool+0x6f8>
ffff000000086020:	91115000 	add	x0, x0, #0x454
ffff000000086024:	b900001f 	str	wzr, [x0]
ffff000000086028:	b0000060 	adrp	x0, ffff000000093000 <task_pool+0x6f8>
ffff00000008602c:	91115000 	add	x0, x0, #0x454
ffff000000086030:	b9400001 	ldr	w1, [x0]
ffff000000086034:	b0000060 	adrp	x0, ffff000000093000 <task_pool+0x6f8>
ffff000000086038:	91114000 	add	x0, x0, #0x450
ffff00000008603c:	b9000001 	str	w1, [x0]
ffff000000086040:	b9001fff 	str	wzr, [sp, #28]
ffff000000086044:	14000011 	b	ffff000000086088 <uart_init+0x9c>
ffff000000086048:	b0000060 	adrp	x0, ffff000000093000 <task_pool+0x6f8>
ffff00000008604c:	910d2001 	add	x1, x0, #0x348
ffff000000086050:	b9801fe0 	ldrsw	x0, [sp, #28]
ffff000000086054:	52800602 	mov	w2, #0x30                  	// #48
ffff000000086058:	38206822 	strb	w2, [x1, x0]
ffff00000008605c:	b0000060 	adrp	x0, ffff000000093000 <task_pool+0x6f8>
ffff000000086060:	910d2001 	add	x1, x0, #0x348
ffff000000086064:	b9801fe0 	ldrsw	x0, [sp, #28]
ffff000000086068:	38606822 	ldrb	w2, [x1, x0]
ffff00000008606c:	b0000060 	adrp	x0, ffff000000093000 <task_pool+0x6f8>
ffff000000086070:	91092001 	add	x1, x0, #0x248
ffff000000086074:	b9801fe0 	ldrsw	x0, [sp, #28]
ffff000000086078:	38206822 	strb	w2, [x1, x0]
ffff00000008607c:	b9401fe0 	ldr	w0, [sp, #28]
ffff000000086080:	11000400 	add	w0, w0, #0x1
ffff000000086084:	b9001fe0 	str	w0, [sp, #28]
ffff000000086088:	b9401fe0 	ldr	w0, [sp, #28]
ffff00000008608c:	7103fc1f 	cmp	w0, #0xff
ffff000000086090:	54fffdc9 	b.ls	ffff000000086048 <uart_init+0x5c>  // b.plast
ffff000000086094:	d28a0080 	mov	x0, #0x5004                	// #20484
ffff000000086098:	f2a7e420 	movk	x0, #0x3f21, lsl #16
ffff00000008609c:	f2ffffe0 	movk	x0, #0xffff, lsl #48
ffff0000000860a0:	b9400001 	ldr	w1, [x0]
ffff0000000860a4:	d28a0080 	mov	x0, #0x5004                	// #20484
ffff0000000860a8:	f2a7e420 	movk	x0, #0x3f21, lsl #16
ffff0000000860ac:	f2ffffe0 	movk	x0, #0xffff, lsl #48
ffff0000000860b0:	32000021 	orr	w1, w1, #0x1
ffff0000000860b4:	b9000001 	str	w1, [x0]
ffff0000000860b8:	d28a0c00 	mov	x0, #0x5060                	// #20576
ffff0000000860bc:	f2a7e420 	movk	x0, #0x3f21, lsl #16
ffff0000000860c0:	f2ffffe0 	movk	x0, #0xffff, lsl #48
ffff0000000860c4:	b900001f 	str	wzr, [x0]
ffff0000000860c8:	d28a0880 	mov	x0, #0x5044                	// #20548
ffff0000000860cc:	f2a7e420 	movk	x0, #0x3f21, lsl #16
ffff0000000860d0:	f2ffffe0 	movk	x0, #0xffff, lsl #48
ffff0000000860d4:	b900001f 	str	wzr, [x0]
ffff0000000860d8:	d28a0980 	mov	x0, #0x504c                	// #20556
ffff0000000860dc:	f2a7e420 	movk	x0, #0x3f21, lsl #16
ffff0000000860e0:	f2ffffe0 	movk	x0, #0xffff, lsl #48
ffff0000000860e4:	52800061 	mov	w1, #0x3                   	// #3
ffff0000000860e8:	b9000001 	str	w1, [x0]
ffff0000000860ec:	d28a0a00 	mov	x0, #0x5050                	// #20560
ffff0000000860f0:	f2a7e420 	movk	x0, #0x3f21, lsl #16
ffff0000000860f4:	f2ffffe0 	movk	x0, #0xffff, lsl #48
ffff0000000860f8:	b900001f 	str	wzr, [x0]
ffff0000000860fc:	d28a0d00 	mov	x0, #0x5068                	// #20584
ffff000000086100:	f2a7e420 	movk	x0, #0x3f21, lsl #16
ffff000000086104:	f2ffffe0 	movk	x0, #0xffff, lsl #48
ffff000000086108:	528021c1 	mov	w1, #0x10e                 	// #270
ffff00000008610c:	b9000001 	str	w1, [x0]
ffff000000086110:	d28a0900 	mov	x0, #0x5048                	// #20552
ffff000000086114:	f2a7e420 	movk	x0, #0x3f21, lsl #16
ffff000000086118:	f2ffffe0 	movk	x0, #0xffff, lsl #48
ffff00000008611c:	528018c1 	mov	w1, #0xc6                  	// #198
ffff000000086120:	b9000001 	str	w1, [x0]
ffff000000086124:	52884800 	mov	w0, #0x4240                	// #16960
ffff000000086128:	72a001e0 	movk	w0, #0xf, lsl #16
ffff00000008612c:	b9001be0 	str	w0, [sp, #24]
ffff000000086130:	14000002 	b	ffff000000086138 <uart_init+0x14c>
ffff000000086134:	d503201f 	nop
ffff000000086138:	b9401be0 	ldr	w0, [sp, #24]
ffff00000008613c:	51000401 	sub	w1, w0, #0x1
ffff000000086140:	b9001be1 	str	w1, [sp, #24]
ffff000000086144:	7100001f 	cmp	w0, #0x0
ffff000000086148:	54ffff61 	b.ne	ffff000000086134 <uart_init+0x148>  // b.any
ffff00000008614c:	d28a0c00 	mov	x0, #0x5060                	// #20576
ffff000000086150:	f2a7e420 	movk	x0, #0x3f21, lsl #16
ffff000000086154:	f2ffffe0 	movk	x0, #0xffff, lsl #48
ffff000000086158:	52800061 	mov	w1, #0x3                   	// #3
ffff00000008615c:	b9000001 	str	w1, [x0]
ffff000000086160:	52884800 	mov	w0, #0x4240                	// #16960
ffff000000086164:	72a001e0 	movk	w0, #0xf, lsl #16
ffff000000086168:	b9001be0 	str	w0, [sp, #24]
ffff00000008616c:	14000002 	b	ffff000000086174 <uart_init+0x188>
ffff000000086170:	d503201f 	nop
ffff000000086174:	b9401be0 	ldr	w0, [sp, #24]
ffff000000086178:	51000401 	sub	w1, w0, #0x1
ffff00000008617c:	b9001be1 	str	w1, [sp, #24]
ffff000000086180:	7100001f 	cmp	w0, #0x0
ffff000000086184:	54ffff61 	b.ne	ffff000000086170 <uart_init+0x184>  // b.any
ffff000000086188:	52800021 	mov	w1, #0x1                   	// #1
ffff00000008618c:	b0000060 	adrp	x0, ffff000000093000 <task_pool+0x6f8>
ffff000000086190:	9108a000 	add	x0, x0, #0x228
ffff000000086194:	940014ef 	bl	ffff00000008b550 <wait_queue_init>
ffff000000086198:	52800021 	mov	w1, #0x1                   	// #1
ffff00000008619c:	b0000060 	adrp	x0, ffff000000093000 <task_pool+0x6f8>
ffff0000000861a0:	9108e000 	add	x0, x0, #0x238
ffff0000000861a4:	940014eb 	bl	ffff00000008b550 <wait_queue_init>
ffff0000000861a8:	d0000040 	adrp	x0, ffff000000090000 <pool_slots+0x6f0>
ffff0000000861ac:	910bc000 	add	x0, x0, #0x2f0
ffff0000000861b0:	940001c3 	bl	ffff0000000868bc <uart_write_str>
ffff0000000861b4:	d503201f 	nop
ffff0000000861b8:	a8c27bfd 	ldp	x29, x30, [sp], #32
ffff0000000861bc:	d65f03c0 	ret

ffff0000000861c0 <c_write_handler>:
ffff0000000861c0:	a9be7bfd 	stp	x29, x30, [sp, #-32]!
ffff0000000861c4:	910003fd 	mov	x29, sp
ffff0000000861c8:	97ffff11 	bl	ffff000000085e0c <disable_interrupt>
ffff0000000861cc:	14000036 	b	ffff0000000862a4 <c_write_handler+0xe4>
ffff0000000861d0:	b0000060 	adrp	x0, ffff000000093000 <task_pool+0x6f8>
ffff0000000861d4:	91114000 	add	x0, x0, #0x450
ffff0000000861d8:	b9400002 	ldr	w2, [x0]
ffff0000000861dc:	b0000060 	adrp	x0, ffff000000093000 <task_pool+0x6f8>
ffff0000000861e0:	910d2001 	add	x1, x0, #0x348
ffff0000000861e4:	93407c40 	sxtw	x0, w2
ffff0000000861e8:	38606820 	ldrb	w0, [x1, x0]
ffff0000000861ec:	39007fe0 	strb	w0, [sp, #31]
ffff0000000861f0:	39407fe0 	ldrb	w0, [sp, #31]
ffff0000000861f4:	7100281f 	cmp	w0, #0xa
ffff0000000861f8:	540001c1 	b.ne	ffff000000086230 <c_write_handler+0x70>  // b.any
ffff0000000861fc:	d503201f 	nop
ffff000000086200:	d28a0a80 	mov	x0, #0x5054                	// #20564
ffff000000086204:	f2a7e420 	movk	x0, #0x3f21, lsl #16
ffff000000086208:	f2ffffe0 	movk	x0, #0xffff, lsl #48
ffff00000008620c:	b9400000 	ldr	w0, [x0]
ffff000000086210:	121b0000 	and	w0, w0, #0x20
ffff000000086214:	7100001f 	cmp	w0, #0x0
ffff000000086218:	54ffff40 	b.eq	ffff000000086200 <c_write_handler+0x40>  // b.none
ffff00000008621c:	d28a0800 	mov	x0, #0x5040                	// #20544
ffff000000086220:	f2a7e420 	movk	x0, #0x3f21, lsl #16
ffff000000086224:	f2ffffe0 	movk	x0, #0xffff, lsl #48
ffff000000086228:	528001a1 	mov	w1, #0xd                   	// #13
ffff00000008622c:	b9000001 	str	w1, [x0]
ffff000000086230:	d503201f 	nop
ffff000000086234:	d28a0a80 	mov	x0, #0x5054                	// #20564
ffff000000086238:	f2a7e420 	movk	x0, #0x3f21, lsl #16
ffff00000008623c:	f2ffffe0 	movk	x0, #0xffff, lsl #48
ffff000000086240:	b9400000 	ldr	w0, [x0]
ffff000000086244:	121b0000 	and	w0, w0, #0x20
ffff000000086248:	7100001f 	cmp	w0, #0x0
ffff00000008624c:	54ffff40 	b.eq	ffff000000086234 <c_write_handler+0x74>  // b.none
ffff000000086250:	d28a0800 	mov	x0, #0x5040                	// #20544
ffff000000086254:	f2a7e420 	movk	x0, #0x3f21, lsl #16
ffff000000086258:	f2ffffe0 	movk	x0, #0xffff, lsl #48
ffff00000008625c:	39407fe1 	ldrb	w1, [sp, #31]
ffff000000086260:	b9000001 	str	w1, [x0]
ffff000000086264:	d503201f 	nop
ffff000000086268:	d28a0a80 	mov	x0, #0x5054                	// #20564
ffff00000008626c:	f2a7e420 	movk	x0, #0x3f21, lsl #16
ffff000000086270:	f2ffffe0 	movk	x0, #0xffff, lsl #48
ffff000000086274:	b9400000 	ldr	w0, [x0]
ffff000000086278:	121b0000 	and	w0, w0, #0x20
ffff00000008627c:	7100001f 	cmp	w0, #0x0
ffff000000086280:	54ffff40 	b.eq	ffff000000086268 <c_write_handler+0xa8>  // b.none
ffff000000086284:	b0000060 	adrp	x0, ffff000000093000 <task_pool+0x6f8>
ffff000000086288:	91114000 	add	x0, x0, #0x450
ffff00000008628c:	b9400000 	ldr	w0, [x0]
ffff000000086290:	11000400 	add	w0, w0, #0x1
ffff000000086294:	12001c01 	and	w1, w0, #0xff
ffff000000086298:	b0000060 	adrp	x0, ffff000000093000 <task_pool+0x6f8>
ffff00000008629c:	91114000 	add	x0, x0, #0x450
ffff0000000862a0:	b9000001 	str	w1, [x0]
ffff0000000862a4:	b0000060 	adrp	x0, ffff000000093000 <task_pool+0x6f8>
ffff0000000862a8:	91114000 	add	x0, x0, #0x450
ffff0000000862ac:	b9400001 	ldr	w1, [x0]
ffff0000000862b0:	b0000060 	adrp	x0, ffff000000093000 <task_pool+0x6f8>
ffff0000000862b4:	91115000 	add	x0, x0, #0x454
ffff0000000862b8:	b9400000 	ldr	w0, [x0]
ffff0000000862bc:	6b00003f 	cmp	w1, w0
ffff0000000862c0:	54fff881 	b.ne	ffff0000000861d0 <c_write_handler+0x10>  // b.any
ffff0000000862c4:	b0000060 	adrp	x0, ffff000000093000 <task_pool+0x6f8>
ffff0000000862c8:	91114000 	add	x0, x0, #0x450
ffff0000000862cc:	b9400001 	ldr	w1, [x0]
ffff0000000862d0:	b0000060 	adrp	x0, ffff000000093000 <task_pool+0x6f8>
ffff0000000862d4:	91115000 	add	x0, x0, #0x454
ffff0000000862d8:	b9400000 	ldr	w0, [x0]
ffff0000000862dc:	6b00003f 	cmp	w1, w0
ffff0000000862e0:	54000161 	b.ne	ffff00000008630c <c_write_handler+0x14c>  // b.any
ffff0000000862e4:	d28a0880 	mov	x0, #0x5044                	// #20548
ffff0000000862e8:	f2a7e420 	movk	x0, #0x3f21, lsl #16
ffff0000000862ec:	f2ffffe0 	movk	x0, #0xffff, lsl #48
ffff0000000862f0:	b9400001 	ldr	w1, [x0]
ffff0000000862f4:	d28a0880 	mov	x0, #0x5044                	// #20548
ffff0000000862f8:	f2a7e420 	movk	x0, #0x3f21, lsl #16
ffff0000000862fc:	f2ffffe0 	movk	x0, #0xffff, lsl #48
ffff000000086300:	121e7821 	and	w1, w1, #0xfffffffd
ffff000000086304:	b9000001 	str	w1, [x0]
ffff000000086308:	1400000a 	b	ffff000000086330 <c_write_handler+0x170>
ffff00000008630c:	d28a0880 	mov	x0, #0x5044                	// #20548
ffff000000086310:	f2a7e420 	movk	x0, #0x3f21, lsl #16
ffff000000086314:	f2ffffe0 	movk	x0, #0xffff, lsl #48
ffff000000086318:	b9400001 	ldr	w1, [x0]
ffff00000008631c:	d28a0880 	mov	x0, #0x5044                	// #20548
ffff000000086320:	f2a7e420 	movk	x0, #0x3f21, lsl #16
ffff000000086324:	f2ffffe0 	movk	x0, #0xffff, lsl #48
ffff000000086328:	321f0021 	orr	w1, w1, #0x2
ffff00000008632c:	b9000001 	str	w1, [x0]
ffff000000086330:	97fffeb4 	bl	ffff000000085e00 <enable_interrupt>
ffff000000086334:	d503201f 	nop
ffff000000086338:	a8c27bfd 	ldp	x29, x30, [sp], #32
ffff00000008633c:	d65f03c0 	ret

ffff000000086340 <c_read_handler>:
ffff000000086340:	a9be7bfd 	stp	x29, x30, [sp, #-32]!
ffff000000086344:	910003fd 	mov	x29, sp
ffff000000086348:	97fffeb1 	bl	ffff000000085e0c <disable_interrupt>
ffff00000008634c:	1400001b 	b	ffff0000000863b8 <c_read_handler+0x78>
ffff000000086350:	d28a0800 	mov	x0, #0x5040                	// #20544
ffff000000086354:	f2a7e420 	movk	x0, #0x3f21, lsl #16
ffff000000086358:	f2ffffe0 	movk	x0, #0xffff, lsl #48
ffff00000008635c:	b9400000 	ldr	w0, [x0]
ffff000000086360:	39007fe0 	strb	w0, [sp, #31]
ffff000000086364:	39407fe0 	ldrb	w0, [sp, #31]
ffff000000086368:	7100341f 	cmp	w0, #0xd
ffff00000008636c:	54000061 	b.ne	ffff000000086378 <c_read_handler+0x38>  // b.any
ffff000000086370:	52800140 	mov	w0, #0xa                   	// #10
ffff000000086374:	39007fe0 	strb	w0, [sp, #31]
ffff000000086378:	b0000060 	adrp	x0, ffff000000093000 <task_pool+0x6f8>
ffff00000008637c:	91113000 	add	x0, x0, #0x44c
ffff000000086380:	b9400002 	ldr	w2, [x0]
ffff000000086384:	b0000060 	adrp	x0, ffff000000093000 <task_pool+0x6f8>
ffff000000086388:	91092001 	add	x1, x0, #0x248
ffff00000008638c:	93407c40 	sxtw	x0, w2
ffff000000086390:	39407fe2 	ldrb	w2, [sp, #31]
ffff000000086394:	38206822 	strb	w2, [x1, x0]
ffff000000086398:	b0000060 	adrp	x0, ffff000000093000 <task_pool+0x6f8>
ffff00000008639c:	91113000 	add	x0, x0, #0x44c
ffff0000000863a0:	b9400000 	ldr	w0, [x0]
ffff0000000863a4:	11000400 	add	w0, w0, #0x1
ffff0000000863a8:	12001c01 	and	w1, w0, #0xff
ffff0000000863ac:	b0000060 	adrp	x0, ffff000000093000 <task_pool+0x6f8>
ffff0000000863b0:	91113000 	add	x0, x0, #0x44c
ffff0000000863b4:	b9000001 	str	w1, [x0]
ffff0000000863b8:	d28a0a80 	mov	x0, #0x5054                	// #20564
ffff0000000863bc:	f2a7e420 	movk	x0, #0x3f21, lsl #16
ffff0000000863c0:	f2ffffe0 	movk	x0, #0xffff, lsl #48
ffff0000000863c4:	b9400000 	ldr	w0, [x0]
ffff0000000863c8:	12000000 	and	w0, w0, #0x1
ffff0000000863cc:	7100001f 	cmp	w0, #0x0
ffff0000000863d0:	54fffc01 	b.ne	ffff000000086350 <c_read_handler+0x10>  // b.any
ffff0000000863d4:	d28a0880 	mov	x0, #0x5044                	// #20548
ffff0000000863d8:	f2a7e420 	movk	x0, #0x3f21, lsl #16
ffff0000000863dc:	f2ffffe0 	movk	x0, #0xffff, lsl #48
ffff0000000863e0:	b9400001 	ldr	w1, [x0]
ffff0000000863e4:	d28a0880 	mov	x0, #0x5044                	// #20548
ffff0000000863e8:	f2a7e420 	movk	x0, #0x3f21, lsl #16
ffff0000000863ec:	f2ffffe0 	movk	x0, #0xffff, lsl #48
ffff0000000863f0:	32000021 	orr	w1, w1, #0x1
ffff0000000863f4:	b9000001 	str	w1, [x0]
ffff0000000863f8:	97fffe82 	bl	ffff000000085e00 <enable_interrupt>
ffff0000000863fc:	d503201f 	nop
ffff000000086400:	a8c27bfd 	ldp	x29, x30, [sp], #32
ffff000000086404:	d65f03c0 	ret

ffff000000086408 <uart_read_async>:
ffff000000086408:	a9be7bfd 	stp	x29, x30, [sp, #-32]!
ffff00000008640c:	910003fd 	mov	x29, sp
ffff000000086410:	97fffe7f 	bl	ffff000000085e0c <disable_interrupt>
ffff000000086414:	b0000060 	adrp	x0, ffff000000093000 <task_pool+0x6f8>
ffff000000086418:	91112000 	add	x0, x0, #0x448
ffff00000008641c:	b9400001 	ldr	w1, [x0]
ffff000000086420:	b0000060 	adrp	x0, ffff000000093000 <task_pool+0x6f8>
ffff000000086424:	91113000 	add	x0, x0, #0x44c
ffff000000086428:	b9400000 	ldr	w0, [x0]
ffff00000008642c:	6b00003f 	cmp	w1, w0
ffff000000086430:	54000280 	b.eq	ffff000000086480 <uart_read_async+0x78>  // b.none
ffff000000086434:	b0000060 	adrp	x0, ffff000000093000 <task_pool+0x6f8>
ffff000000086438:	91112000 	add	x0, x0, #0x448
ffff00000008643c:	b9400002 	ldr	w2, [x0]
ffff000000086440:	b0000060 	adrp	x0, ffff000000093000 <task_pool+0x6f8>
ffff000000086444:	91092001 	add	x1, x0, #0x248
ffff000000086448:	93407c40 	sxtw	x0, w2
ffff00000008644c:	38606820 	ldrb	w0, [x1, x0]
ffff000000086450:	39007fe0 	strb	w0, [sp, #31]
ffff000000086454:	b0000060 	adrp	x0, ffff000000093000 <task_pool+0x6f8>
ffff000000086458:	91112000 	add	x0, x0, #0x448
ffff00000008645c:	b9400000 	ldr	w0, [x0]
ffff000000086460:	11000400 	add	w0, w0, #0x1
ffff000000086464:	12001c01 	and	w1, w0, #0xff
ffff000000086468:	b0000060 	adrp	x0, ffff000000093000 <task_pool+0x6f8>
ffff00000008646c:	91112000 	add	x0, x0, #0x448
ffff000000086470:	b9000001 	str	w1, [x0]
ffff000000086474:	97fffe63 	bl	ffff000000085e00 <enable_interrupt>
ffff000000086478:	39407fe0 	ldrb	w0, [sp, #31]
ffff00000008647c:	14000003 	b	ffff000000086488 <uart_read_async+0x80>
ffff000000086480:	97fffe60 	bl	ffff000000085e00 <enable_interrupt>
ffff000000086484:	17ffffe3 	b	ffff000000086410 <uart_read_async+0x8>
ffff000000086488:	a8c27bfd 	ldp	x29, x30, [sp], #32
ffff00000008648c:	d65f03c0 	ret

ffff000000086490 <uart_write_char_async>:
ffff000000086490:	a9bd7bfd 	stp	x29, x30, [sp, #-48]!
ffff000000086494:	910003fd 	mov	x29, sp
ffff000000086498:	39007fe0 	strb	w0, [sp, #31]
ffff00000008649c:	97fffe5c 	bl	ffff000000085e0c <disable_interrupt>
ffff0000000864a0:	b0000060 	adrp	x0, ffff000000093000 <task_pool+0x6f8>
ffff0000000864a4:	91115000 	add	x0, x0, #0x454
ffff0000000864a8:	b9400000 	ldr	w0, [x0]
ffff0000000864ac:	11000400 	add	w0, w0, #0x1
ffff0000000864b0:	12001c00 	and	w0, w0, #0xff
ffff0000000864b4:	b9002fe0 	str	w0, [sp, #44]
ffff0000000864b8:	b0000060 	adrp	x0, ffff000000093000 <task_pool+0x6f8>
ffff0000000864bc:	91114000 	add	x0, x0, #0x450
ffff0000000864c0:	b9400000 	ldr	w0, [x0]
ffff0000000864c4:	b9402fe1 	ldr	w1, [sp, #44]
ffff0000000864c8:	6b00003f 	cmp	w1, w0
ffff0000000864cc:	540003e0 	b.eq	ffff000000086548 <uart_write_char_async+0xb8>  // b.none
ffff0000000864d0:	b0000060 	adrp	x0, ffff000000093000 <task_pool+0x6f8>
ffff0000000864d4:	91115000 	add	x0, x0, #0x454
ffff0000000864d8:	b9400002 	ldr	w2, [x0]
ffff0000000864dc:	b0000060 	adrp	x0, ffff000000093000 <task_pool+0x6f8>
ffff0000000864e0:	910d2001 	add	x1, x0, #0x348
ffff0000000864e4:	93407c40 	sxtw	x0, w2
ffff0000000864e8:	39407fe2 	ldrb	w2, [sp, #31]
ffff0000000864ec:	38206822 	strb	w2, [x1, x0]
ffff0000000864f0:	b0000060 	adrp	x0, ffff000000093000 <task_pool+0x6f8>
ffff0000000864f4:	91115000 	add	x0, x0, #0x454
ffff0000000864f8:	b9402fe1 	ldr	w1, [sp, #44]
ffff0000000864fc:	b9000001 	str	w1, [x0]
ffff000000086500:	97fffe40 	bl	ffff000000085e00 <enable_interrupt>
ffff000000086504:	d28a0880 	mov	x0, #0x5044                	// #20548
ffff000000086508:	f2a7e420 	movk	x0, #0x3f21, lsl #16
ffff00000008650c:	f2ffffe0 	movk	x0, #0xffff, lsl #48
ffff000000086510:	b9400000 	ldr	w0, [x0]
ffff000000086514:	121f0000 	and	w0, w0, #0x2
ffff000000086518:	7100001f 	cmp	w0, #0x0
ffff00000008651c:	540001a1 	b.ne	ffff000000086550 <uart_write_char_async+0xc0>  // b.any
ffff000000086520:	d28a0880 	mov	x0, #0x5044                	// #20548
ffff000000086524:	f2a7e420 	movk	x0, #0x3f21, lsl #16
ffff000000086528:	f2ffffe0 	movk	x0, #0xffff, lsl #48
ffff00000008652c:	b9400001 	ldr	w1, [x0]
ffff000000086530:	d28a0880 	mov	x0, #0x5044                	// #20548
ffff000000086534:	f2a7e420 	movk	x0, #0x3f21, lsl #16
ffff000000086538:	f2ffffe0 	movk	x0, #0xffff, lsl #48
ffff00000008653c:	321f0021 	orr	w1, w1, #0x2
ffff000000086540:	b9000001 	str	w1, [x0]
ffff000000086544:	14000003 	b	ffff000000086550 <uart_write_char_async+0xc0>
ffff000000086548:	97fffe2e 	bl	ffff000000085e00 <enable_interrupt>
ffff00000008654c:	17ffffd4 	b	ffff00000008649c <uart_write_char_async+0xc>
ffff000000086550:	d503201f 	nop
ffff000000086554:	a8c37bfd 	ldp	x29, x30, [sp], #48
ffff000000086558:	d65f03c0 	ret

ffff00000008655c <readcmd_async>:
ffff00000008655c:	a9bd7bfd 	stp	x29, x30, [sp, #-48]!
ffff000000086560:	910003fd 	mov	x29, sp
ffff000000086564:	f9000fe0 	str	x0, [sp, #24]
ffff000000086568:	f9400fe0 	ldr	x0, [sp, #24]
ffff00000008656c:	3900001f 	strb	wzr, [x0]
ffff000000086570:	b9002fff 	str	wzr, [sp, #44]
ffff000000086574:	97ffffa5 	bl	ffff000000086408 <uart_read_async>
ffff000000086578:	3900afe0 	strb	w0, [sp, #43]
ffff00000008657c:	3940afe0 	ldrb	w0, [sp, #43]
ffff000000086580:	7103fc1f 	cmp	w0, #0xff
ffff000000086584:	54000660 	b.eq	ffff000000086650 <readcmd_async+0xf4>  // b.none
ffff000000086588:	39c0afe0 	ldrsb	w0, [sp, #43]
ffff00000008658c:	7100001f 	cmp	w0, #0x0
ffff000000086590:	5400064b 	b.lt	ffff000000086658 <readcmd_async+0xfc>  // b.tstop
ffff000000086594:	3940afe0 	ldrb	w0, [sp, #43]
ffff000000086598:	7100281f 	cmp	w0, #0xa
ffff00000008659c:	540000c1 	b.ne	ffff0000000865b4 <readcmd_async+0x58>  // b.any
ffff0000000865a0:	b9802fe0 	ldrsw	x0, [sp, #44]
ffff0000000865a4:	f9400fe1 	ldr	x1, [sp, #24]
ffff0000000865a8:	8b000020 	add	x0, x1, x0
ffff0000000865ac:	3900001f 	strb	wzr, [x0]
ffff0000000865b0:	1400002c 	b	ffff000000086660 <readcmd_async+0x104>
ffff0000000865b4:	3940afe0 	ldrb	w0, [sp, #43]
ffff0000000865b8:	7101fc1f 	cmp	w0, #0x7f
ffff0000000865bc:	54000080 	b.eq	ffff0000000865cc <readcmd_async+0x70>  // b.none
ffff0000000865c0:	3940afe0 	ldrb	w0, [sp, #43]
ffff0000000865c4:	7100201f 	cmp	w0, #0x8
ffff0000000865c8:	540001c1 	b.ne	ffff000000086600 <readcmd_async+0xa4>  // b.any
ffff0000000865cc:	b9402fe0 	ldr	w0, [sp, #44]
ffff0000000865d0:	7100001f 	cmp	w0, #0x0
ffff0000000865d4:	5400044d 	b.le	ffff00000008665c <readcmd_async+0x100>
ffff0000000865d8:	b9402fe0 	ldr	w0, [sp, #44]
ffff0000000865dc:	51000400 	sub	w0, w0, #0x1
ffff0000000865e0:	b9002fe0 	str	w0, [sp, #44]
ffff0000000865e4:	52800100 	mov	w0, #0x8                   	// #8
ffff0000000865e8:	97ffffaa 	bl	ffff000000086490 <uart_write_char_async>
ffff0000000865ec:	52800400 	mov	w0, #0x20                  	// #32
ffff0000000865f0:	97ffffa8 	bl	ffff000000086490 <uart_write_char_async>
ffff0000000865f4:	52800100 	mov	w0, #0x8                   	// #8
ffff0000000865f8:	97ffffa6 	bl	ffff000000086490 <uart_write_char_async>
ffff0000000865fc:	14000018 	b	ffff00000008665c <readcmd_async+0x100>
ffff000000086600:	3940afe0 	ldrb	w0, [sp, #43]
ffff000000086604:	71007c1f 	cmp	w0, #0x1f
ffff000000086608:	54fffb69 	b.ls	ffff000000086574 <readcmd_async+0x18>  // b.plast
ffff00000008660c:	3940afe0 	ldrb	w0, [sp, #43]
ffff000000086610:	7101f81f 	cmp	w0, #0x7e
ffff000000086614:	54fffb08 	b.hi	ffff000000086574 <readcmd_async+0x18>  // b.pmore
ffff000000086618:	b9402fe0 	ldr	w0, [sp, #44]
ffff00000008661c:	7103fc1f 	cmp	w0, #0xff
ffff000000086620:	54fffaa8 	b.hi	ffff000000086574 <readcmd_async+0x18>  // b.pmore
ffff000000086624:	b9802fe0 	ldrsw	x0, [sp, #44]
ffff000000086628:	f9400fe1 	ldr	x1, [sp, #24]
ffff00000008662c:	8b000020 	add	x0, x1, x0
ffff000000086630:	3940afe1 	ldrb	w1, [sp, #43]
ffff000000086634:	39000001 	strb	w1, [x0]
ffff000000086638:	b9402fe0 	ldr	w0, [sp, #44]
ffff00000008663c:	11000400 	add	w0, w0, #0x1
ffff000000086640:	b9002fe0 	str	w0, [sp, #44]
ffff000000086644:	3940afe0 	ldrb	w0, [sp, #43]
ffff000000086648:	97ffff92 	bl	ffff000000086490 <uart_write_char_async>
ffff00000008664c:	17ffffca 	b	ffff000000086574 <readcmd_async+0x18>
ffff000000086650:	d503201f 	nop
ffff000000086654:	17ffffc8 	b	ffff000000086574 <readcmd_async+0x18>
ffff000000086658:	d503201f 	nop
ffff00000008665c:	17ffffc6 	b	ffff000000086574 <readcmd_async+0x18>
ffff000000086660:	d503201f 	nop
ffff000000086664:	a8c37bfd 	ldp	x29, x30, [sp], #48
ffff000000086668:	d65f03c0 	ret

ffff00000008666c <uart_write_str_async>:
ffff00000008666c:	a9bd7bfd 	stp	x29, x30, [sp, #-48]!
ffff000000086670:	910003fd 	mov	x29, sp
ffff000000086674:	f9000fe0 	str	x0, [sp, #24]
ffff000000086678:	b9002fff 	str	wzr, [sp, #44]
ffff00000008667c:	14000009 	b	ffff0000000866a0 <uart_write_str_async+0x34>
ffff000000086680:	b9802fe0 	ldrsw	x0, [sp, #44]
ffff000000086684:	f9400fe1 	ldr	x1, [sp, #24]
ffff000000086688:	8b000020 	add	x0, x1, x0
ffff00000008668c:	39400000 	ldrb	w0, [x0]
ffff000000086690:	97ffff80 	bl	ffff000000086490 <uart_write_char_async>
ffff000000086694:	b9402fe0 	ldr	w0, [sp, #44]
ffff000000086698:	11000400 	add	w0, w0, #0x1
ffff00000008669c:	b9002fe0 	str	w0, [sp, #44]
ffff0000000866a0:	b9802fe0 	ldrsw	x0, [sp, #44]
ffff0000000866a4:	f9400fe1 	ldr	x1, [sp, #24]
ffff0000000866a8:	8b000020 	add	x0, x1, x0
ffff0000000866ac:	39400000 	ldrb	w0, [x0]
ffff0000000866b0:	7100001f 	cmp	w0, #0x0
ffff0000000866b4:	54fffe61 	b.ne	ffff000000086680 <uart_write_str_async+0x14>  // b.any
ffff0000000866b8:	d503201f 	nop
ffff0000000866bc:	d503201f 	nop
ffff0000000866c0:	a8c37bfd 	ldp	x29, x30, [sp], #48
ffff0000000866c4:	d65f03c0 	ret

ffff0000000866c8 <uart_write_flush>:
ffff0000000866c8:	d503201f 	nop
ffff0000000866cc:	b0000060 	adrp	x0, ffff000000093000 <task_pool+0x6f8>
ffff0000000866d0:	91114000 	add	x0, x0, #0x450
ffff0000000866d4:	b9400001 	ldr	w1, [x0]
ffff0000000866d8:	b0000060 	adrp	x0, ffff000000093000 <task_pool+0x6f8>
ffff0000000866dc:	91115000 	add	x0, x0, #0x454
ffff0000000866e0:	b9400000 	ldr	w0, [x0]
ffff0000000866e4:	6b00003f 	cmp	w1, w0
ffff0000000866e8:	54ffff21 	b.ne	ffff0000000866cc <uart_write_flush+0x4>  // b.any
ffff0000000866ec:	d28a0a80 	mov	x0, #0x5054                	// #20564
ffff0000000866f0:	f2a7e420 	movk	x0, #0x3f21, lsl #16
ffff0000000866f4:	f2ffffe0 	movk	x0, #0xffff, lsl #48
ffff0000000866f8:	b9400000 	ldr	w0, [x0]
ffff0000000866fc:	121b0000 	and	w0, w0, #0x20
ffff000000086700:	7100001f 	cmp	w0, #0x0
ffff000000086704:	54fffe40 	b.eq	ffff0000000866cc <uart_write_flush+0x4>  // b.none
ffff000000086708:	d503201f 	nop
ffff00000008670c:	d503201f 	nop
ffff000000086710:	d65f03c0 	ret

ffff000000086714 <uart_read>:
ffff000000086714:	d10043ff 	sub	sp, sp, #0x10
ffff000000086718:	14000002 	b	ffff000000086720 <uart_read+0xc>
ffff00000008671c:	d503201f 	nop
ffff000000086720:	d28a0a80 	mov	x0, #0x5054                	// #20564
ffff000000086724:	f2a7e420 	movk	x0, #0x3f21, lsl #16
ffff000000086728:	f2ffffe0 	movk	x0, #0xffff, lsl #48
ffff00000008672c:	b9400000 	ldr	w0, [x0]
ffff000000086730:	12000000 	and	w0, w0, #0x1
ffff000000086734:	7100001f 	cmp	w0, #0x0
ffff000000086738:	54ffff20 	b.eq	ffff00000008671c <uart_read+0x8>  // b.none
ffff00000008673c:	d28a0800 	mov	x0, #0x5040                	// #20544
ffff000000086740:	f2a7e420 	movk	x0, #0x3f21, lsl #16
ffff000000086744:	f2ffffe0 	movk	x0, #0xffff, lsl #48
ffff000000086748:	b9400000 	ldr	w0, [x0]
ffff00000008674c:	39003fe0 	strb	w0, [sp, #15]
ffff000000086750:	39403fe0 	ldrb	w0, [sp, #15]
ffff000000086754:	7100341f 	cmp	w0, #0xd
ffff000000086758:	54000060 	b.eq	ffff000000086764 <uart_read+0x50>  // b.none
ffff00000008675c:	39403fe0 	ldrb	w0, [sp, #15]
ffff000000086760:	14000002 	b	ffff000000086768 <uart_read+0x54>
ffff000000086764:	52800140 	mov	w0, #0xa                   	// #10
ffff000000086768:	910043ff 	add	sp, sp, #0x10
ffff00000008676c:	d65f03c0 	ret

ffff000000086770 <uart_write_char>:
ffff000000086770:	d10043ff 	sub	sp, sp, #0x10
ffff000000086774:	39003fe0 	strb	w0, [sp, #15]
ffff000000086778:	14000002 	b	ffff000000086780 <uart_write_char+0x10>
ffff00000008677c:	d503201f 	nop
ffff000000086780:	d28a0a80 	mov	x0, #0x5054                	// #20564
ffff000000086784:	f2a7e420 	movk	x0, #0x3f21, lsl #16
ffff000000086788:	f2ffffe0 	movk	x0, #0xffff, lsl #48
ffff00000008678c:	b9400000 	ldr	w0, [x0]
ffff000000086790:	121b0000 	and	w0, w0, #0x20
ffff000000086794:	7100001f 	cmp	w0, #0x0
ffff000000086798:	54ffff20 	b.eq	ffff00000008677c <uart_write_char+0xc>  // b.none
ffff00000008679c:	d28a0800 	mov	x0, #0x5040                	// #20544
ffff0000000867a0:	f2a7e420 	movk	x0, #0x3f21, lsl #16
ffff0000000867a4:	f2ffffe0 	movk	x0, #0xffff, lsl #48
ffff0000000867a8:	39403fe1 	ldrb	w1, [sp, #15]
ffff0000000867ac:	b9000001 	str	w1, [x0]
ffff0000000867b0:	d503201f 	nop
ffff0000000867b4:	d28a0a80 	mov	x0, #0x5054                	// #20564
ffff0000000867b8:	f2a7e420 	movk	x0, #0x3f21, lsl #16
ffff0000000867bc:	f2ffffe0 	movk	x0, #0xffff, lsl #48
ffff0000000867c0:	b9400000 	ldr	w0, [x0]
ffff0000000867c4:	121b0000 	and	w0, w0, #0x20
ffff0000000867c8:	7100001f 	cmp	w0, #0x0
ffff0000000867cc:	54ffff40 	b.eq	ffff0000000867b4 <uart_write_char+0x44>  // b.none
ffff0000000867d0:	d503201f 	nop
ffff0000000867d4:	d503201f 	nop
ffff0000000867d8:	910043ff 	add	sp, sp, #0x10
ffff0000000867dc:	d65f03c0 	ret

ffff0000000867e0 <readcmd>:
ffff0000000867e0:	a9bd7bfd 	stp	x29, x30, [sp, #-48]!
ffff0000000867e4:	910003fd 	mov	x29, sp
ffff0000000867e8:	f9000fe0 	str	x0, [sp, #24]
ffff0000000867ec:	f9400fe0 	ldr	x0, [sp, #24]
ffff0000000867f0:	3900001f 	strb	wzr, [x0]
ffff0000000867f4:	b9002fff 	str	wzr, [sp, #44]
ffff0000000867f8:	97ffffc7 	bl	ffff000000086714 <uart_read>
ffff0000000867fc:	3900afe0 	strb	w0, [sp, #43]
ffff000000086800:	3940afe0 	ldrb	w0, [sp, #43]
ffff000000086804:	7100281f 	cmp	w0, #0xa
ffff000000086808:	540004a0 	b.eq	ffff00000008689c <readcmd+0xbc>  // b.none
ffff00000008680c:	3940afe0 	ldrb	w0, [sp, #43]
ffff000000086810:	7101fc1f 	cmp	w0, #0x7f
ffff000000086814:	54000080 	b.eq	ffff000000086824 <readcmd+0x44>  // b.none
ffff000000086818:	3940afe0 	ldrb	w0, [sp, #43]
ffff00000008681c:	7100201f 	cmp	w0, #0x8
ffff000000086820:	54000161 	b.ne	ffff00000008684c <readcmd+0x6c>  // b.any
ffff000000086824:	b9402fe0 	ldr	w0, [sp, #44]
ffff000000086828:	7100001f 	cmp	w0, #0x0
ffff00000008682c:	5400036d 	b.le	ffff000000086898 <readcmd+0xb8>
ffff000000086830:	b9402fe0 	ldr	w0, [sp, #44]
ffff000000086834:	51000400 	sub	w0, w0, #0x1
ffff000000086838:	b9002fe0 	str	w0, [sp, #44]
ffff00000008683c:	d0000040 	adrp	x0, ffff000000090000 <pool_slots+0x6f0>
ffff000000086840:	910c8000 	add	x0, x0, #0x320
ffff000000086844:	9400001e 	bl	ffff0000000868bc <uart_write_str>
ffff000000086848:	14000014 	b	ffff000000086898 <readcmd+0xb8>
ffff00000008684c:	3940afe0 	ldrb	w0, [sp, #43]
ffff000000086850:	71007c1f 	cmp	w0, #0x1f
ffff000000086854:	54fffd29 	b.ls	ffff0000000867f8 <readcmd+0x18>  // b.plast
ffff000000086858:	3940afe0 	ldrb	w0, [sp, #43]
ffff00000008685c:	7101f81f 	cmp	w0, #0x7e
ffff000000086860:	54fffcc8 	b.hi	ffff0000000867f8 <readcmd+0x18>  // b.pmore
ffff000000086864:	b9802fe0 	ldrsw	x0, [sp, #44]
ffff000000086868:	f9400fe1 	ldr	x1, [sp, #24]
ffff00000008686c:	8b000020 	add	x0, x1, x0
ffff000000086870:	3940afe1 	ldrb	w1, [sp, #43]
ffff000000086874:	39000001 	strb	w1, [x0]
ffff000000086878:	b9402fe0 	ldr	w0, [sp, #44]
ffff00000008687c:	11000400 	add	w0, w0, #0x1
ffff000000086880:	b9002fe0 	str	w0, [sp, #44]
ffff000000086884:	3940afe0 	ldrb	w0, [sp, #43]
ffff000000086888:	3900a3e0 	strb	w0, [sp, #40]
ffff00000008688c:	3900a7ff 	strb	wzr, [sp, #41]
ffff000000086890:	9100a3e0 	add	x0, sp, #0x28
ffff000000086894:	9400000a 	bl	ffff0000000868bc <uart_write_str>
ffff000000086898:	17ffffd8 	b	ffff0000000867f8 <readcmd+0x18>
ffff00000008689c:	d503201f 	nop
ffff0000000868a0:	b9802fe0 	ldrsw	x0, [sp, #44]
ffff0000000868a4:	f9400fe1 	ldr	x1, [sp, #24]
ffff0000000868a8:	8b000020 	add	x0, x1, x0
ffff0000000868ac:	3900001f 	strb	wzr, [x0]
ffff0000000868b0:	d503201f 	nop
ffff0000000868b4:	a8c37bfd 	ldp	x29, x30, [sp], #48
ffff0000000868b8:	d65f03c0 	ret

ffff0000000868bc <uart_write_str>:
ffff0000000868bc:	a9be7bfd 	stp	x29, x30, [sp, #-32]!
ffff0000000868c0:	910003fd 	mov	x29, sp
ffff0000000868c4:	f9000fe0 	str	x0, [sp, #24]
ffff0000000868c8:	1400000c 	b	ffff0000000868f8 <uart_write_str+0x3c>
ffff0000000868cc:	f9400fe0 	ldr	x0, [sp, #24]
ffff0000000868d0:	39400000 	ldrb	w0, [x0]
ffff0000000868d4:	7100281f 	cmp	w0, #0xa
ffff0000000868d8:	54000061 	b.ne	ffff0000000868e4 <uart_write_str+0x28>  // b.any
ffff0000000868dc:	528001a0 	mov	w0, #0xd                   	// #13
ffff0000000868e0:	97ffffa4 	bl	ffff000000086770 <uart_write_char>
ffff0000000868e4:	f9400fe0 	ldr	x0, [sp, #24]
ffff0000000868e8:	91000401 	add	x1, x0, #0x1
ffff0000000868ec:	f9000fe1 	str	x1, [sp, #24]
ffff0000000868f0:	39400000 	ldrb	w0, [x0]
ffff0000000868f4:	97ffff9f 	bl	ffff000000086770 <uart_write_char>
ffff0000000868f8:	f9400fe0 	ldr	x0, [sp, #24]
ffff0000000868fc:	39400000 	ldrb	w0, [x0]
ffff000000086900:	7100001f 	cmp	w0, #0x0
ffff000000086904:	54fffe41 	b.ne	ffff0000000868cc <uart_write_str+0x10>  // b.any
ffff000000086908:	d503201f 	nop
ffff00000008690c:	d503201f 	nop
ffff000000086910:	a8c27bfd 	ldp	x29, x30, [sp], #32
ffff000000086914:	d65f03c0 	ret

ffff000000086918 <int2str_dec>:
ffff000000086918:	d10083ff 	sub	sp, sp, #0x20
ffff00000008691c:	b9000fe0 	str	w0, [sp, #12]
ffff000000086920:	f90003e1 	str	x1, [sp]
ffff000000086924:	b9001fff 	str	wzr, [sp, #28]
ffff000000086928:	b9400fe0 	ldr	w0, [sp, #12]
ffff00000008692c:	b90013e0 	str	w0, [sp, #16]
ffff000000086930:	b9001bff 	str	wzr, [sp, #24]
ffff000000086934:	b9400fe0 	ldr	w0, [sp, #12]
ffff000000086938:	7100001f 	cmp	w0, #0x0
ffff00000008693c:	540000ca 	b.ge	ffff000000086954 <int2str_dec+0x3c>  // b.tcont
ffff000000086940:	52800020 	mov	w0, #0x1                   	// #1
ffff000000086944:	b9001be0 	str	w0, [sp, #24]
ffff000000086948:	b9400fe0 	ldr	w0, [sp, #12]
ffff00000008694c:	4b0003e0 	neg	w0, w0
ffff000000086950:	b9000fe0 	str	w0, [sp, #12]
ffff000000086954:	b9401fe0 	ldr	w0, [sp, #28]
ffff000000086958:	11000400 	add	w0, w0, #0x1
ffff00000008695c:	b9001fe0 	str	w0, [sp, #28]
ffff000000086960:	b9400fe0 	ldr	w0, [sp, #12]
ffff000000086964:	528ccce1 	mov	w1, #0x6667                	// #26215
ffff000000086968:	72acccc1 	movk	w1, #0x6666, lsl #16
ffff00000008696c:	9b217c01 	smull	x1, w0, w1
ffff000000086970:	d360fc21 	lsr	x1, x1, #32
ffff000000086974:	13027c21 	asr	w1, w1, #2
ffff000000086978:	131f7c00 	asr	w0, w0, #31
ffff00000008697c:	4b000020 	sub	w0, w1, w0
ffff000000086980:	b9000fe0 	str	w0, [sp, #12]
ffff000000086984:	b9400fe0 	ldr	w0, [sp, #12]
ffff000000086988:	7100001f 	cmp	w0, #0x0
ffff00000008698c:	54fffe41 	b.ne	ffff000000086954 <int2str_dec+0x3c>  // b.any
ffff000000086990:	b9401be0 	ldr	w0, [sp, #24]
ffff000000086994:	7100001f 	cmp	w0, #0x0
ffff000000086998:	54000080 	b.eq	ffff0000000869a8 <int2str_dec+0x90>  // b.none
ffff00000008699c:	b9401fe0 	ldr	w0, [sp, #28]
ffff0000000869a0:	11000400 	add	w0, w0, #0x1
ffff0000000869a4:	b9001fe0 	str	w0, [sp, #28]
ffff0000000869a8:	b9801fe0 	ldrsw	x0, [sp, #28]
ffff0000000869ac:	f94003e1 	ldr	x1, [sp]
ffff0000000869b0:	8b000020 	add	x0, x1, x0
ffff0000000869b4:	3900001f 	strb	wzr, [x0]
ffff0000000869b8:	b94013e0 	ldr	w0, [sp, #16]
ffff0000000869bc:	b9000fe0 	str	w0, [sp, #12]
ffff0000000869c0:	b9401be0 	ldr	w0, [sp, #24]
ffff0000000869c4:	7100001f 	cmp	w0, #0x0
ffff0000000869c8:	540000e0 	b.eq	ffff0000000869e4 <int2str_dec+0xcc>  // b.none
ffff0000000869cc:	f94003e0 	ldr	x0, [sp]
ffff0000000869d0:	528005a1 	mov	w1, #0x2d                  	// #45
ffff0000000869d4:	39000001 	strb	w1, [x0]
ffff0000000869d8:	b9400fe0 	ldr	w0, [sp, #12]
ffff0000000869dc:	4b0003e0 	neg	w0, w0
ffff0000000869e0:	b9000fe0 	str	w0, [sp, #12]
ffff0000000869e4:	b9401fe0 	ldr	w0, [sp, #28]
ffff0000000869e8:	51000400 	sub	w0, w0, #0x1
ffff0000000869ec:	b90017e0 	str	w0, [sp, #20]
ffff0000000869f0:	14000021 	b	ffff000000086a74 <int2str_dec+0x15c>
ffff0000000869f4:	b9400fe1 	ldr	w1, [sp, #12]
ffff0000000869f8:	528ccce0 	mov	w0, #0x6667                	// #26215
ffff0000000869fc:	72acccc0 	movk	w0, #0x6666, lsl #16
ffff000000086a00:	9b207c20 	smull	x0, w1, w0
ffff000000086a04:	d360fc00 	lsr	x0, x0, #32
ffff000000086a08:	13027c02 	asr	w2, w0, #2
ffff000000086a0c:	131f7c20 	asr	w0, w1, #31
ffff000000086a10:	4b000042 	sub	w2, w2, w0
ffff000000086a14:	2a0203e0 	mov	w0, w2
ffff000000086a18:	531e7400 	lsl	w0, w0, #2
ffff000000086a1c:	0b020000 	add	w0, w0, w2
ffff000000086a20:	531f7800 	lsl	w0, w0, #1
ffff000000086a24:	4b000022 	sub	w2, w1, w0
ffff000000086a28:	12001c41 	and	w1, w2, #0xff
ffff000000086a2c:	b98017e0 	ldrsw	x0, [sp, #20]
ffff000000086a30:	f94003e2 	ldr	x2, [sp]
ffff000000086a34:	8b000040 	add	x0, x2, x0
ffff000000086a38:	1100c021 	add	w1, w1, #0x30
ffff000000086a3c:	12001c21 	and	w1, w1, #0xff
ffff000000086a40:	39000001 	strb	w1, [x0]
ffff000000086a44:	b9400fe0 	ldr	w0, [sp, #12]
ffff000000086a48:	528ccce1 	mov	w1, #0x6667                	// #26215
ffff000000086a4c:	72acccc1 	movk	w1, #0x6666, lsl #16
ffff000000086a50:	9b217c01 	smull	x1, w0, w1
ffff000000086a54:	d360fc21 	lsr	x1, x1, #32
ffff000000086a58:	13027c21 	asr	w1, w1, #2
ffff000000086a5c:	131f7c00 	asr	w0, w0, #31
ffff000000086a60:	4b000020 	sub	w0, w1, w0
ffff000000086a64:	b9000fe0 	str	w0, [sp, #12]
ffff000000086a68:	b94017e0 	ldr	w0, [sp, #20]
ffff000000086a6c:	51000400 	sub	w0, w0, #0x1
ffff000000086a70:	b90017e0 	str	w0, [sp, #20]
ffff000000086a74:	b94017e1 	ldr	w1, [sp, #20]
ffff000000086a78:	b9401be0 	ldr	w0, [sp, #24]
ffff000000086a7c:	6b00003f 	cmp	w1, w0
ffff000000086a80:	54fffbaa 	b.ge	ffff0000000869f4 <int2str_dec+0xdc>  // b.tcont
ffff000000086a84:	d503201f 	nop
ffff000000086a88:	d503201f 	nop
ffff000000086a8c:	910083ff 	add	sp, sp, #0x20
ffff000000086a90:	d65f03c0 	ret

ffff000000086a94 <uint2str_dec>:
ffff000000086a94:	d10083ff 	sub	sp, sp, #0x20
ffff000000086a98:	b9000fe0 	str	w0, [sp, #12]
ffff000000086a9c:	f90003e1 	str	x1, [sp]
ffff000000086aa0:	b9001fff 	str	wzr, [sp, #28]
ffff000000086aa4:	b9400fe0 	ldr	w0, [sp, #12]
ffff000000086aa8:	b90017e0 	str	w0, [sp, #20]
ffff000000086aac:	b9401fe0 	ldr	w0, [sp, #28]
ffff000000086ab0:	11000400 	add	w0, w0, #0x1
ffff000000086ab4:	b9001fe0 	str	w0, [sp, #28]
ffff000000086ab8:	b9400fe1 	ldr	w1, [sp, #12]
ffff000000086abc:	529999a0 	mov	w0, #0xcccd                	// #52429
ffff000000086ac0:	72b99980 	movk	w0, #0xcccc, lsl #16
ffff000000086ac4:	9ba07c20 	umull	x0, w1, w0
ffff000000086ac8:	d360fc00 	lsr	x0, x0, #32
ffff000000086acc:	53037c00 	lsr	w0, w0, #3
ffff000000086ad0:	b9000fe0 	str	w0, [sp, #12]
ffff000000086ad4:	b9400fe0 	ldr	w0, [sp, #12]
ffff000000086ad8:	7100001f 	cmp	w0, #0x0
ffff000000086adc:	54fffe81 	b.ne	ffff000000086aac <uint2str_dec+0x18>  // b.any
ffff000000086ae0:	b9801fe0 	ldrsw	x0, [sp, #28]
ffff000000086ae4:	f94003e1 	ldr	x1, [sp]
ffff000000086ae8:	8b000020 	add	x0, x1, x0
ffff000000086aec:	3900001f 	strb	wzr, [x0]
ffff000000086af0:	b94017e0 	ldr	w0, [sp, #20]
ffff000000086af4:	b9000fe0 	str	w0, [sp, #12]
ffff000000086af8:	b9401fe0 	ldr	w0, [sp, #28]
ffff000000086afc:	51000400 	sub	w0, w0, #0x1
ffff000000086b00:	b9001be0 	str	w0, [sp, #24]
ffff000000086b04:	1400001d 	b	ffff000000086b78 <uint2str_dec+0xe4>
ffff000000086b08:	b9400fe2 	ldr	w2, [sp, #12]
ffff000000086b0c:	529999a0 	mov	w0, #0xcccd                	// #52429
ffff000000086b10:	72b99980 	movk	w0, #0xcccc, lsl #16
ffff000000086b14:	9ba07c40 	umull	x0, w2, w0
ffff000000086b18:	d360fc00 	lsr	x0, x0, #32
ffff000000086b1c:	53037c01 	lsr	w1, w0, #3
ffff000000086b20:	2a0103e0 	mov	w0, w1
ffff000000086b24:	531e7400 	lsl	w0, w0, #2
ffff000000086b28:	0b010000 	add	w0, w0, w1
ffff000000086b2c:	531f7800 	lsl	w0, w0, #1
ffff000000086b30:	4b000041 	sub	w1, w2, w0
ffff000000086b34:	12001c21 	and	w1, w1, #0xff
ffff000000086b38:	b9801be0 	ldrsw	x0, [sp, #24]
ffff000000086b3c:	f94003e2 	ldr	x2, [sp]
ffff000000086b40:	8b000040 	add	x0, x2, x0
ffff000000086b44:	1100c021 	add	w1, w1, #0x30
ffff000000086b48:	12001c21 	and	w1, w1, #0xff
ffff000000086b4c:	39000001 	strb	w1, [x0]
ffff000000086b50:	b9400fe1 	ldr	w1, [sp, #12]
ffff000000086b54:	529999a0 	mov	w0, #0xcccd                	// #52429
ffff000000086b58:	72b99980 	movk	w0, #0xcccc, lsl #16
ffff000000086b5c:	9ba07c20 	umull	x0, w1, w0
ffff000000086b60:	d360fc00 	lsr	x0, x0, #32
ffff000000086b64:	53037c00 	lsr	w0, w0, #3
ffff000000086b68:	b9000fe0 	str	w0, [sp, #12]
ffff000000086b6c:	b9401be0 	ldr	w0, [sp, #24]
ffff000000086b70:	51000400 	sub	w0, w0, #0x1
ffff000000086b74:	b9001be0 	str	w0, [sp, #24]
ffff000000086b78:	b9401be0 	ldr	w0, [sp, #24]
ffff000000086b7c:	7100001f 	cmp	w0, #0x0
ffff000000086b80:	54fffc4a 	b.ge	ffff000000086b08 <uint2str_dec+0x74>  // b.tcont
ffff000000086b84:	d503201f 	nop
ffff000000086b88:	d503201f 	nop
ffff000000086b8c:	910083ff 	add	sp, sp, #0x20
ffff000000086b90:	d65f03c0 	ret

ffff000000086b94 <uart_write_int>:
ffff000000086b94:	a9bd7bfd 	stp	x29, x30, [sp, #-48]!
ffff000000086b98:	910003fd 	mov	x29, sp
ffff000000086b9c:	b9001fe0 	str	w0, [sp, #28]
ffff000000086ba0:	910083e0 	add	x0, sp, #0x20
ffff000000086ba4:	aa0003e1 	mov	x1, x0
ffff000000086ba8:	b9401fe0 	ldr	w0, [sp, #28]
ffff000000086bac:	97ffff5b 	bl	ffff000000086918 <int2str_dec>
ffff000000086bb0:	910083e0 	add	x0, sp, #0x20
ffff000000086bb4:	97ffff42 	bl	ffff0000000868bc <uart_write_str>
ffff000000086bb8:	d503201f 	nop
ffff000000086bbc:	a8c37bfd 	ldp	x29, x30, [sp], #48
ffff000000086bc0:	d65f03c0 	ret

ffff000000086bc4 <uart_write_int_async>:
ffff000000086bc4:	a9bd7bfd 	stp	x29, x30, [sp, #-48]!
ffff000000086bc8:	910003fd 	mov	x29, sp
ffff000000086bcc:	b9001fe0 	str	w0, [sp, #28]
ffff000000086bd0:	910083e0 	add	x0, sp, #0x20
ffff000000086bd4:	aa0003e1 	mov	x1, x0
ffff000000086bd8:	b9401fe0 	ldr	w0, [sp, #28]
ffff000000086bdc:	97ffff4f 	bl	ffff000000086918 <int2str_dec>
ffff000000086be0:	910083e0 	add	x0, sp, #0x20
ffff000000086be4:	97fffea2 	bl	ffff00000008666c <uart_write_str_async>
ffff000000086be8:	d503201f 	nop
ffff000000086bec:	a8c37bfd 	ldp	x29, x30, [sp], #48
ffff000000086bf0:	d65f03c0 	ret

ffff000000086bf4 <int2str_hex>:
ffff000000086bf4:	d10083ff 	sub	sp, sp, #0x20
ffff000000086bf8:	f90007e0 	str	x0, [sp, #8]
ffff000000086bfc:	f90003e1 	str	x1, [sp]
ffff000000086c00:	b9001fff 	str	wzr, [sp, #28]
ffff000000086c04:	b9401fe0 	ldr	w0, [sp, #28]
ffff000000086c08:	11000401 	add	w1, w0, #0x1
ffff000000086c0c:	b9001fe1 	str	w1, [sp, #28]
ffff000000086c10:	93407c00 	sxtw	x0, w0
ffff000000086c14:	f94003e1 	ldr	x1, [sp]
ffff000000086c18:	8b000020 	add	x0, x1, x0
ffff000000086c1c:	52800601 	mov	w1, #0x30                  	// #48
ffff000000086c20:	39000001 	strb	w1, [x0]
ffff000000086c24:	b9401fe0 	ldr	w0, [sp, #28]
ffff000000086c28:	11000401 	add	w1, w0, #0x1
ffff000000086c2c:	b9001fe1 	str	w1, [sp, #28]
ffff000000086c30:	93407c00 	sxtw	x0, w0
ffff000000086c34:	f94003e1 	ldr	x1, [sp]
ffff000000086c38:	8b000020 	add	x0, x1, x0
ffff000000086c3c:	52800f01 	mov	w1, #0x78                  	// #120
ffff000000086c40:	39000001 	strb	w1, [x0]
ffff000000086c44:	528001e0 	mov	w0, #0xf                   	// #15
ffff000000086c48:	b9001be0 	str	w0, [sp, #24]
ffff000000086c4c:	1400002c 	b	ffff000000086cfc <int2str_hex+0x108>
ffff000000086c50:	b9401be0 	ldr	w0, [sp, #24]
ffff000000086c54:	531e7400 	lsl	w0, w0, #2
ffff000000086c58:	f94007e1 	ldr	x1, [sp, #8]
ffff000000086c5c:	9ac02420 	lsr	x0, x1, x0
ffff000000086c60:	12000c00 	and	w0, w0, #0xf
ffff000000086c64:	b90017e0 	str	w0, [sp, #20]
ffff000000086c68:	b94017e0 	ldr	w0, [sp, #20]
ffff000000086c6c:	7100241f 	cmp	w0, #0x9
ffff000000086c70:	540000cc 	b.gt	ffff000000086c88 <int2str_hex+0x94>
ffff000000086c74:	b94017e0 	ldr	w0, [sp, #20]
ffff000000086c78:	12001c00 	and	w0, w0, #0xff
ffff000000086c7c:	1100c000 	add	w0, w0, #0x30
ffff000000086c80:	12001c00 	and	w0, w0, #0xff
ffff000000086c84:	14000005 	b	ffff000000086c98 <int2str_hex+0xa4>
ffff000000086c88:	b94017e0 	ldr	w0, [sp, #20]
ffff000000086c8c:	12001c00 	and	w0, w0, #0xff
ffff000000086c90:	1100dc00 	add	w0, w0, #0x37
ffff000000086c94:	12001c00 	and	w0, w0, #0xff
ffff000000086c98:	b9401fe1 	ldr	w1, [sp, #28]
ffff000000086c9c:	11000422 	add	w2, w1, #0x1
ffff000000086ca0:	b9001fe2 	str	w2, [sp, #28]
ffff000000086ca4:	93407c21 	sxtw	x1, w1
ffff000000086ca8:	f94003e2 	ldr	x2, [sp]
ffff000000086cac:	8b010041 	add	x1, x2, x1
ffff000000086cb0:	39000020 	strb	w0, [x1]
ffff000000086cb4:	b9401be0 	ldr	w0, [sp, #24]
ffff000000086cb8:	12000400 	and	w0, w0, #0x3
ffff000000086cbc:	7100001f 	cmp	w0, #0x0
ffff000000086cc0:	54000181 	b.ne	ffff000000086cf0 <int2str_hex+0xfc>  // b.any
ffff000000086cc4:	b9401be0 	ldr	w0, [sp, #24]
ffff000000086cc8:	7100001f 	cmp	w0, #0x0
ffff000000086ccc:	54000120 	b.eq	ffff000000086cf0 <int2str_hex+0xfc>  // b.none
ffff000000086cd0:	b9401fe0 	ldr	w0, [sp, #28]
ffff000000086cd4:	11000401 	add	w1, w0, #0x1
ffff000000086cd8:	b9001fe1 	str	w1, [sp, #28]
ffff000000086cdc:	93407c00 	sxtw	x0, w0
ffff000000086ce0:	f94003e1 	ldr	x1, [sp]
ffff000000086ce4:	8b000020 	add	x0, x1, x0
ffff000000086ce8:	52800be1 	mov	w1, #0x5f                  	// #95
ffff000000086cec:	39000001 	strb	w1, [x0]
ffff000000086cf0:	b9401be0 	ldr	w0, [sp, #24]
ffff000000086cf4:	51000400 	sub	w0, w0, #0x1
ffff000000086cf8:	b9001be0 	str	w0, [sp, #24]
ffff000000086cfc:	b9401be0 	ldr	w0, [sp, #24]
ffff000000086d00:	7100001f 	cmp	w0, #0x0
ffff000000086d04:	54fffa6a 	b.ge	ffff000000086c50 <int2str_hex+0x5c>  // b.tcont
ffff000000086d08:	b9801fe0 	ldrsw	x0, [sp, #28]
ffff000000086d0c:	f94003e1 	ldr	x1, [sp]
ffff000000086d10:	8b000020 	add	x0, x1, x0
ffff000000086d14:	3900001f 	strb	wzr, [x0]
ffff000000086d18:	d503201f 	nop
ffff000000086d1c:	910083ff 	add	sp, sp, #0x20
ffff000000086d20:	d65f03c0 	ret

ffff000000086d24 <uart_write_hex>:
ffff000000086d24:	a9bc7bfd 	stp	x29, x30, [sp, #-64]!
ffff000000086d28:	910003fd 	mov	x29, sp
ffff000000086d2c:	f9000fe0 	str	x0, [sp, #24]
ffff000000086d30:	9100a3e0 	add	x0, sp, #0x28
ffff000000086d34:	aa0003e1 	mov	x1, x0
ffff000000086d38:	f9400fe0 	ldr	x0, [sp, #24]
ffff000000086d3c:	97ffffae 	bl	ffff000000086bf4 <int2str_hex>
ffff000000086d40:	9100a3e0 	add	x0, sp, #0x28
ffff000000086d44:	97fffede 	bl	ffff0000000868bc <uart_write_str>
ffff000000086d48:	d503201f 	nop
ffff000000086d4c:	a8c47bfd 	ldp	x29, x30, [sp], #64
ffff000000086d50:	d65f03c0 	ret

ffff000000086d54 <uart_read_raw>:
ffff000000086d54:	d10043ff 	sub	sp, sp, #0x10
ffff000000086d58:	14000002 	b	ffff000000086d60 <uart_read_raw+0xc>
ffff000000086d5c:	d503201f 	nop
ffff000000086d60:	d28a0a80 	mov	x0, #0x5054                	// #20564
ffff000000086d64:	f2a7e420 	movk	x0, #0x3f21, lsl #16
ffff000000086d68:	f2ffffe0 	movk	x0, #0xffff, lsl #48
ffff000000086d6c:	b9400000 	ldr	w0, [x0]
ffff000000086d70:	12000000 	and	w0, w0, #0x1
ffff000000086d74:	7100001f 	cmp	w0, #0x0
ffff000000086d78:	54ffff20 	b.eq	ffff000000086d5c <uart_read_raw+0x8>  // b.none
ffff000000086d7c:	d28a0800 	mov	x0, #0x5040                	// #20544
ffff000000086d80:	f2a7e420 	movk	x0, #0x3f21, lsl #16
ffff000000086d84:	f2ffffe0 	movk	x0, #0xffff, lsl #48
ffff000000086d88:	b9400000 	ldr	w0, [x0]
ffff000000086d8c:	39003fe0 	strb	w0, [sp, #15]
ffff000000086d90:	39403fe0 	ldrb	w0, [sp, #15]
ffff000000086d94:	7100341f 	cmp	w0, #0xd
ffff000000086d98:	54000060 	b.eq	ffff000000086da4 <uart_read_raw+0x50>  // b.none
ffff000000086d9c:	39403fe0 	ldrb	w0, [sp, #15]
ffff000000086da0:	14000002 	b	ffff000000086da8 <uart_read_raw+0x54>
ffff000000086da4:	52800140 	mov	w0, #0xa                   	// #10
ffff000000086da8:	910043ff 	add	sp, sp, #0x10
ffff000000086dac:	d65f03c0 	ret

ffff000000086db0 <uart_write_char_raw>:
ffff000000086db0:	d10043ff 	sub	sp, sp, #0x10
ffff000000086db4:	39003fe0 	strb	w0, [sp, #15]
ffff000000086db8:	14000002 	b	ffff000000086dc0 <uart_write_char_raw+0x10>
ffff000000086dbc:	d503201f 	nop
ffff000000086dc0:	d28a0a80 	mov	x0, #0x5054                	// #20564
ffff000000086dc4:	f2a7e420 	movk	x0, #0x3f21, lsl #16
ffff000000086dc8:	f2ffffe0 	movk	x0, #0xffff, lsl #48
ffff000000086dcc:	b9400000 	ldr	w0, [x0]
ffff000000086dd0:	121b0000 	and	w0, w0, #0x20
ffff000000086dd4:	7100001f 	cmp	w0, #0x0
ffff000000086dd8:	54ffff20 	b.eq	ffff000000086dbc <uart_write_char_raw+0xc>  // b.none
ffff000000086ddc:	d28a0800 	mov	x0, #0x5040                	// #20544
ffff000000086de0:	f2a7e420 	movk	x0, #0x3f21, lsl #16
ffff000000086de4:	f2ffffe0 	movk	x0, #0xffff, lsl #48
ffff000000086de8:	39403fe1 	ldrb	w1, [sp, #15]
ffff000000086dec:	b9000001 	str	w1, [x0]
ffff000000086df0:	d503201f 	nop
ffff000000086df4:	910043ff 	add	sp, sp, #0x10
ffff000000086df8:	d65f03c0 	ret

ffff000000086dfc <uart_write_str_raw>:
ffff000000086dfc:	a9be7bfd 	stp	x29, x30, [sp, #-32]!
ffff000000086e00:	910003fd 	mov	x29, sp
ffff000000086e04:	f9000fe0 	str	x0, [sp, #24]
ffff000000086e08:	1400000c 	b	ffff000000086e38 <uart_write_str_raw+0x3c>
ffff000000086e0c:	f9400fe0 	ldr	x0, [sp, #24]
ffff000000086e10:	39400000 	ldrb	w0, [x0]
ffff000000086e14:	7100281f 	cmp	w0, #0xa
ffff000000086e18:	54000061 	b.ne	ffff000000086e24 <uart_write_str_raw+0x28>  // b.any
ffff000000086e1c:	528001a0 	mov	w0, #0xd                   	// #13
ffff000000086e20:	97ffffe4 	bl	ffff000000086db0 <uart_write_char_raw>
ffff000000086e24:	f9400fe0 	ldr	x0, [sp, #24]
ffff000000086e28:	91000401 	add	x1, x0, #0x1
ffff000000086e2c:	f9000fe1 	str	x1, [sp, #24]
ffff000000086e30:	39400000 	ldrb	w0, [x0]
ffff000000086e34:	97ffffdf 	bl	ffff000000086db0 <uart_write_char_raw>
ffff000000086e38:	f9400fe0 	ldr	x0, [sp, #24]
ffff000000086e3c:	39400000 	ldrb	w0, [x0]
ffff000000086e40:	7100001f 	cmp	w0, #0x0
ffff000000086e44:	54fffe41 	b.ne	ffff000000086e0c <uart_write_str_raw+0x10>  // b.any
ffff000000086e48:	d503201f 	nop
ffff000000086e4c:	d503201f 	nop
ffff000000086e50:	a8c27bfd 	ldp	x29, x30, [sp], #32
ffff000000086e54:	d65f03c0 	ret

ffff000000086e58 <uart_write_int_raw>:
ffff000000086e58:	a9bd7bfd 	stp	x29, x30, [sp, #-48]!
ffff000000086e5c:	910003fd 	mov	x29, sp
ffff000000086e60:	b9001fe0 	str	w0, [sp, #28]
ffff000000086e64:	910083e0 	add	x0, sp, #0x20
ffff000000086e68:	aa0003e1 	mov	x1, x0
ffff000000086e6c:	b9401fe0 	ldr	w0, [sp, #28]
ffff000000086e70:	97fffeaa 	bl	ffff000000086918 <int2str_dec>
ffff000000086e74:	910083e0 	add	x0, sp, #0x20
ffff000000086e78:	97ffffe1 	bl	ffff000000086dfc <uart_write_str_raw>
ffff000000086e7c:	d503201f 	nop
ffff000000086e80:	a8c37bfd 	ldp	x29, x30, [sp], #48
ffff000000086e84:	d65f03c0 	ret

ffff000000086e88 <uart_write_uint_raw>:
ffff000000086e88:	a9bd7bfd 	stp	x29, x30, [sp, #-48]!
ffff000000086e8c:	910003fd 	mov	x29, sp
ffff000000086e90:	b9001fe0 	str	w0, [sp, #28]
ffff000000086e94:	910083e0 	add	x0, sp, #0x20
ffff000000086e98:	aa0003e1 	mov	x1, x0
ffff000000086e9c:	b9401fe0 	ldr	w0, [sp, #28]
ffff000000086ea0:	97fffefd 	bl	ffff000000086a94 <uint2str_dec>
ffff000000086ea4:	910083e0 	add	x0, sp, #0x20
ffff000000086ea8:	97ffffd5 	bl	ffff000000086dfc <uart_write_str_raw>
ffff000000086eac:	d503201f 	nop
ffff000000086eb0:	a8c37bfd 	ldp	x29, x30, [sp], #48
ffff000000086eb4:	d65f03c0 	ret

ffff000000086eb8 <uart_write_hex_raw>:
ffff000000086eb8:	a9bc7bfd 	stp	x29, x30, [sp, #-64]!
ffff000000086ebc:	910003fd 	mov	x29, sp
ffff000000086ec0:	f9000fe0 	str	x0, [sp, #24]
ffff000000086ec4:	9100a3e0 	add	x0, sp, #0x28
ffff000000086ec8:	aa0003e1 	mov	x1, x0
ffff000000086ecc:	f9400fe0 	ldr	x0, [sp, #24]
ffff000000086ed0:	97ffff49 	bl	ffff000000086bf4 <int2str_hex>
ffff000000086ed4:	9100a3e0 	add	x0, sp, #0x28
ffff000000086ed8:	97ffffc9 	bl	ffff000000086dfc <uart_write_str_raw>
ffff000000086edc:	d503201f 	nop
ffff000000086ee0:	a8c47bfd 	ldp	x29, x30, [sp], #64
ffff000000086ee4:	d65f03c0 	ret

ffff000000086ee8 <kernel_vm_init>:
ffff000000086ee8:	a9ba7bfd 	stp	x29, x30, [sp, #-96]!
ffff000000086eec:	910003fd 	mov	x29, sp
ffff000000086ef0:	d0000040 	adrp	x0, ffff000000090000 <pool_slots+0x6f0>
ffff000000086ef4:	910d6000 	add	x0, x0, #0x358
ffff000000086ef8:	97ffffc1 	bl	ffff000000086dfc <uart_write_str_raw>
ffff000000086efc:	d2860000 	mov	x0, #0x3000                	// #12288
ffff000000086f00:	f9002be0 	str	x0, [sp, #80]
ffff000000086f04:	d2880000 	mov	x0, #0x4000                	// #16384
ffff000000086f08:	f90027e0 	str	x0, [sp, #72]
ffff000000086f0c:	d28a0000 	mov	x0, #0x5000                	// #20480
ffff000000086f10:	f90023e0 	str	x0, [sp, #64]
ffff000000086f14:	d28c0000 	mov	x0, #0x6000                	// #24576
ffff000000086f18:	f9001fe0 	str	x0, [sp, #56]
ffff000000086f1c:	f94027e0 	ldr	x0, [sp, #72]
ffff000000086f20:	b2400401 	orr	x1, x0, #0x3
ffff000000086f24:	f9402be0 	ldr	x0, [sp, #80]
ffff000000086f28:	f9000001 	str	x1, [x0]
ffff000000086f2c:	f94023e0 	ldr	x0, [sp, #64]
ffff000000086f30:	b2400401 	orr	x1, x0, #0x3
ffff000000086f34:	f94027e0 	ldr	x0, [sp, #72]
ffff000000086f38:	f9000001 	str	x1, [x0]
ffff000000086f3c:	f9401fe1 	ldr	x1, [sp, #56]
ffff000000086f40:	f94027e0 	ldr	x0, [sp, #72]
ffff000000086f44:	91002000 	add	x0, x0, #0x8
ffff000000086f48:	b2400421 	orr	x1, x1, #0x3
ffff000000086f4c:	f9000001 	str	x1, [x0]
ffff000000086f50:	b9005fff 	str	wzr, [sp, #92]
ffff000000086f54:	1400001b 	b	ffff000000086fc0 <kernel_vm_init+0xd8>
ffff000000086f58:	b9805fe0 	ldrsw	x0, [sp, #92]
ffff000000086f5c:	d36ba800 	lsl	x0, x0, #21
ffff000000086f60:	f9000fe0 	str	x0, [sp, #24]
ffff000000086f64:	f9400fe1 	ldr	x1, [sp, #24]
ffff000000086f68:	12b82000 	mov	w0, #0x3effffff            	// #1056964607
ffff000000086f6c:	eb00003f 	cmp	x1, x0
ffff000000086f70:	540000e9 	b.ls	ffff000000086f8c <kernel_vm_init+0xa4>  // b.plast
ffff000000086f74:	f9400fe1 	ldr	x1, [sp, #24]
ffff000000086f78:	b2407be0 	mov	x0, #0x7fffffff            	// #2147483647
ffff000000086f7c:	eb00003f 	cmp	x1, x0
ffff000000086f80:	54000068 	b.hi	ffff000000086f8c <kernel_vm_init+0xa4>  // b.pmore
ffff000000086f84:	d2808020 	mov	x0, #0x401                 	// #1025
ffff000000086f88:	14000002 	b	ffff000000086f90 <kernel_vm_init+0xa8>
ffff000000086f8c:	d28080a0 	mov	x0, #0x405                 	// #1029
ffff000000086f90:	f9000be0 	str	x0, [sp, #16]
ffff000000086f94:	b9805fe0 	ldrsw	x0, [sp, #92]
ffff000000086f98:	d37df000 	lsl	x0, x0, #3
ffff000000086f9c:	f94023e1 	ldr	x1, [sp, #64]
ffff000000086fa0:	8b000020 	add	x0, x1, x0
ffff000000086fa4:	f9400fe2 	ldr	x2, [sp, #24]
ffff000000086fa8:	f9400be1 	ldr	x1, [sp, #16]
ffff000000086fac:	aa010041 	orr	x1, x2, x1
ffff000000086fb0:	f9000001 	str	x1, [x0]
ffff000000086fb4:	b9405fe0 	ldr	w0, [sp, #92]
ffff000000086fb8:	11000400 	add	w0, w0, #0x1
ffff000000086fbc:	b9005fe0 	str	w0, [sp, #92]
ffff000000086fc0:	b9405fe0 	ldr	w0, [sp, #92]
ffff000000086fc4:	7107fc1f 	cmp	w0, #0x1ff
ffff000000086fc8:	54fffc8d 	b.le	ffff000000086f58 <kernel_vm_init+0x70>
ffff000000086fcc:	b9005bff 	str	wzr, [sp, #88]
ffff000000086fd0:	14000012 	b	ffff000000087018 <kernel_vm_init+0x130>
ffff000000086fd4:	b9805be0 	ldrsw	x0, [sp, #88]
ffff000000086fd8:	91080000 	add	x0, x0, #0x200
ffff000000086fdc:	d36ba800 	lsl	x0, x0, #21
ffff000000086fe0:	f90017e0 	str	x0, [sp, #40]
ffff000000086fe4:	d2808020 	mov	x0, #0x401                 	// #1025
ffff000000086fe8:	f90013e0 	str	x0, [sp, #32]
ffff000000086fec:	b9805be0 	ldrsw	x0, [sp, #88]
ffff000000086ff0:	d37df000 	lsl	x0, x0, #3
ffff000000086ff4:	f9401fe1 	ldr	x1, [sp, #56]
ffff000000086ff8:	8b000020 	add	x0, x1, x0
ffff000000086ffc:	f94017e2 	ldr	x2, [sp, #40]
ffff000000087000:	f94013e1 	ldr	x1, [sp, #32]
ffff000000087004:	aa010041 	orr	x1, x2, x1
ffff000000087008:	f9000001 	str	x1, [x0]
ffff00000008700c:	b9405be0 	ldr	w0, [sp, #88]
ffff000000087010:	11000400 	add	w0, w0, #0x1
ffff000000087014:	b9005be0 	str	w0, [sp, #88]
ffff000000087018:	b9405be0 	ldr	w0, [sp, #88]
ffff00000008701c:	7107fc1f 	cmp	w0, #0x1ff
ffff000000087020:	54fffdad 	b.le	ffff000000086fd4 <kernel_vm_init+0xec>
ffff000000087024:	f9402be0 	ldr	x0, [sp, #80]
ffff000000087028:	d5182020 	msr	ttbr1_el1, x0
ffff00000008702c:	d5382040 	mrs	x0, tcr_el1
ffff000000087030:	f9001be0 	str	x0, [sp, #48]
ffff000000087034:	f9401be0 	ldr	x0, [sp, #48]
ffff000000087038:	b27a0000 	orr	x0, x0, #0x40
ffff00000008703c:	f9001be0 	str	x0, [sp, #48]
ffff000000087040:	f9401be0 	ldr	x0, [sp, #48]
ffff000000087044:	d5182040 	msr	tcr_el1, x0
ffff000000087048:	d5033b9f 	dsb	ish
ffff00000008704c:	d5033fdf 	isb
ffff000000087050:	b0000040 	adrp	x0, ffff000000090000 <pool_slots+0x6f0>
ffff000000087054:	910e2000 	add	x0, x0, #0x388
ffff000000087058:	97ffff69 	bl	ffff000000086dfc <uart_write_str_raw>
ffff00000008705c:	d503201f 	nop
ffff000000087060:	a8c67bfd 	ldp	x29, x30, [sp], #96
ffff000000087064:	d65f03c0 	ret

ffff000000087068 <walk>:
ffff000000087068:	a9ba7bfd 	stp	x29, x30, [sp, #-96]!
ffff00000008706c:	910003fd 	mov	x29, sp
ffff000000087070:	f90017e0 	str	x0, [sp, #40]
ffff000000087074:	f90013e1 	str	x1, [sp, #32]
ffff000000087078:	b9001fe2 	str	w2, [sp, #28]
ffff00000008707c:	b9005fff 	str	wzr, [sp, #92]
ffff000000087080:	1400005d 	b	ffff0000000871f4 <walk+0x18c>
ffff000000087084:	b9405fe0 	ldr	w0, [sp, #92]
ffff000000087088:	7100001f 	cmp	w0, #0x0
ffff00000008708c:	540000a1 	b.ne	ffff0000000870a0 <walk+0x38>  // b.any
ffff000000087090:	f94013e0 	ldr	x0, [sp, #32]
ffff000000087094:	d367fc00 	lsr	x0, x0, #39
ffff000000087098:	12002000 	and	w0, w0, #0x1ff
ffff00000008709c:	1400000b 	b	ffff0000000870c8 <walk+0x60>
ffff0000000870a0:	b9405fe0 	ldr	w0, [sp, #92]
ffff0000000870a4:	7100041f 	cmp	w0, #0x1
ffff0000000870a8:	540000a1 	b.ne	ffff0000000870bc <walk+0x54>  // b.any
ffff0000000870ac:	f94013e0 	ldr	x0, [sp, #32]
ffff0000000870b0:	d35efc00 	lsr	x0, x0, #30
ffff0000000870b4:	12002000 	and	w0, w0, #0x1ff
ffff0000000870b8:	14000004 	b	ffff0000000870c8 <walk+0x60>
ffff0000000870bc:	f94013e0 	ldr	x0, [sp, #32]
ffff0000000870c0:	d355fc00 	lsr	x0, x0, #21
ffff0000000870c4:	12002000 	and	w0, w0, #0x1ff
ffff0000000870c8:	b90057e0 	str	w0, [sp, #84]
ffff0000000870cc:	b98057e0 	ldrsw	x0, [sp, #84]
ffff0000000870d0:	d37df000 	lsl	x0, x0, #3
ffff0000000870d4:	f94017e1 	ldr	x1, [sp, #40]
ffff0000000870d8:	8b000020 	add	x0, x1, x0
ffff0000000870dc:	f90027e0 	str	x0, [sp, #72]
ffff0000000870e0:	f94027e0 	ldr	x0, [sp, #72]
ffff0000000870e4:	f9400000 	ldr	x0, [x0]
ffff0000000870e8:	92400000 	and	x0, x0, #0x1
ffff0000000870ec:	f100001f 	cmp	x0, #0x0
ffff0000000870f0:	540000e0 	b.eq	ffff00000008710c <walk+0xa4>  // b.none
ffff0000000870f4:	f94027e0 	ldr	x0, [sp, #72]
ffff0000000870f8:	f9400000 	ldr	x0, [x0]
ffff0000000870fc:	92748c00 	and	x0, x0, #0xfffffffff000
ffff000000087100:	b2503c00 	orr	x0, x0, #0xffff000000000000
ffff000000087104:	f90017e0 	str	x0, [sp, #40]
ffff000000087108:	14000038 	b	ffff0000000871e8 <walk+0x180>
ffff00000008710c:	b9401fe0 	ldr	w0, [sp, #28]
ffff000000087110:	7100001f 	cmp	w0, #0x0
ffff000000087114:	54000061 	b.ne	ffff000000087120 <walk+0xb8>  // b.any
ffff000000087118:	d2800000 	mov	x0, #0x0                   	// #0
ffff00000008711c:	1400003f 	b	ffff000000087218 <walk+0x1b0>
ffff000000087120:	d2820000 	mov	x0, #0x1000                	// #4096
ffff000000087124:	97fff86c 	bl	ffff0000000852d4 <kmalloc>
ffff000000087128:	f90023e0 	str	x0, [sp, #64]
ffff00000008712c:	f94023e0 	ldr	x0, [sp, #64]
ffff000000087130:	f100001f 	cmp	x0, #0x0
ffff000000087134:	54000061 	b.ne	ffff000000087140 <walk+0xd8>  // b.any
ffff000000087138:	d2800000 	mov	x0, #0x0                   	// #0
ffff00000008713c:	14000037 	b	ffff000000087218 <walk+0x1b0>
ffff000000087140:	d2820002 	mov	x2, #0x1000                	// #4096
ffff000000087144:	52800001 	mov	w1, #0x0                   	// #0
ffff000000087148:	f94023e0 	ldr	x0, [sp, #64]
ffff00000008714c:	94000eb3 	bl	ffff00000008ac18 <memset>
ffff000000087150:	b9005bff 	str	wzr, [sp, #88]
ffff000000087154:	14000009 	b	ffff000000087178 <walk+0x110>
ffff000000087158:	b9805be0 	ldrsw	x0, [sp, #88]
ffff00000008715c:	d37df000 	lsl	x0, x0, #3
ffff000000087160:	f94023e1 	ldr	x1, [sp, #64]
ffff000000087164:	8b000020 	add	x0, x1, x0
ffff000000087168:	f900001f 	str	xzr, [x0]
ffff00000008716c:	b9405be0 	ldr	w0, [sp, #88]
ffff000000087170:	11000400 	add	w0, w0, #0x1
ffff000000087174:	b9005be0 	str	w0, [sp, #88]
ffff000000087178:	b9405be0 	ldr	w0, [sp, #88]
ffff00000008717c:	7107fc1f 	cmp	w0, #0x1ff
ffff000000087180:	54fffecd 	b.le	ffff000000087158 <walk+0xf0>
ffff000000087184:	f94023e0 	ldr	x0, [sp, #64]
ffff000000087188:	9240bc00 	and	x0, x0, #0xffffffffffff
ffff00000008718c:	f9001fe0 	str	x0, [sp, #56]
ffff000000087190:	f9401fe0 	ldr	x0, [sp, #56]
ffff000000087194:	b2400401 	orr	x1, x0, #0x3
ffff000000087198:	f94027e0 	ldr	x0, [sp, #72]
ffff00000008719c:	f9000001 	str	x1, [x0]
ffff0000000871a0:	f94023e0 	ldr	x0, [sp, #64]
ffff0000000871a4:	f90017e0 	str	x0, [sp, #40]
ffff0000000871a8:	b0000040 	adrp	x0, ffff000000090000 <pool_slots+0x6f0>
ffff0000000871ac:	910ea000 	add	x0, x0, #0x3a8
ffff0000000871b0:	97ffff13 	bl	ffff000000086dfc <uart_write_str_raw>
ffff0000000871b4:	b9405fe0 	ldr	w0, [sp, #92]
ffff0000000871b8:	11000400 	add	w0, w0, #0x1
ffff0000000871bc:	97ffff27 	bl	ffff000000086e58 <uart_write_int_raw>
ffff0000000871c0:	b0000040 	adrp	x0, ffff000000090000 <pool_slots+0x6f0>
ffff0000000871c4:	910f6000 	add	x0, x0, #0x3d8
ffff0000000871c8:	97ffff0d 	bl	ffff000000086dfc <uart_write_str_raw>
ffff0000000871cc:	b94057e0 	ldr	w0, [sp, #84]
ffff0000000871d0:	97ffff22 	bl	ffff000000086e58 <uart_write_int_raw>
ffff0000000871d4:	b0000040 	adrp	x0, ffff000000090000 <pool_slots+0x6f0>
ffff0000000871d8:	910fc000 	add	x0, x0, #0x3f0
ffff0000000871dc:	97ffff08 	bl	ffff000000086dfc <uart_write_str_raw>
ffff0000000871e0:	f94023e0 	ldr	x0, [sp, #64]
ffff0000000871e4:	97ffff35 	bl	ffff000000086eb8 <uart_write_hex_raw>
ffff0000000871e8:	b9405fe0 	ldr	w0, [sp, #92]
ffff0000000871ec:	11000400 	add	w0, w0, #0x1
ffff0000000871f0:	b9005fe0 	str	w0, [sp, #92]
ffff0000000871f4:	b9405fe0 	ldr	w0, [sp, #92]
ffff0000000871f8:	7100081f 	cmp	w0, #0x2
ffff0000000871fc:	54fff44d 	b.le	ffff000000087084 <walk+0x1c>
ffff000000087200:	f94013e0 	ldr	x0, [sp, #32]
ffff000000087204:	d34cfc00 	lsr	x0, x0, #12
ffff000000087208:	92402000 	and	x0, x0, #0x1ff
ffff00000008720c:	d37df000 	lsl	x0, x0, #3
ffff000000087210:	f94017e1 	ldr	x1, [sp, #40]
ffff000000087214:	8b000020 	add	x0, x1, x0
ffff000000087218:	a8c67bfd 	ldp	x29, x30, [sp], #96
ffff00000008721c:	d65f03c0 	ret

ffff000000087220 <mappages>:
ffff000000087220:	a9ba7bfd 	stp	x29, x30, [sp, #-96]!
ffff000000087224:	910003fd 	mov	x29, sp
ffff000000087228:	f9001fe0 	str	x0, [sp, #56]
ffff00000008722c:	f9001be1 	str	x1, [sp, #48]
ffff000000087230:	f90017e2 	str	x2, [sp, #40]
ffff000000087234:	f90013e3 	str	x3, [sp, #32]
ffff000000087238:	b9001fe4 	str	w4, [sp, #28]
ffff00000008723c:	f9401be0 	ldr	x0, [sp, #48]
ffff000000087240:	9274cc00 	and	x0, x0, #0xfffffffffffff000
ffff000000087244:	f9002fe0 	str	x0, [sp, #88]
ffff000000087248:	f9401be1 	ldr	x1, [sp, #48]
ffff00000008724c:	f94017e0 	ldr	x0, [sp, #40]
ffff000000087250:	8b000020 	add	x0, x1, x0
ffff000000087254:	d1000400 	sub	x0, x0, #0x1
ffff000000087258:	9274cc00 	and	x0, x0, #0xfffffffffffff000
ffff00000008725c:	f9002be0 	str	x0, [sp, #80]
ffff000000087260:	b0000040 	adrp	x0, ffff000000090000 <pool_slots+0x6f0>
ffff000000087264:	91102000 	add	x0, x0, #0x408
ffff000000087268:	97fffee5 	bl	ffff000000086dfc <uart_write_str_raw>
ffff00000008726c:	f9402fe0 	ldr	x0, [sp, #88]
ffff000000087270:	97ffff12 	bl	ffff000000086eb8 <uart_write_hex_raw>
ffff000000087274:	b0000040 	adrp	x0, ffff000000090000 <pool_slots+0x6f0>
ffff000000087278:	9110a000 	add	x0, x0, #0x428
ffff00000008727c:	97fffee0 	bl	ffff000000086dfc <uart_write_str_raw>
ffff000000087280:	f94013e0 	ldr	x0, [sp, #32]
ffff000000087284:	97ffff0d 	bl	ffff000000086eb8 <uart_write_hex_raw>
ffff000000087288:	f9402fe1 	ldr	x1, [sp, #88]
ffff00000008728c:	d2a28000 	mov	x0, #0x14000000            	// #335544320
ffff000000087290:	f2c04b40 	movk	x0, #0x25a, lsl #32
ffff000000087294:	f2e28000 	movk	x0, #0x1400, lsl #48
ffff000000087298:	eb00003f 	cmp	x1, x0
ffff00000008729c:	540000a1 	b.ne	ffff0000000872b0 <mappages+0x90>  // b.any
ffff0000000872a0:	b0000040 	adrp	x0, ffff000000090000 <pool_slots+0x6f0>
ffff0000000872a4:	9110c000 	add	x0, x0, #0x430
ffff0000000872a8:	97fffed5 	bl	ffff000000086dfc <uart_write_str_raw>
ffff0000000872ac:	14000000 	b	ffff0000000872ac <mappages+0x8c>
ffff0000000872b0:	52800022 	mov	w2, #0x1                   	// #1
ffff0000000872b4:	f9402fe1 	ldr	x1, [sp, #88]
ffff0000000872b8:	f9401fe0 	ldr	x0, [sp, #56]
ffff0000000872bc:	97ffff6b 	bl	ffff000000087068 <walk>
ffff0000000872c0:	f90027e0 	str	x0, [sp, #72]
ffff0000000872c4:	f94027e0 	ldr	x0, [sp, #72]
ffff0000000872c8:	f100001f 	cmp	x0, #0x0
ffff0000000872cc:	54000061 	b.ne	ffff0000000872d8 <mappages+0xb8>  // b.any
ffff0000000872d0:	12800000 	mov	w0, #0xffffffff            	// #-1
ffff0000000872d4:	1400001c 	b	ffff000000087344 <mappages+0x124>
ffff0000000872d8:	f94013e0 	ldr	x0, [sp, #32]
ffff0000000872dc:	9274cc01 	and	x1, x0, #0xfffffffffffff000
ffff0000000872e0:	b9801fe0 	ldrsw	x0, [sp, #28]
ffff0000000872e4:	aa000021 	orr	x1, x1, x0
ffff0000000872e8:	d2808060 	mov	x0, #0x403                 	// #1027
ffff0000000872ec:	aa000021 	orr	x1, x1, x0
ffff0000000872f0:	f94027e0 	ldr	x0, [sp, #72]
ffff0000000872f4:	f9000001 	str	x1, [x0]
ffff0000000872f8:	b0000040 	adrp	x0, ffff000000090000 <pool_slots+0x6f0>
ffff0000000872fc:	9111e000 	add	x0, x0, #0x478
ffff000000087300:	97fffebf 	bl	ffff000000086dfc <uart_write_str_raw>
ffff000000087304:	f94027e0 	ldr	x0, [sp, #72]
ffff000000087308:	f9400000 	ldr	x0, [x0]
ffff00000008730c:	97fffeeb 	bl	ffff000000086eb8 <uart_write_hex_raw>
ffff000000087310:	f9402fe1 	ldr	x1, [sp, #88]
ffff000000087314:	f9402be0 	ldr	x0, [sp, #80]
ffff000000087318:	eb00003f 	cmp	x1, x0
ffff00000008731c:	54000100 	b.eq	ffff00000008733c <mappages+0x11c>  // b.none
ffff000000087320:	f9402fe0 	ldr	x0, [sp, #88]
ffff000000087324:	91400400 	add	x0, x0, #0x1, lsl #12
ffff000000087328:	f9002fe0 	str	x0, [sp, #88]
ffff00000008732c:	f94013e0 	ldr	x0, [sp, #32]
ffff000000087330:	91400400 	add	x0, x0, #0x1, lsl #12
ffff000000087334:	f90013e0 	str	x0, [sp, #32]
ffff000000087338:	17ffffca 	b	ffff000000087260 <mappages+0x40>
ffff00000008733c:	d503201f 	nop
ffff000000087340:	52800000 	mov	w0, #0x0                   	// #0
ffff000000087344:	a8c67bfd 	ldp	x29, x30, [sp], #96
ffff000000087348:	d65f03c0 	ret

ffff00000008734c <switch_user_address_space>:
ffff00000008734c:	d10043ff 	sub	sp, sp, #0x10
ffff000000087350:	f90007e0 	str	x0, [sp, #8]
ffff000000087354:	d5033b9f 	dsb	ish
ffff000000087358:	f94007e0 	ldr	x0, [sp, #8]
ffff00000008735c:	d5182000 	msr	ttbr0_el1, x0
ffff000000087360:	d508831f 	tlbi	vmalle1is
ffff000000087364:	d5033b9f 	dsb	ish
ffff000000087368:	d5033fdf 	isb
ffff00000008736c:	d503201f 	nop
ffff000000087370:	910043ff 	add	sp, sp, #0x10
ffff000000087374:	d65f03c0 	ret

ffff000000087378 <restore_kernel_address_space>:
ffff000000087378:	d10043ff 	sub	sp, sp, #0x10
ffff00000008737c:	d2860000 	mov	x0, #0x3000                	// #12288
ffff000000087380:	f90007e0 	str	x0, [sp, #8]
ffff000000087384:	d5033b9f 	dsb	ish
ffff000000087388:	f94007e0 	ldr	x0, [sp, #8]
ffff00000008738c:	d5182000 	msr	ttbr0_el1, x0
ffff000000087390:	d508831f 	tlbi	vmalle1is
ffff000000087394:	d5033b9f 	dsb	ish
ffff000000087398:	d5033fdf 	isb
ffff00000008739c:	d503201f 	nop
ffff0000000873a0:	910043ff 	add	sp, sp, #0x10
ffff0000000873a4:	d65f03c0 	ret

ffff0000000873a8 <user_pagetable_setup>:
ffff0000000873a8:	a9b87bfd 	stp	x29, x30, [sp, #-128]!
ffff0000000873ac:	910003fd 	mov	x29, sp
ffff0000000873b0:	f90017e0 	str	x0, [sp, #40]
ffff0000000873b4:	f90013e1 	str	x1, [sp, #32]
ffff0000000873b8:	f9000fe2 	str	x2, [sp, #24]
ffff0000000873bc:	97fffae2 	bl	ffff000000085f44 <disable_uart_interrupt>
ffff0000000873c0:	d2820000 	mov	x0, #0x1000                	// #4096
ffff0000000873c4:	97fff7c4 	bl	ffff0000000852d4 <kmalloc>
ffff0000000873c8:	f90037e0 	str	x0, [sp, #104]
ffff0000000873cc:	d2820002 	mov	x2, #0x1000                	// #4096
ffff0000000873d0:	52800001 	mov	w1, #0x0                   	// #0
ffff0000000873d4:	f94037e0 	ldr	x0, [sp, #104]
ffff0000000873d8:	94000e10 	bl	ffff00000008ac18 <memset>
ffff0000000873dc:	f94017e0 	ldr	x0, [sp, #40]
ffff0000000873e0:	f94037e1 	ldr	x1, [sp, #104]
ffff0000000873e4:	f900f801 	str	x1, [x0, #496]
ffff0000000873e8:	b0000040 	adrp	x0, ffff000000090000 <pool_slots+0x6f0>
ffff0000000873ec:	91122000 	add	x0, x0, #0x488
ffff0000000873f0:	97fffe83 	bl	ffff000000086dfc <uart_write_str_raw>
ffff0000000873f4:	f90033ff 	str	xzr, [sp, #96]
ffff0000000873f8:	f9400fe0 	ldr	x0, [sp, #24]
ffff0000000873fc:	913ffc00 	add	x0, x0, #0xfff
ffff000000087400:	9274cc00 	and	x0, x0, #0xfffffffffffff000
ffff000000087404:	f9002fe0 	str	x0, [sp, #88]
ffff000000087408:	b0000040 	adrp	x0, ffff000000090000 <pool_slots+0x6f0>
ffff00000008740c:	91138000 	add	x0, x0, #0x4e0
ffff000000087410:	97fffe7b 	bl	ffff000000086dfc <uart_write_str_raw>
ffff000000087414:	f9402fe0 	ldr	x0, [sp, #88]
ffff000000087418:	d34cfc00 	lsr	x0, x0, #12
ffff00000008741c:	97fffe8f 	bl	ffff000000086e58 <uart_write_int_raw>
ffff000000087420:	f9003fff 	str	xzr, [sp, #120]
ffff000000087424:	14000017 	b	ffff000000087480 <user_pagetable_setup+0xd8>
ffff000000087428:	b0000040 	adrp	x0, ffff000000090000 <pool_slots+0x6f0>
ffff00000008742c:	91140000 	add	x0, x0, #0x500
ffff000000087430:	97fffe73 	bl	ffff000000086dfc <uart_write_str_raw>
ffff000000087434:	f9403fe0 	ldr	x0, [sp, #120]
ffff000000087438:	97fffe88 	bl	ffff000000086e58 <uart_write_int_raw>
ffff00000008743c:	f94013e1 	ldr	x1, [sp, #32]
ffff000000087440:	f9403fe0 	ldr	x0, [sp, #120]
ffff000000087444:	8b000020 	add	x0, x1, x0
ffff000000087448:	9240bc00 	and	x0, x0, #0xffffffffffff
ffff00000008744c:	f9001fe0 	str	x0, [sp, #56]
ffff000000087450:	f94033e1 	ldr	x1, [sp, #96]
ffff000000087454:	f9403fe0 	ldr	x0, [sp, #120]
ffff000000087458:	8b000020 	add	x0, x1, x0
ffff00000008745c:	52800884 	mov	w4, #0x44                  	// #68
ffff000000087460:	f9401fe3 	ldr	x3, [sp, #56]
ffff000000087464:	d2820002 	mov	x2, #0x1000                	// #4096
ffff000000087468:	aa0003e1 	mov	x1, x0
ffff00000008746c:	f94037e0 	ldr	x0, [sp, #104]
ffff000000087470:	97ffff6c 	bl	ffff000000087220 <mappages>
ffff000000087474:	f9403fe0 	ldr	x0, [sp, #120]
ffff000000087478:	91400400 	add	x0, x0, #0x1, lsl #12
ffff00000008747c:	f9003fe0 	str	x0, [sp, #120]
ffff000000087480:	f9403fe1 	ldr	x1, [sp, #120]
ffff000000087484:	f9402fe0 	ldr	x0, [sp, #88]
ffff000000087488:	eb00003f 	cmp	x1, x0
ffff00000008748c:	54fffce3 	b.cc	ffff000000087428 <user_pagetable_setup+0x80>  // b.lo, b.ul, b.last
ffff000000087490:	b0000040 	adrp	x0, ffff000000090000 <pool_slots+0x6f0>
ffff000000087494:	91144000 	add	x0, x0, #0x510
ffff000000087498:	97fffe59 	bl	ffff000000086dfc <uart_write_str_raw>
ffff00000008749c:	b2748fe0 	mov	x0, #0xfffffffff000        	// #281474976706560
ffff0000000874a0:	f9002be0 	str	x0, [sp, #80]
ffff0000000874a4:	f94017e0 	ldr	x0, [sp, #40]
ffff0000000874a8:	f9402be1 	ldr	x1, [sp, #80]
ffff0000000874ac:	f9001401 	str	x1, [x0, #40]
ffff0000000874b0:	f9402be0 	ldr	x0, [sp, #80]
ffff0000000874b4:	d1401000 	sub	x0, x0, #0x4, lsl #12
ffff0000000874b8:	aa0003e1 	mov	x1, x0
ffff0000000874bc:	f94017e0 	ldr	x0, [sp, #40]
ffff0000000874c0:	f9001001 	str	x1, [x0, #32]
ffff0000000874c4:	b90077ff 	str	wzr, [sp, #116]
ffff0000000874c8:	1400001f 	b	ffff000000087544 <user_pagetable_setup+0x19c>
ffff0000000874cc:	b0000040 	adrp	x0, ffff000000090000 <pool_slots+0x6f0>
ffff0000000874d0:	91140000 	add	x0, x0, #0x500
ffff0000000874d4:	97fffe4a 	bl	ffff000000086dfc <uart_write_str_raw>
ffff0000000874d8:	b94077e0 	ldr	w0, [sp, #116]
ffff0000000874dc:	97fffe5f 	bl	ffff000000086e58 <uart_write_int_raw>
ffff0000000874e0:	d2820000 	mov	x0, #0x1000                	// #4096
ffff0000000874e4:	97fff77c 	bl	ffff0000000852d4 <kmalloc>
ffff0000000874e8:	f90027e0 	str	x0, [sp, #72]
ffff0000000874ec:	d2820002 	mov	x2, #0x1000                	// #4096
ffff0000000874f0:	52800001 	mov	w1, #0x0                   	// #0
ffff0000000874f4:	f94027e0 	ldr	x0, [sp, #72]
ffff0000000874f8:	94000dc8 	bl	ffff00000008ac18 <memset>
ffff0000000874fc:	f94027e0 	ldr	x0, [sp, #72]
ffff000000087500:	9240bc00 	and	x0, x0, #0xffffffffffff
ffff000000087504:	f90023e0 	str	x0, [sp, #64]
ffff000000087508:	b94077e0 	ldr	w0, [sp, #116]
ffff00000008750c:	53144c00 	lsl	w0, w0, #12
ffff000000087510:	93407c00 	sxtw	x0, w0
ffff000000087514:	f9402be1 	ldr	x1, [sp, #80]
ffff000000087518:	cb000021 	sub	x1, x1, x0
ffff00000008751c:	f94023e0 	ldr	x0, [sp, #64]
ffff000000087520:	91400400 	add	x0, x0, #0x1, lsl #12
ffff000000087524:	52800884 	mov	w4, #0x44                  	// #68
ffff000000087528:	aa0003e3 	mov	x3, x0
ffff00000008752c:	d2820002 	mov	x2, #0x1000                	// #4096
ffff000000087530:	f94037e0 	ldr	x0, [sp, #104]
ffff000000087534:	97ffff3b 	bl	ffff000000087220 <mappages>
ffff000000087538:	b94077e0 	ldr	w0, [sp, #116]
ffff00000008753c:	11000400 	add	w0, w0, #0x1
ffff000000087540:	b90077e0 	str	w0, [sp, #116]
ffff000000087544:	b94077e0 	ldr	w0, [sp, #116]
ffff000000087548:	71000c1f 	cmp	w0, #0x3
ffff00000008754c:	54fffc0d 	b.le	ffff0000000874cc <user_pagetable_setup+0x124>
ffff000000087550:	97fffa5b 	bl	ffff000000085ebc <enable_uart_interrupt>
ffff000000087554:	d503201f 	nop
ffff000000087558:	a8c87bfd 	ldp	x29, x30, [sp], #128
ffff00000008755c:	d65f03c0 	ret

ffff000000087560 <free_pagetable>:
ffff000000087560:	a9bb7bfd 	stp	x29, x30, [sp, #-80]!
ffff000000087564:	910003fd 	mov	x29, sp
ffff000000087568:	f9000fe0 	str	x0, [sp, #24]
ffff00000008756c:	b90017e1 	str	w1, [sp, #20]
ffff000000087570:	b94017e0 	ldr	w0, [sp, #20]
ffff000000087574:	71000c1f 	cmp	w0, #0x3
ffff000000087578:	54000461 	b.ne	ffff000000087604 <free_pagetable+0xa4>  // b.any
ffff00000008757c:	b9004fff 	str	wzr, [sp, #76]
ffff000000087580:	1400001d 	b	ffff0000000875f4 <free_pagetable+0x94>
ffff000000087584:	b9804fe0 	ldrsw	x0, [sp, #76]
ffff000000087588:	d37df000 	lsl	x0, x0, #3
ffff00000008758c:	f9400fe1 	ldr	x1, [sp, #24]
ffff000000087590:	8b000020 	add	x0, x1, x0
ffff000000087594:	f9400000 	ldr	x0, [x0]
ffff000000087598:	f9001be0 	str	x0, [sp, #48]
ffff00000008759c:	f9401be0 	ldr	x0, [sp, #48]
ffff0000000875a0:	92400000 	and	x0, x0, #0x1
ffff0000000875a4:	f100001f 	cmp	x0, #0x0
ffff0000000875a8:	54000200 	b.eq	ffff0000000875e8 <free_pagetable+0x88>  // b.none
ffff0000000875ac:	f9401be0 	ldr	x0, [sp, #48]
ffff0000000875b0:	927f0000 	and	x0, x0, #0x2
ffff0000000875b4:	f100001f 	cmp	x0, #0x0
ffff0000000875b8:	54000180 	b.eq	ffff0000000875e8 <free_pagetable+0x88>  // b.none
ffff0000000875bc:	f9401be0 	ldr	x0, [sp, #48]
ffff0000000875c0:	9274cc00 	and	x0, x0, #0xfffffffffffff000
ffff0000000875c4:	f90017e0 	str	x0, [sp, #40]
ffff0000000875c8:	f94017e0 	ldr	x0, [sp, #40]
ffff0000000875cc:	b2503c00 	orr	x0, x0, #0xffff000000000000
ffff0000000875d0:	97fff711 	bl	ffff000000085214 <kfree>
ffff0000000875d4:	b9804fe0 	ldrsw	x0, [sp, #76]
ffff0000000875d8:	d37df000 	lsl	x0, x0, #3
ffff0000000875dc:	f9400fe1 	ldr	x1, [sp, #24]
ffff0000000875e0:	8b000020 	add	x0, x1, x0
ffff0000000875e4:	f900001f 	str	xzr, [x0]
ffff0000000875e8:	b9404fe0 	ldr	w0, [sp, #76]
ffff0000000875ec:	11000400 	add	w0, w0, #0x1
ffff0000000875f0:	b9004fe0 	str	w0, [sp, #76]
ffff0000000875f4:	b9404fe0 	ldr	w0, [sp, #76]
ffff0000000875f8:	7107fc1f 	cmp	w0, #0x1ff
ffff0000000875fc:	54fffc4d 	b.le	ffff000000087584 <free_pagetable+0x24>
ffff000000087600:	14000027 	b	ffff00000008769c <free_pagetable+0x13c>
ffff000000087604:	b9004bff 	str	wzr, [sp, #72]
ffff000000087608:	14000022 	b	ffff000000087690 <free_pagetable+0x130>
ffff00000008760c:	b9804be0 	ldrsw	x0, [sp, #72]
ffff000000087610:	d37df000 	lsl	x0, x0, #3
ffff000000087614:	f9400fe1 	ldr	x1, [sp, #24]
ffff000000087618:	8b000020 	add	x0, x1, x0
ffff00000008761c:	f9400000 	ldr	x0, [x0]
ffff000000087620:	f90023e0 	str	x0, [sp, #64]
ffff000000087624:	f94023e0 	ldr	x0, [sp, #64]
ffff000000087628:	92400000 	and	x0, x0, #0x1
ffff00000008762c:	f100001f 	cmp	x0, #0x0
ffff000000087630:	540002a0 	b.eq	ffff000000087684 <free_pagetable+0x124>  // b.none
ffff000000087634:	f94023e0 	ldr	x0, [sp, #64]
ffff000000087638:	927f0000 	and	x0, x0, #0x2
ffff00000008763c:	f100001f 	cmp	x0, #0x0
ffff000000087640:	54000220 	b.eq	ffff000000087684 <free_pagetable+0x124>  // b.none
ffff000000087644:	f94023e0 	ldr	x0, [sp, #64]
ffff000000087648:	92748c00 	and	x0, x0, #0xfffffffff000
ffff00000008764c:	b2503c00 	orr	x0, x0, #0xffff000000000000
ffff000000087650:	f9001fe0 	str	x0, [sp, #56]
ffff000000087654:	b94017e0 	ldr	w0, [sp, #20]
ffff000000087658:	11000400 	add	w0, w0, #0x1
ffff00000008765c:	2a0003e1 	mov	w1, w0
ffff000000087660:	f9401fe0 	ldr	x0, [sp, #56]
ffff000000087664:	97ffffbf 	bl	ffff000000087560 <free_pagetable>
ffff000000087668:	f9401fe0 	ldr	x0, [sp, #56]
ffff00000008766c:	97fff6ea 	bl	ffff000000085214 <kfree>
ffff000000087670:	b9804be0 	ldrsw	x0, [sp, #72]
ffff000000087674:	d37df000 	lsl	x0, x0, #3
ffff000000087678:	f9400fe1 	ldr	x1, [sp, #24]
ffff00000008767c:	8b000020 	add	x0, x1, x0
ffff000000087680:	f900001f 	str	xzr, [x0]
ffff000000087684:	b9404be0 	ldr	w0, [sp, #72]
ffff000000087688:	11000400 	add	w0, w0, #0x1
ffff00000008768c:	b9004be0 	str	w0, [sp, #72]
ffff000000087690:	b9404be0 	ldr	w0, [sp, #72]
ffff000000087694:	7107fc1f 	cmp	w0, #0x1ff
ffff000000087698:	54fffbad 	b.le	ffff00000008760c <free_pagetable+0xac>
ffff00000008769c:	d503201f 	nop
ffff0000000876a0:	a8c57bfd 	ldp	x29, x30, [sp], #80
ffff0000000876a4:	d65f03c0 	ret

ffff0000000876a8 <copy_user_pagetable>:
ffff0000000876a8:	a9ba7bfd 	stp	x29, x30, [sp, #-96]!
ffff0000000876ac:	910003fd 	mov	x29, sp
ffff0000000876b0:	f9000fe0 	str	x0, [sp, #24]
ffff0000000876b4:	d2820000 	mov	x0, #0x1000                	// #4096
ffff0000000876b8:	97fff707 	bl	ffff0000000852d4 <kmalloc>
ffff0000000876bc:	f9002be0 	str	x0, [sp, #80]
ffff0000000876c0:	f9402be0 	ldr	x0, [sp, #80]
ffff0000000876c4:	f100001f 	cmp	x0, #0x0
ffff0000000876c8:	54000061 	b.ne	ffff0000000876d4 <copy_user_pagetable+0x2c>  // b.any
ffff0000000876cc:	d2800000 	mov	x0, #0x0                   	// #0
ffff0000000876d0:	14000067 	b	ffff00000008786c <copy_user_pagetable+0x1c4>
ffff0000000876d4:	d2820002 	mov	x2, #0x1000                	// #4096
ffff0000000876d8:	52800001 	mov	w1, #0x0                   	// #0
ffff0000000876dc:	f9402be0 	ldr	x0, [sp, #80]
ffff0000000876e0:	94000d4e 	bl	ffff00000008ac18 <memset>
ffff0000000876e4:	b9005fff 	str	wzr, [sp, #92]
ffff0000000876e8:	1400005d 	b	ffff00000008785c <copy_user_pagetable+0x1b4>
ffff0000000876ec:	b9805fe0 	ldrsw	x0, [sp, #92]
ffff0000000876f0:	d37df000 	lsl	x0, x0, #3
ffff0000000876f4:	f9400fe1 	ldr	x1, [sp, #24]
ffff0000000876f8:	8b000020 	add	x0, x1, x0
ffff0000000876fc:	f9400000 	ldr	x0, [x0]
ffff000000087700:	f90027e0 	str	x0, [sp, #72]
ffff000000087704:	f94027e0 	ldr	x0, [sp, #72]
ffff000000087708:	92400000 	and	x0, x0, #0x1
ffff00000008770c:	f100001f 	cmp	x0, #0x0
ffff000000087710:	54000a00 	b.eq	ffff000000087850 <copy_user_pagetable+0x1a8>  // b.none
ffff000000087714:	f94027e0 	ldr	x0, [sp, #72]
ffff000000087718:	927f0000 	and	x0, x0, #0x2
ffff00000008771c:	f100001f 	cmp	x0, #0x0
ffff000000087720:	54000360 	b.eq	ffff00000008778c <copy_user_pagetable+0xe4>  // b.none
ffff000000087724:	b0000040 	adrp	x0, ffff000000090000 <pool_slots+0x6f0>
ffff000000087728:	9115a000 	add	x0, x0, #0x568
ffff00000008772c:	97fffdb4 	bl	ffff000000086dfc <uart_write_str_raw>
ffff000000087730:	f94027e0 	ldr	x0, [sp, #72]
ffff000000087734:	97fffde1 	bl	ffff000000086eb8 <uart_write_hex_raw>
ffff000000087738:	f94027e0 	ldr	x0, [sp, #72]
ffff00000008773c:	92748c00 	and	x0, x0, #0xfffffffff000
ffff000000087740:	b2503c00 	orr	x0, x0, #0xffff000000000000
ffff000000087744:	f9001be0 	str	x0, [sp, #48]
ffff000000087748:	f9401be0 	ldr	x0, [sp, #48]
ffff00000008774c:	97ffffd7 	bl	ffff0000000876a8 <copy_user_pagetable>
ffff000000087750:	f90017e0 	str	x0, [sp, #40]
ffff000000087754:	f94017e0 	ldr	x0, [sp, #40]
ffff000000087758:	f100001f 	cmp	x0, #0x0
ffff00000008775c:	54000061 	b.ne	ffff000000087768 <copy_user_pagetable+0xc0>  // b.any
ffff000000087760:	d2800000 	mov	x0, #0x0                   	// #0
ffff000000087764:	14000042 	b	ffff00000008786c <copy_user_pagetable+0x1c4>
ffff000000087768:	f94017e0 	ldr	x0, [sp, #40]
ffff00000008776c:	927eb401 	and	x1, x0, #0xfffffffffffc
ffff000000087770:	b9805fe0 	ldrsw	x0, [sp, #92]
ffff000000087774:	d37df000 	lsl	x0, x0, #3
ffff000000087778:	f9402be2 	ldr	x2, [sp, #80]
ffff00000008777c:	8b000040 	add	x0, x2, x0
ffff000000087780:	b2400421 	orr	x1, x1, #0x3
ffff000000087784:	f9000001 	str	x1, [x0]
ffff000000087788:	14000032 	b	ffff000000087850 <copy_user_pagetable+0x1a8>
ffff00000008778c:	f94027e0 	ldr	x0, [sp, #72]
ffff000000087790:	927f0000 	and	x0, x0, #0x2
ffff000000087794:	f100001f 	cmp	x0, #0x0
ffff000000087798:	540005c0 	b.eq	ffff000000087850 <copy_user_pagetable+0x1a8>  // b.none
ffff00000008779c:	b0000040 	adrp	x0, ffff000000090000 <pool_slots+0x6f0>
ffff0000000877a0:	91162000 	add	x0, x0, #0x588
ffff0000000877a4:	97fffd96 	bl	ffff000000086dfc <uart_write_str_raw>
ffff0000000877a8:	f94027e0 	ldr	x0, [sp, #72]
ffff0000000877ac:	97fffdc3 	bl	ffff000000086eb8 <uart_write_hex_raw>
ffff0000000877b0:	d2820000 	mov	x0, #0x1000                	// #4096
ffff0000000877b4:	97fff6c8 	bl	ffff0000000852d4 <kmalloc>
ffff0000000877b8:	f90023e0 	str	x0, [sp, #64]
ffff0000000877bc:	f94023e0 	ldr	x0, [sp, #64]
ffff0000000877c0:	f100001f 	cmp	x0, #0x0
ffff0000000877c4:	54000061 	b.ne	ffff0000000877d0 <copy_user_pagetable+0x128>  // b.any
ffff0000000877c8:	d2800000 	mov	x0, #0x0                   	// #0
ffff0000000877cc:	14000028 	b	ffff00000008786c <copy_user_pagetable+0x1c4>
ffff0000000877d0:	d2820002 	mov	x2, #0x1000                	// #4096
ffff0000000877d4:	52800001 	mov	w1, #0x0                   	// #0
ffff0000000877d8:	f94023e0 	ldr	x0, [sp, #64]
ffff0000000877dc:	94000d0f 	bl	ffff00000008ac18 <memset>
ffff0000000877e0:	f94027e0 	ldr	x0, [sp, #72]
ffff0000000877e4:	92748c00 	and	x0, x0, #0xfffffffff000
ffff0000000877e8:	b2503c00 	orr	x0, x0, #0xffff000000000000
ffff0000000877ec:	f9001fe0 	str	x0, [sp, #56]
ffff0000000877f0:	b0000040 	adrp	x0, ffff000000090000 <pool_slots+0x6f0>
ffff0000000877f4:	9116a000 	add	x0, x0, #0x5a8
ffff0000000877f8:	97fffd81 	bl	ffff000000086dfc <uart_write_str_raw>
ffff0000000877fc:	f9401fe0 	ldr	x0, [sp, #56]
ffff000000087800:	97fffdae 	bl	ffff000000086eb8 <uart_write_hex_raw>
ffff000000087804:	b0000040 	adrp	x0, ffff000000090000 <pool_slots+0x6f0>
ffff000000087808:	91172000 	add	x0, x0, #0x5c8
ffff00000008780c:	97fffd7c 	bl	ffff000000086dfc <uart_write_str_raw>
ffff000000087810:	f94023e0 	ldr	x0, [sp, #64]
ffff000000087814:	97fffda9 	bl	ffff000000086eb8 <uart_write_hex_raw>
ffff000000087818:	d2820002 	mov	x2, #0x1000                	// #4096
ffff00000008781c:	f9401fe1 	ldr	x1, [sp, #56]
ffff000000087820:	f94023e0 	ldr	x0, [sp, #64]
ffff000000087824:	94000d15 	bl	ffff00000008ac78 <simple_memcpy>
ffff000000087828:	f94023e0 	ldr	x0, [sp, #64]
ffff00000008782c:	9240bc02 	and	x2, x0, #0xffffffffffff
ffff000000087830:	f94027e0 	ldr	x0, [sp, #72]
ffff000000087834:	92402c01 	and	x1, x0, #0xfff
ffff000000087838:	b9805fe0 	ldrsw	x0, [sp, #92]
ffff00000008783c:	d37df000 	lsl	x0, x0, #3
ffff000000087840:	f9402be3 	ldr	x3, [sp, #80]
ffff000000087844:	8b000060 	add	x0, x3, x0
ffff000000087848:	aa010041 	orr	x1, x2, x1
ffff00000008784c:	f9000001 	str	x1, [x0]
ffff000000087850:	b9405fe0 	ldr	w0, [sp, #92]
ffff000000087854:	11000400 	add	w0, w0, #0x1
ffff000000087858:	b9005fe0 	str	w0, [sp, #92]
ffff00000008785c:	b9405fe0 	ldr	w0, [sp, #92]
ffff000000087860:	7107fc1f 	cmp	w0, #0x1ff
ffff000000087864:	54fff44d 	b.le	ffff0000000876ec <copy_user_pagetable+0x44>
ffff000000087868:	f9402be0 	ldr	x0, [sp, #80]
ffff00000008786c:	a8c67bfd 	ldp	x29, x30, [sp], #96
ffff000000087870:	d65f03c0 	ret

ffff000000087874 <VA_TO_PA_USER>:
ffff000000087874:	a9bc7bfd 	stp	x29, x30, [sp, #-64]!
ffff000000087878:	910003fd 	mov	x29, sp
ffff00000008787c:	f9000fe0 	str	x0, [sp, #24]
ffff000000087880:	f9000be1 	str	x1, [sp, #16]
ffff000000087884:	52800002 	mov	w2, #0x0                   	// #0
ffff000000087888:	f9400be1 	ldr	x1, [sp, #16]
ffff00000008788c:	f9400fe0 	ldr	x0, [sp, #24]
ffff000000087890:	97fffdf6 	bl	ffff000000087068 <walk>
ffff000000087894:	f9001fe0 	str	x0, [sp, #56]
ffff000000087898:	f9401fe0 	ldr	x0, [sp, #56]
ffff00000008789c:	f100001f 	cmp	x0, #0x0
ffff0000000878a0:	54000160 	b.eq	ffff0000000878cc <VA_TO_PA_USER+0x58>  // b.none
ffff0000000878a4:	f9401fe0 	ldr	x0, [sp, #56]
ffff0000000878a8:	f9400000 	ldr	x0, [x0]
ffff0000000878ac:	92400000 	and	x0, x0, #0x1
ffff0000000878b0:	f100001f 	cmp	x0, #0x0
ffff0000000878b4:	540000c0 	b.eq	ffff0000000878cc <VA_TO_PA_USER+0x58>  // b.none
ffff0000000878b8:	f9401fe0 	ldr	x0, [sp, #56]
ffff0000000878bc:	f9400000 	ldr	x0, [x0]
ffff0000000878c0:	927f0000 	and	x0, x0, #0x2
ffff0000000878c4:	f100001f 	cmp	x0, #0x0
ffff0000000878c8:	54000101 	b.ne	ffff0000000878e8 <VA_TO_PA_USER+0x74>  // b.any
ffff0000000878cc:	b0000040 	adrp	x0, ffff000000090000 <pool_slots+0x6f0>
ffff0000000878d0:	91178000 	add	x0, x0, #0x5e0
ffff0000000878d4:	97fffd4a 	bl	ffff000000086dfc <uart_write_str_raw>
ffff0000000878d8:	f9400be0 	ldr	x0, [sp, #16]
ffff0000000878dc:	97fffd77 	bl	ffff000000086eb8 <uart_write_hex_raw>
ffff0000000878e0:	d2800000 	mov	x0, #0x0                   	// #0
ffff0000000878e4:	1400000b 	b	ffff000000087910 <VA_TO_PA_USER+0x9c>
ffff0000000878e8:	f9401fe0 	ldr	x0, [sp, #56]
ffff0000000878ec:	f9400000 	ldr	x0, [x0]
ffff0000000878f0:	9274cc00 	and	x0, x0, #0xfffffffffffff000
ffff0000000878f4:	f9001be0 	str	x0, [sp, #48]
ffff0000000878f8:	f9400be0 	ldr	x0, [sp, #16]
ffff0000000878fc:	92402c00 	and	x0, x0, #0xfff
ffff000000087900:	f90017e0 	str	x0, [sp, #40]
ffff000000087904:	f9401be1 	ldr	x1, [sp, #48]
ffff000000087908:	f94017e0 	ldr	x0, [sp, #40]
ffff00000008790c:	8b000020 	add	x0, x1, x0
ffff000000087910:	a8c47bfd 	ldp	x29, x30, [sp], #64
ffff000000087914:	d65f03c0 	ret

ffff000000087918 <trace_va_mapping>:
ffff000000087918:	a9ba7bfd 	stp	x29, x30, [sp, #-96]!
ffff00000008791c:	910003fd 	mov	x29, sp
ffff000000087920:	f9000fe0 	str	x0, [sp, #24]
ffff000000087924:	f9000be1 	str	x1, [sp, #16]
ffff000000087928:	f9400be0 	ldr	x0, [sp, #16]
ffff00000008792c:	d367fc00 	lsr	x0, x0, #39
ffff000000087930:	12002000 	and	w0, w0, #0x1ff
ffff000000087934:	b9005fe0 	str	w0, [sp, #92]
ffff000000087938:	f9400be0 	ldr	x0, [sp, #16]
ffff00000008793c:	d35efc00 	lsr	x0, x0, #30
ffff000000087940:	12002000 	and	w0, w0, #0x1ff
ffff000000087944:	b9005be0 	str	w0, [sp, #88]
ffff000000087948:	f9400be0 	ldr	x0, [sp, #16]
ffff00000008794c:	d355fc00 	lsr	x0, x0, #21
ffff000000087950:	12002000 	and	w0, w0, #0x1ff
ffff000000087954:	b90057e0 	str	w0, [sp, #84]
ffff000000087958:	f9400be0 	ldr	x0, [sp, #16]
ffff00000008795c:	d34cfc00 	lsr	x0, x0, #12
ffff000000087960:	12002000 	and	w0, w0, #0x1ff
ffff000000087964:	b90053e0 	str	w0, [sp, #80]
ffff000000087968:	b9805fe0 	ldrsw	x0, [sp, #92]
ffff00000008796c:	d37df000 	lsl	x0, x0, #3
ffff000000087970:	f9400fe1 	ldr	x1, [sp, #24]
ffff000000087974:	8b000020 	add	x0, x1, x0
ffff000000087978:	f9400000 	ldr	x0, [x0]
ffff00000008797c:	f90027e0 	str	x0, [sp, #72]
ffff000000087980:	f94027e0 	ldr	x0, [sp, #72]
ffff000000087984:	92748c00 	and	x0, x0, #0xfffffffff000
ffff000000087988:	b2503c00 	orr	x0, x0, #0xffff000000000000
ffff00000008798c:	f90023e0 	str	x0, [sp, #64]
ffff000000087990:	b9805be0 	ldrsw	x0, [sp, #88]
ffff000000087994:	d37df000 	lsl	x0, x0, #3
ffff000000087998:	f94023e1 	ldr	x1, [sp, #64]
ffff00000008799c:	8b000020 	add	x0, x1, x0
ffff0000000879a0:	f9400000 	ldr	x0, [x0]
ffff0000000879a4:	f9001fe0 	str	x0, [sp, #56]
ffff0000000879a8:	f9401fe0 	ldr	x0, [sp, #56]
ffff0000000879ac:	92748c00 	and	x0, x0, #0xfffffffff000
ffff0000000879b0:	b2503c00 	orr	x0, x0, #0xffff000000000000
ffff0000000879b4:	f9001be0 	str	x0, [sp, #48]
ffff0000000879b8:	b98057e0 	ldrsw	x0, [sp, #84]
ffff0000000879bc:	d37df000 	lsl	x0, x0, #3
ffff0000000879c0:	f9401be1 	ldr	x1, [sp, #48]
ffff0000000879c4:	8b000020 	add	x0, x1, x0
ffff0000000879c8:	f9400000 	ldr	x0, [x0]
ffff0000000879cc:	f90017e0 	str	x0, [sp, #40]
ffff0000000879d0:	f94017e0 	ldr	x0, [sp, #40]
ffff0000000879d4:	92748c00 	and	x0, x0, #0xfffffffff000
ffff0000000879d8:	b2503c00 	orr	x0, x0, #0xffff000000000000
ffff0000000879dc:	f90013e0 	str	x0, [sp, #32]
ffff0000000879e0:	b0000040 	adrp	x0, ffff000000090000 <pool_slots+0x6f0>
ffff0000000879e4:	91184000 	add	x0, x0, #0x610
ffff0000000879e8:	97fffd05 	bl	ffff000000086dfc <uart_write_str_raw>
ffff0000000879ec:	b0000040 	adrp	x0, ffff000000090000 <pool_slots+0x6f0>
ffff0000000879f0:	9118c000 	add	x0, x0, #0x630
ffff0000000879f4:	97fffd02 	bl	ffff000000086dfc <uart_write_str_raw>
ffff0000000879f8:	f9400be0 	ldr	x0, [sp, #16]
ffff0000000879fc:	97fffd2f 	bl	ffff000000086eb8 <uart_write_hex_raw>
ffff000000087a00:	b0000040 	adrp	x0, ffff000000090000 <pool_slots+0x6f0>
ffff000000087a04:	91190000 	add	x0, x0, #0x640
ffff000000087a08:	97fffcfd 	bl	ffff000000086dfc <uart_write_str_raw>
ffff000000087a0c:	b9405fe0 	ldr	w0, [sp, #92]
ffff000000087a10:	97fffd12 	bl	ffff000000086e58 <uart_write_int_raw>
ffff000000087a14:	b0000040 	adrp	x0, ffff000000090000 <pool_slots+0x6f0>
ffff000000087a18:	91194000 	add	x0, x0, #0x650
ffff000000087a1c:	97fffcf8 	bl	ffff000000086dfc <uart_write_str_raw>
ffff000000087a20:	b9805fe0 	ldrsw	x0, [sp, #92]
ffff000000087a24:	d37df000 	lsl	x0, x0, #3
ffff000000087a28:	f9400fe1 	ldr	x1, [sp, #24]
ffff000000087a2c:	8b000020 	add	x0, x1, x0
ffff000000087a30:	f9400000 	ldr	x0, [x0]
ffff000000087a34:	97fffd21 	bl	ffff000000086eb8 <uart_write_hex_raw>
ffff000000087a38:	b0000040 	adrp	x0, ffff000000090000 <pool_slots+0x6f0>
ffff000000087a3c:	91198000 	add	x0, x0, #0x660
ffff000000087a40:	97fffcef 	bl	ffff000000086dfc <uart_write_str_raw>
ffff000000087a44:	b9405be0 	ldr	w0, [sp, #88]
ffff000000087a48:	97fffd04 	bl	ffff000000086e58 <uart_write_int_raw>
ffff000000087a4c:	b0000040 	adrp	x0, ffff000000090000 <pool_slots+0x6f0>
ffff000000087a50:	91194000 	add	x0, x0, #0x650
ffff000000087a54:	97fffcea 	bl	ffff000000086dfc <uart_write_str_raw>
ffff000000087a58:	b9805be0 	ldrsw	x0, [sp, #88]
ffff000000087a5c:	d37df000 	lsl	x0, x0, #3
ffff000000087a60:	f94023e1 	ldr	x1, [sp, #64]
ffff000000087a64:	8b000020 	add	x0, x1, x0
ffff000000087a68:	f9400000 	ldr	x0, [x0]
ffff000000087a6c:	97fffd13 	bl	ffff000000086eb8 <uart_write_hex_raw>
ffff000000087a70:	b0000040 	adrp	x0, ffff000000090000 <pool_slots+0x6f0>
ffff000000087a74:	9119c000 	add	x0, x0, #0x670
ffff000000087a78:	97fffce1 	bl	ffff000000086dfc <uart_write_str_raw>
ffff000000087a7c:	b94057e0 	ldr	w0, [sp, #84]
ffff000000087a80:	97fffcf6 	bl	ffff000000086e58 <uart_write_int_raw>
ffff000000087a84:	b0000040 	adrp	x0, ffff000000090000 <pool_slots+0x6f0>
ffff000000087a88:	91194000 	add	x0, x0, #0x650
ffff000000087a8c:	97fffcdc 	bl	ffff000000086dfc <uart_write_str_raw>
ffff000000087a90:	b98057e0 	ldrsw	x0, [sp, #84]
ffff000000087a94:	d37df000 	lsl	x0, x0, #3
ffff000000087a98:	f9401be1 	ldr	x1, [sp, #48]
ffff000000087a9c:	8b000020 	add	x0, x1, x0
ffff000000087aa0:	f9400000 	ldr	x0, [x0]
ffff000000087aa4:	97fffd05 	bl	ffff000000086eb8 <uart_write_hex_raw>
ffff000000087aa8:	b0000040 	adrp	x0, ffff000000090000 <pool_slots+0x6f0>
ffff000000087aac:	911a0000 	add	x0, x0, #0x680
ffff000000087ab0:	97fffcd3 	bl	ffff000000086dfc <uart_write_str_raw>
ffff000000087ab4:	b94053e0 	ldr	w0, [sp, #80]
ffff000000087ab8:	97fffce8 	bl	ffff000000086e58 <uart_write_int_raw>
ffff000000087abc:	b0000040 	adrp	x0, ffff000000090000 <pool_slots+0x6f0>
ffff000000087ac0:	91194000 	add	x0, x0, #0x650
ffff000000087ac4:	97fffcce 	bl	ffff000000086dfc <uart_write_str_raw>
ffff000000087ac8:	b98053e0 	ldrsw	x0, [sp, #80]
ffff000000087acc:	d37df000 	lsl	x0, x0, #3
ffff000000087ad0:	f94013e1 	ldr	x1, [sp, #32]
ffff000000087ad4:	8b000020 	add	x0, x1, x0
ffff000000087ad8:	f9400000 	ldr	x0, [x0]
ffff000000087adc:	97fffcf7 	bl	ffff000000086eb8 <uart_write_hex_raw>
ffff000000087ae0:	d503201f 	nop
ffff000000087ae4:	a8c67bfd 	ldp	x29, x30, [sp], #96
ffff000000087ae8:	d65f03c0 	ret

ffff000000087aec <set>:
ffff000000087aec:	d10083ff 	sub	sp, sp, #0x20
ffff000000087af0:	f90007e0 	str	x0, [sp, #8]
ffff000000087af4:	b90007e1 	str	w1, [sp, #4]
ffff000000087af8:	f94007e0 	ldr	x0, [sp, #8]
ffff000000087afc:	f9000fe0 	str	x0, [sp, #24]
ffff000000087b00:	f9400fe0 	ldr	x0, [sp, #24]
ffff000000087b04:	b94007e1 	ldr	w1, [sp, #4]
ffff000000087b08:	b9000001 	str	w1, [x0]
ffff000000087b0c:	d503201f 	nop
ffff000000087b10:	910083ff 	add	sp, sp, #0x20
ffff000000087b14:	d65f03c0 	ret

ffff000000087b18 <reset>:
ffff000000087b18:	a9be7bfd 	stp	x29, x30, [sp, #-32]!
ffff000000087b1c:	910003fd 	mov	x29, sp
ffff000000087b20:	b9001fe0 	str	w0, [sp, #28]
ffff000000087b24:	52800401 	mov	w1, #0x20                  	// #32
ffff000000087b28:	72ab4001 	movk	w1, #0x5a00, lsl #16
ffff000000087b2c:	d2800380 	mov	x0, #0x1c                  	// #28
ffff000000087b30:	f2a7e200 	movk	x0, #0x3f10, lsl #16
ffff000000087b34:	f2ffffe0 	movk	x0, #0xffff, lsl #48
ffff000000087b38:	97ffffed 	bl	ffff000000087aec <set>
ffff000000087b3c:	b9401fe1 	ldr	w1, [sp, #28]
ffff000000087b40:	52ab4000 	mov	w0, #0x5a000000            	// #1509949440
ffff000000087b44:	2a000020 	orr	w0, w1, w0
ffff000000087b48:	2a0003e1 	mov	w1, w0
ffff000000087b4c:	d2800480 	mov	x0, #0x24                  	// #36
ffff000000087b50:	f2a7e200 	movk	x0, #0x3f10, lsl #16
ffff000000087b54:	f2ffffe0 	movk	x0, #0xffff, lsl #48
ffff000000087b58:	97ffffe5 	bl	ffff000000087aec <set>
ffff000000087b5c:	d503201f 	nop
ffff000000087b60:	a8c27bfd 	ldp	x29, x30, [sp], #32
ffff000000087b64:	d65f03c0 	ret

ffff000000087b68 <startup_alloc_init>:
ffff000000087b68:	a9bd7bfd 	stp	x29, x30, [sp, #-48]!
ffff000000087b6c:	910003fd 	mov	x29, sp
ffff000000087b70:	f9000fe0 	str	x0, [sp, #24]
ffff000000087b74:	f9000be1 	str	x1, [sp, #16]
ffff000000087b78:	b0000040 	adrp	x0, ffff000000090000 <pool_slots+0x6f0>
ffff000000087b7c:	911b0000 	add	x0, x0, #0x6c0
ffff000000087b80:	97fffb4f 	bl	ffff0000000868bc <uart_write_str>
ffff000000087b84:	f0000040 	adrp	x0, ffff000000092000 <pool_slots+0xe38>
ffff000000087b88:	91234000 	add	x0, x0, #0x8d0
ffff000000087b8c:	f9400000 	ldr	x0, [x0]
ffff000000087b90:	b2503c01 	orr	x1, x0, #0xffff000000000000
ffff000000087b94:	90000060 	adrp	x0, ffff000000093000 <task_pool+0x6f8>
ffff000000087b98:	91128000 	add	x0, x0, #0x4a0
ffff000000087b9c:	f9000001 	str	x1, [x0]
ffff000000087ba0:	b0000040 	adrp	x0, ffff000000090000 <pool_slots+0x6f0>
ffff000000087ba4:	911bc000 	add	x0, x0, #0x6f0
ffff000000087ba8:	97fffb45 	bl	ffff0000000868bc <uart_write_str>
ffff000000087bac:	90000060 	adrp	x0, ffff000000093000 <task_pool+0x6f8>
ffff000000087bb0:	91128000 	add	x0, x0, #0x4a0
ffff000000087bb4:	f9400000 	ldr	x0, [x0]
ffff000000087bb8:	97fffcc0 	bl	ffff000000086eb8 <uart_write_hex_raw>
ffff000000087bbc:	f9400fe0 	ldr	x0, [sp, #24]
ffff000000087bc0:	b2503c01 	orr	x1, x0, #0xffff000000000000
ffff000000087bc4:	f9400be0 	ldr	x0, [sp, #16]
ffff000000087bc8:	8b000021 	add	x1, x1, x0
ffff000000087bcc:	90000060 	adrp	x0, ffff000000093000 <task_pool+0x6f8>
ffff000000087bd0:	9112a000 	add	x0, x0, #0x4a8
ffff000000087bd4:	f9000001 	str	x1, [x0]
ffff000000087bd8:	b0000040 	adrp	x0, ffff000000090000 <pool_slots+0x6f0>
ffff000000087bdc:	911c4000 	add	x0, x0, #0x710
ffff000000087be0:	97fffb37 	bl	ffff0000000868bc <uart_write_str>
ffff000000087be4:	90000060 	adrp	x0, ffff000000093000 <task_pool+0x6f8>
ffff000000087be8:	9112a000 	add	x0, x0, #0x4a8
ffff000000087bec:	f9400000 	ldr	x0, [x0]
ffff000000087bf0:	97fffcb2 	bl	ffff000000086eb8 <uart_write_hex_raw>
ffff000000087bf4:	f9400be0 	ldr	x0, [sp, #16]
ffff000000087bf8:	d34cfc00 	lsr	x0, x0, #12
ffff000000087bfc:	f90013e0 	str	x0, [sp, #32]
ffff000000087c00:	b9002fff 	str	wzr, [sp, #44]
ffff000000087c04:	14000004 	b	ffff000000087c14 <startup_alloc_init+0xac>
ffff000000087c08:	b9402fe0 	ldr	w0, [sp, #44]
ffff000000087c0c:	11000400 	add	w0, w0, #0x1
ffff000000087c10:	b9002fe0 	str	w0, [sp, #44]
ffff000000087c14:	b9402fe0 	ldr	w0, [sp, #44]
ffff000000087c18:	52800021 	mov	w1, #0x1                   	// #1
ffff000000087c1c:	1ac02020 	lsl	w0, w1, w0
ffff000000087c20:	93407c00 	sxtw	x0, w0
ffff000000087c24:	f94013e1 	ldr	x1, [sp, #32]
ffff000000087c28:	eb00003f 	cmp	x1, x0
ffff000000087c2c:	54fffee8 	b.hi	ffff000000087c08 <startup_alloc_init+0xa0>  // b.pmore
ffff000000087c30:	f9400fe0 	ldr	x0, [sp, #24]
ffff000000087c34:	b2503c01 	orr	x1, x0, #0xffff000000000000
ffff000000087c38:	90000060 	adrp	x0, ffff000000093000 <task_pool+0x6f8>
ffff000000087c3c:	9111a000 	add	x0, x0, #0x468
ffff000000087c40:	f9000001 	str	x1, [x0]
ffff000000087c44:	90000060 	adrp	x0, ffff000000093000 <task_pool+0x6f8>
ffff000000087c48:	91117000 	add	x0, x0, #0x45c
ffff000000087c4c:	b9402fe1 	ldr	w1, [sp, #44]
ffff000000087c50:	b9000001 	str	w1, [x0]
ffff000000087c54:	f94013e0 	ldr	x0, [sp, #32]
ffff000000087c58:	2a0003e1 	mov	w1, w0
ffff000000087c5c:	90000060 	adrp	x0, ffff000000093000 <task_pool+0x6f8>
ffff000000087c60:	91116000 	add	x0, x0, #0x458
ffff000000087c64:	b9000001 	str	w1, [x0]
ffff000000087c68:	90000060 	adrp	x0, ffff000000093000 <task_pool+0x6f8>
ffff000000087c6c:	91117000 	add	x0, x0, #0x45c
ffff000000087c70:	b9400000 	ldr	w0, [x0]
ffff000000087c74:	11000400 	add	w0, w0, #0x1
ffff000000087c78:	52800021 	mov	w1, #0x1                   	// #1
ffff000000087c7c:	1ac02020 	lsl	w0, w1, w0
ffff000000087c80:	51000401 	sub	w1, w0, #0x1
ffff000000087c84:	90000060 	adrp	x0, ffff000000093000 <task_pool+0x6f8>
ffff000000087c88:	91118000 	add	x0, x0, #0x460
ffff000000087c8c:	b9000001 	str	w1, [x0]
ffff000000087c90:	90000060 	adrp	x0, ffff000000093000 <task_pool+0x6f8>
ffff000000087c94:	91118000 	add	x0, x0, #0x460
ffff000000087c98:	b9400000 	ldr	w0, [x0]
ffff000000087c9c:	93407c00 	sxtw	x0, w0
ffff000000087ca0:	d37ef400 	lsl	x0, x0, #2
ffff000000087ca4:	d2800101 	mov	x1, #0x8                   	// #8
ffff000000087ca8:	94000084 	bl	ffff000000087eb8 <startup_alloc>
ffff000000087cac:	aa0003e1 	mov	x1, x0
ffff000000087cb0:	90000060 	adrp	x0, ffff000000093000 <task_pool+0x6f8>
ffff000000087cb4:	9111c000 	add	x0, x0, #0x470
ffff000000087cb8:	f9000001 	str	x1, [x0]
ffff000000087cbc:	90000060 	adrp	x0, ffff000000093000 <task_pool+0x6f8>
ffff000000087cc0:	91116000 	add	x0, x0, #0x458
ffff000000087cc4:	b9400000 	ldr	w0, [x0]
ffff000000087cc8:	93407c00 	sxtw	x0, w0
ffff000000087ccc:	d37ef400 	lsl	x0, x0, #2
ffff000000087cd0:	d2800101 	mov	x1, #0x8                   	// #8
ffff000000087cd4:	94000079 	bl	ffff000000087eb8 <startup_alloc>
ffff000000087cd8:	aa0003e1 	mov	x1, x0
ffff000000087cdc:	90000060 	adrp	x0, ffff000000093000 <task_pool+0x6f8>
ffff000000087ce0:	9111e000 	add	x0, x0, #0x478
ffff000000087ce4:	f9000001 	str	x1, [x0]
ffff000000087ce8:	d2800101 	mov	x1, #0x8                   	// #8
ffff000000087cec:	d2800a00 	mov	x0, #0x50                  	// #80
ffff000000087cf0:	94000072 	bl	ffff000000087eb8 <startup_alloc>
ffff000000087cf4:	aa0003e1 	mov	x1, x0
ffff000000087cf8:	90000060 	adrp	x0, ffff000000093000 <task_pool+0x6f8>
ffff000000087cfc:	91120000 	add	x0, x0, #0x480
ffff000000087d00:	f9000001 	str	x1, [x0]
ffff000000087d04:	d2800101 	mov	x1, #0x8                   	// #8
ffff000000087d08:	d2803c00 	mov	x0, #0x1e0                 	// #480
ffff000000087d0c:	9400006b 	bl	ffff000000087eb8 <startup_alloc>
ffff000000087d10:	aa0003e1 	mov	x1, x0
ffff000000087d14:	90000060 	adrp	x0, ffff000000093000 <task_pool+0x6f8>
ffff000000087d18:	91122000 	add	x0, x0, #0x488
ffff000000087d1c:	f9000001 	str	x1, [x0]
ffff000000087d20:	d2800101 	mov	x1, #0x8                   	// #8
ffff000000087d24:	d2800780 	mov	x0, #0x3c                  	// #60
ffff000000087d28:	94000064 	bl	ffff000000087eb8 <startup_alloc>
ffff000000087d2c:	aa0003e1 	mov	x1, x0
ffff000000087d30:	90000060 	adrp	x0, ffff000000093000 <task_pool+0x6f8>
ffff000000087d34:	91124000 	add	x0, x0, #0x490
ffff000000087d38:	f9000001 	str	x1, [x0]
ffff000000087d3c:	d2800101 	mov	x1, #0x8                   	// #8
ffff000000087d40:	d2803c00 	mov	x0, #0x1e0                 	// #480
ffff000000087d44:	9400005d 	bl	ffff000000087eb8 <startup_alloc>
ffff000000087d48:	aa0003e1 	mov	x1, x0
ffff000000087d4c:	90000060 	adrp	x0, ffff000000093000 <task_pool+0x6f8>
ffff000000087d50:	91126000 	add	x0, x0, #0x498
ffff000000087d54:	f9000001 	str	x1, [x0]
ffff000000087d58:	97ffe4a4 	bl	ffff000000080fe8 <buddy_init>
ffff000000087d5c:	b250b7e1 	mov	x1, #0xffff00003fffffff    	// #-281473902968833
ffff000000087d60:	d2a78000 	mov	x0, #0x3c000000            	// #1006632960
ffff000000087d64:	f2ffffe0 	movk	x0, #0xffff, lsl #48
ffff000000087d68:	97ffe491 	bl	ffff000000080fac <reserve_memory>
ffff000000087d6c:	b2506fe1 	mov	x1, #0xffff000000000fff    	// #-281474976706561
ffff000000087d70:	d2ffffe0 	mov	x0, #0xffff000000000000    	// #-281474976710656
ffff000000087d74:	97ffe48e 	bl	ffff000000080fac <reserve_memory>
ffff000000087d78:	b25073e1 	mov	x1, #0xffff000000001fff    	// #-281474976702465
ffff000000087d7c:	d2820000 	mov	x0, #0x1000                	// #4096
ffff000000087d80:	f2ffffe0 	movk	x0, #0xffff, lsl #48
ffff000000087d84:	97ffe48a 	bl	ffff000000080fac <reserve_memory>
ffff000000087d88:	d285ffe1 	mov	x1, #0x2fff                	// #12287
ffff000000087d8c:	f2ffffe1 	movk	x1, #0xffff, lsl #48
ffff000000087d90:	d2840000 	mov	x0, #0x2000                	// #8192
ffff000000087d94:	f2ffffe0 	movk	x0, #0xffff, lsl #48
ffff000000087d98:	97ffe485 	bl	ffff000000080fac <reserve_memory>
ffff000000087d9c:	b25077e1 	mov	x1, #0xffff000000003fff    	// #-281474976694273
ffff000000087da0:	d2860000 	mov	x0, #0x3000                	// #12288
ffff000000087da4:	f2ffffe0 	movk	x0, #0xffff, lsl #48
ffff000000087da8:	97ffe481 	bl	ffff000000080fac <reserve_memory>
ffff000000087dac:	d289ffe1 	mov	x1, #0x4fff                	// #20479
ffff000000087db0:	f2ffffe1 	movk	x1, #0xffff, lsl #48
ffff000000087db4:	d2880000 	mov	x0, #0x4000                	// #16384
ffff000000087db8:	f2ffffe0 	movk	x0, #0xffff, lsl #48
ffff000000087dbc:	97ffe47c 	bl	ffff000000080fac <reserve_memory>
ffff000000087dc0:	d28bffe1 	mov	x1, #0x5fff                	// #24575
ffff000000087dc4:	f2ffffe1 	movk	x1, #0xffff, lsl #48
ffff000000087dc8:	d28a0000 	mov	x0, #0x5000                	// #20480
ffff000000087dcc:	f2ffffe0 	movk	x0, #0xffff, lsl #48
ffff000000087dd0:	97ffe477 	bl	ffff000000080fac <reserve_memory>
ffff000000087dd4:	d28dffe1 	mov	x1, #0x6fff                	// #28671
ffff000000087dd8:	f2ffffe1 	movk	x1, #0xffff, lsl #48
ffff000000087ddc:	d28c0000 	mov	x0, #0x6000                	// #24576
ffff000000087de0:	f2ffffe0 	movk	x0, #0xffff, lsl #48
ffff000000087de4:	97ffe472 	bl	ffff000000080fac <reserve_memory>
ffff000000087de8:	94000060 	bl	ffff000000087f68 <get_startup_current_ptr>
ffff000000087dec:	aa0003e1 	mov	x1, x0
ffff000000087df0:	b2404fe0 	mov	x0, #0xfffff               	// #1048575
ffff000000087df4:	8b000020 	add	x0, x1, x0
ffff000000087df8:	b2503c00 	orr	x0, x0, #0xffff000000000000
ffff000000087dfc:	aa0003e1 	mov	x1, x0
ffff000000087e00:	d2920000 	mov	x0, #0x9000                	// #36864
ffff000000087e04:	f2a000a0 	movk	x0, #0x5, lsl #16
ffff000000087e08:	f2ffffe0 	movk	x0, #0xffff, lsl #48
ffff000000087e0c:	97ffe468 	bl	ffff000000080fac <reserve_memory>
ffff000000087e10:	f0000040 	adrp	x0, ffff000000092000 <pool_slots+0xe38>
ffff000000087e14:	f9440000 	ldr	x0, [x0, #2048]
ffff000000087e18:	f9400002 	ldr	x2, [x0]
ffff000000087e1c:	f0000040 	adrp	x0, ffff000000092000 <pool_slots+0xe38>
ffff000000087e20:	f943d800 	ldr	x0, [x0, #1968]
ffff000000087e24:	f9400000 	ldr	x0, [x0]
ffff000000087e28:	aa0003e1 	mov	x1, x0
ffff000000087e2c:	aa0203e0 	mov	x0, x2
ffff000000087e30:	97ffe45f 	bl	ffff000000080fac <reserve_memory>
ffff000000087e34:	f0000040 	adrp	x0, ffff000000092000 <pool_slots+0xe38>
ffff000000087e38:	f943c400 	ldr	x0, [x0, #1928]
ffff000000087e3c:	f9400002 	ldr	x2, [x0]
ffff000000087e40:	f0000040 	adrp	x0, ffff000000092000 <pool_slots+0xe38>
ffff000000087e44:	f943f400 	ldr	x0, [x0, #2024]
ffff000000087e48:	f9400000 	ldr	x0, [x0]
ffff000000087e4c:	aa0003e1 	mov	x1, x0
ffff000000087e50:	aa0203e0 	mov	x0, x2
ffff000000087e54:	97ffe456 	bl	ffff000000080fac <reserve_memory>
ffff000000087e58:	b0000040 	adrp	x0, ffff000000090000 <pool_slots+0x6f0>
ffff000000087e5c:	911cc000 	add	x0, x0, #0x730
ffff000000087e60:	97fffa97 	bl	ffff0000000868bc <uart_write_str>
ffff000000087e64:	f0000040 	adrp	x0, ffff000000092000 <pool_slots+0xe38>
ffff000000087e68:	91234000 	add	x0, x0, #0x8d0
ffff000000087e6c:	f9400000 	ldr	x0, [x0]
ffff000000087e70:	97fffbad 	bl	ffff000000086d24 <uart_write_hex>
ffff000000087e74:	b0000040 	adrp	x0, ffff000000090000 <pool_slots+0x6f0>
ffff000000087e78:	911d8000 	add	x0, x0, #0x760
ffff000000087e7c:	97fffa90 	bl	ffff0000000868bc <uart_write_str>
ffff000000087e80:	9400003a 	bl	ffff000000087f68 <get_startup_current_ptr>
ffff000000087e84:	97fffba8 	bl	ffff000000086d24 <uart_write_hex>
ffff000000087e88:	b0000040 	adrp	x0, ffff000000090000 <pool_slots+0x6f0>
ffff000000087e8c:	911e4000 	add	x0, x0, #0x790
ffff000000087e90:	97fffa8b 	bl	ffff0000000868bc <uart_write_str>
ffff000000087e94:	94000035 	bl	ffff000000087f68 <get_startup_current_ptr>
ffff000000087e98:	aa0003e1 	mov	x1, x0
ffff000000087e9c:	b2404fe0 	mov	x0, #0xfffff               	// #1048575
ffff000000087ea0:	8b000020 	add	x0, x1, x0
ffff000000087ea4:	97fffba0 	bl	ffff000000086d24 <uart_write_hex>
ffff000000087ea8:	97ffe9b0 	bl	ffff000000082568 <chunk_init>
ffff000000087eac:	d503201f 	nop
ffff000000087eb0:	a8c37bfd 	ldp	x29, x30, [sp], #48
ffff000000087eb4:	d65f03c0 	ret

ffff000000087eb8 <startup_alloc>:
ffff000000087eb8:	a9bd7bfd 	stp	x29, x30, [sp, #-48]!
ffff000000087ebc:	910003fd 	mov	x29, sp
ffff000000087ec0:	f9000fe0 	str	x0, [sp, #24]
ffff000000087ec4:	f9000be1 	str	x1, [sp, #16]
ffff000000087ec8:	f9400fe0 	ldr	x0, [sp, #24]
ffff000000087ecc:	f100001f 	cmp	x0, #0x0
ffff000000087ed0:	540000c1 	b.ne	ffff000000087ee8 <startup_alloc+0x30>  // b.any
ffff000000087ed4:	b0000040 	adrp	x0, ffff000000090000 <pool_slots+0x6f0>
ffff000000087ed8:	911f0000 	add	x0, x0, #0x7c0
ffff000000087edc:	97fffa78 	bl	ffff0000000868bc <uart_write_str>
ffff000000087ee0:	d2800000 	mov	x0, #0x0                   	// #0
ffff000000087ee4:	1400001f 	b	ffff000000087f60 <startup_alloc+0xa8>
ffff000000087ee8:	90000060 	adrp	x0, ffff000000093000 <task_pool+0x6f8>
ffff000000087eec:	91128000 	add	x0, x0, #0x4a0
ffff000000087ef0:	f9400001 	ldr	x1, [x0]
ffff000000087ef4:	f9400be0 	ldr	x0, [sp, #16]
ffff000000087ef8:	8b000020 	add	x0, x1, x0
ffff000000087efc:	d1000401 	sub	x1, x0, #0x1
ffff000000087f00:	f9400be0 	ldr	x0, [sp, #16]
ffff000000087f04:	cb0003e0 	neg	x0, x0
ffff000000087f08:	8a000020 	and	x0, x1, x0
ffff000000087f0c:	f90017e0 	str	x0, [sp, #40]
ffff000000087f10:	f94017e1 	ldr	x1, [sp, #40]
ffff000000087f14:	f9400fe0 	ldr	x0, [sp, #24]
ffff000000087f18:	8b000021 	add	x1, x1, x0
ffff000000087f1c:	90000060 	adrp	x0, ffff000000093000 <task_pool+0x6f8>
ffff000000087f20:	9112a000 	add	x0, x0, #0x4a8
ffff000000087f24:	f9400000 	ldr	x0, [x0]
ffff000000087f28:	eb00003f 	cmp	x1, x0
ffff000000087f2c:	540000c9 	b.ls	ffff000000087f44 <startup_alloc+0x8c>  // b.plast
ffff000000087f30:	b0000040 	adrp	x0, ffff000000090000 <pool_slots+0x6f0>
ffff000000087f34:	91200000 	add	x0, x0, #0x800
ffff000000087f38:	97fffa61 	bl	ffff0000000868bc <uart_write_str>
ffff000000087f3c:	d2800000 	mov	x0, #0x0                   	// #0
ffff000000087f40:	14000008 	b	ffff000000087f60 <startup_alloc+0xa8>
ffff000000087f44:	f94017e1 	ldr	x1, [sp, #40]
ffff000000087f48:	f9400fe0 	ldr	x0, [sp, #24]
ffff000000087f4c:	8b000021 	add	x1, x1, x0
ffff000000087f50:	90000060 	adrp	x0, ffff000000093000 <task_pool+0x6f8>
ffff000000087f54:	91128000 	add	x0, x0, #0x4a0
ffff000000087f58:	f9000001 	str	x1, [x0]
ffff000000087f5c:	f94017e0 	ldr	x0, [sp, #40]
ffff000000087f60:	a8c37bfd 	ldp	x29, x30, [sp], #48
ffff000000087f64:	d65f03c0 	ret

ffff000000087f68 <get_startup_current_ptr>:
ffff000000087f68:	90000060 	adrp	x0, ffff000000093000 <task_pool+0x6f8>
ffff000000087f6c:	91128000 	add	x0, x0, #0x4a0
ffff000000087f70:	f9400000 	ldr	x0, [x0]
ffff000000087f74:	d65f03c0 	ret

ffff000000087f78 <copy_from_user>:
ffff000000087f78:	a9ba7bfd 	stp	x29, x30, [sp, #-96]!
ffff000000087f7c:	910003fd 	mov	x29, sp
ffff000000087f80:	f90017e0 	str	x0, [sp, #40]
ffff000000087f84:	f90013e1 	str	x1, [sp, #32]
ffff000000087f88:	f9000fe2 	str	x2, [sp, #24]
ffff000000087f8c:	9400172e 	bl	ffff00000008dc44 <get_current>
ffff000000087f90:	f9002be0 	str	x0, [sp, #80]
ffff000000087f94:	f9402be0 	ldr	x0, [sp, #80]
ffff000000087f98:	f940f800 	ldr	x0, [x0, #496]
ffff000000087f9c:	9240bc00 	and	x0, x0, #0xffffffffffff
ffff000000087fa0:	f90027e0 	str	x0, [sp, #72]
ffff000000087fa4:	f94027e0 	ldr	x0, [sp, #72]
ffff000000087fa8:	97fffce9 	bl	ffff00000008734c <switch_user_address_space>
ffff000000087fac:	f94013e0 	ldr	x0, [sp, #32]
ffff000000087fb0:	f90023e0 	str	x0, [sp, #64]
ffff000000087fb4:	f94017e0 	ldr	x0, [sp, #40]
ffff000000087fb8:	f9001fe0 	str	x0, [sp, #56]
ffff000000087fbc:	f9002fff 	str	xzr, [sp, #88]
ffff000000087fc0:	1400000c 	b	ffff000000087ff0 <copy_from_user+0x78>
ffff000000087fc4:	f94023e1 	ldr	x1, [sp, #64]
ffff000000087fc8:	f9402fe0 	ldr	x0, [sp, #88]
ffff000000087fcc:	8b000021 	add	x1, x1, x0
ffff000000087fd0:	f9401fe2 	ldr	x2, [sp, #56]
ffff000000087fd4:	f9402fe0 	ldr	x0, [sp, #88]
ffff000000087fd8:	8b000040 	add	x0, x2, x0
ffff000000087fdc:	39400021 	ldrb	w1, [x1]
ffff000000087fe0:	39000001 	strb	w1, [x0]
ffff000000087fe4:	f9402fe0 	ldr	x0, [sp, #88]
ffff000000087fe8:	91000400 	add	x0, x0, #0x1
ffff000000087fec:	f9002fe0 	str	x0, [sp, #88]
ffff000000087ff0:	f9402fe1 	ldr	x1, [sp, #88]
ffff000000087ff4:	f9400fe0 	ldr	x0, [sp, #24]
ffff000000087ff8:	eb00003f 	cmp	x1, x0
ffff000000087ffc:	54fffe43 	b.cc	ffff000000087fc4 <copy_from_user+0x4c>  // b.lo, b.ul, b.last
ffff000000088000:	97fffcde 	bl	ffff000000087378 <restore_kernel_address_space>
ffff000000088004:	d503201f 	nop
ffff000000088008:	a8c67bfd 	ldp	x29, x30, [sp], #96
ffff00000008800c:	d65f03c0 	ret

ffff000000088010 <copy_to_user>:
ffff000000088010:	a9ba7bfd 	stp	x29, x30, [sp, #-96]!
ffff000000088014:	910003fd 	mov	x29, sp
ffff000000088018:	f90017e0 	str	x0, [sp, #40]
ffff00000008801c:	f90013e1 	str	x1, [sp, #32]
ffff000000088020:	f9000fe2 	str	x2, [sp, #24]
ffff000000088024:	94001708 	bl	ffff00000008dc44 <get_current>
ffff000000088028:	f9002be0 	str	x0, [sp, #80]
ffff00000008802c:	f9402be0 	ldr	x0, [sp, #80]
ffff000000088030:	f940f800 	ldr	x0, [x0, #496]
ffff000000088034:	9240bc00 	and	x0, x0, #0xffffffffffff
ffff000000088038:	f90027e0 	str	x0, [sp, #72]
ffff00000008803c:	f94027e0 	ldr	x0, [sp, #72]
ffff000000088040:	97fffcc3 	bl	ffff00000008734c <switch_user_address_space>
ffff000000088044:	f94017e0 	ldr	x0, [sp, #40]
ffff000000088048:	f90023e0 	str	x0, [sp, #64]
ffff00000008804c:	f94013e0 	ldr	x0, [sp, #32]
ffff000000088050:	f9001fe0 	str	x0, [sp, #56]
ffff000000088054:	f9002fff 	str	xzr, [sp, #88]
ffff000000088058:	1400000c 	b	ffff000000088088 <copy_to_user+0x78>
ffff00000008805c:	f9401fe1 	ldr	x1, [sp, #56]
ffff000000088060:	f9402fe0 	ldr	x0, [sp, #88]
ffff000000088064:	8b000021 	add	x1, x1, x0
ffff000000088068:	f94023e2 	ldr	x2, [sp, #64]
ffff00000008806c:	f9402fe0 	ldr	x0, [sp, #88]
ffff000000088070:	8b000040 	add	x0, x2, x0
ffff000000088074:	39400021 	ldrb	w1, [x1]
ffff000000088078:	39000001 	strb	w1, [x0]
ffff00000008807c:	f9402fe0 	ldr	x0, [sp, #88]
ffff000000088080:	91000400 	add	x0, x0, #0x1
ffff000000088084:	f9002fe0 	str	x0, [sp, #88]
ffff000000088088:	f9402fe1 	ldr	x1, [sp, #88]
ffff00000008808c:	f9400fe0 	ldr	x0, [sp, #24]
ffff000000088090:	eb00003f 	cmp	x1, x0
ffff000000088094:	54fffe43 	b.cc	ffff00000008805c <copy_to_user+0x4c>  // b.lo, b.ul, b.last
ffff000000088098:	97fffcb8 	bl	ffff000000087378 <restore_kernel_address_space>
ffff00000008809c:	d503201f 	nop
ffff0000000880a0:	a8c67bfd 	ldp	x29, x30, [sp], #96
ffff0000000880a4:	d65f03c0 	ret

ffff0000000880a8 <syscall_handler>:
ffff0000000880a8:	a9ab7bfd 	stp	x29, x30, [sp, #-336]!
ffff0000000880ac:	910003fd 	mov	x29, sp
ffff0000000880b0:	f9000bf3 	str	x19, [sp, #16]
ffff0000000880b4:	f90017e0 	str	x0, [sp, #40]
ffff0000000880b8:	940016e3 	bl	ffff00000008dc44 <get_current>
ffff0000000880bc:	f900a3e0 	str	x0, [sp, #320]
ffff0000000880c0:	f94017e0 	ldr	x0, [sp, #40]
ffff0000000880c4:	f9408801 	ldr	x1, [x0, #272]
ffff0000000880c8:	f940a3e0 	ldr	x0, [sp, #320]
ffff0000000880cc:	f9001401 	str	x1, [x0, #40]
ffff0000000880d0:	f94017e0 	ldr	x0, [sp, #40]
ffff0000000880d4:	91010000 	add	x0, x0, #0x40
ffff0000000880d8:	f9400000 	ldr	x0, [x0]
ffff0000000880dc:	f9009fe0 	str	x0, [sp, #312]
ffff0000000880e0:	f9409fe0 	ldr	x0, [sp, #312]
ffff0000000880e4:	f100041f 	cmp	x0, #0x1
ffff0000000880e8:	54000f80 	b.eq	ffff0000000882d8 <syscall_handler+0x230>  // b.none
ffff0000000880ec:	f9409fe0 	ldr	x0, [sp, #312]
ffff0000000880f0:	f100081f 	cmp	x0, #0x2
ffff0000000880f4:	54000f20 	b.eq	ffff0000000882d8 <syscall_handler+0x230>  // b.none
ffff0000000880f8:	90000040 	adrp	x0, ffff000000090000 <pool_slots+0x6f0>
ffff0000000880fc:	91216000 	add	x0, x0, #0x858
ffff000000088100:	97fffb3f 	bl	ffff000000086dfc <uart_write_str_raw>
ffff000000088104:	f9409fe0 	ldr	x0, [sp, #312]
ffff000000088108:	97fffb54 	bl	ffff000000086e58 <uart_write_int_raw>
ffff00000008810c:	f9409fe0 	ldr	x0, [sp, #312]
ffff000000088110:	f100281f 	cmp	x0, #0xa
ffff000000088114:	54000c60 	b.eq	ffff0000000882a0 <syscall_handler+0x1f8>  // b.none
ffff000000088118:	f9409fe0 	ldr	x0, [sp, #312]
ffff00000008811c:	f100281f 	cmp	x0, #0xa
ffff000000088120:	54000c88 	b.hi	ffff0000000882b0 <syscall_handler+0x208>  // b.pmore
ffff000000088124:	f9409fe0 	ldr	x0, [sp, #312]
ffff000000088128:	f100241f 	cmp	x0, #0x9
ffff00000008812c:	54000b20 	b.eq	ffff000000088290 <syscall_handler+0x1e8>  // b.none
ffff000000088130:	f9409fe0 	ldr	x0, [sp, #312]
ffff000000088134:	f100241f 	cmp	x0, #0x9
ffff000000088138:	54000bc8 	b.hi	ffff0000000882b0 <syscall_handler+0x208>  // b.pmore
ffff00000008813c:	f9409fe0 	ldr	x0, [sp, #312]
ffff000000088140:	f100201f 	cmp	x0, #0x8
ffff000000088144:	540009e0 	b.eq	ffff000000088280 <syscall_handler+0x1d8>  // b.none
ffff000000088148:	f9409fe0 	ldr	x0, [sp, #312]
ffff00000008814c:	f100201f 	cmp	x0, #0x8
ffff000000088150:	54000b08 	b.hi	ffff0000000882b0 <syscall_handler+0x208>  // b.pmore
ffff000000088154:	f9409fe0 	ldr	x0, [sp, #312]
ffff000000088158:	f1001c1f 	cmp	x0, #0x7
ffff00000008815c:	540008a0 	b.eq	ffff000000088270 <syscall_handler+0x1c8>  // b.none
ffff000000088160:	f9409fe0 	ldr	x0, [sp, #312]
ffff000000088164:	f1001c1f 	cmp	x0, #0x7
ffff000000088168:	54000a48 	b.hi	ffff0000000882b0 <syscall_handler+0x208>  // b.pmore
ffff00000008816c:	f9409fe0 	ldr	x0, [sp, #312]
ffff000000088170:	f100181f 	cmp	x0, #0x6
ffff000000088174:	54000760 	b.eq	ffff000000088260 <syscall_handler+0x1b8>  // b.none
ffff000000088178:	f9409fe0 	ldr	x0, [sp, #312]
ffff00000008817c:	f100181f 	cmp	x0, #0x6
ffff000000088180:	54000988 	b.hi	ffff0000000882b0 <syscall_handler+0x208>  // b.pmore
ffff000000088184:	f9409fe0 	ldr	x0, [sp, #312]
ffff000000088188:	f100141f 	cmp	x0, #0x5
ffff00000008818c:	54000620 	b.eq	ffff000000088250 <syscall_handler+0x1a8>  // b.none
ffff000000088190:	f9409fe0 	ldr	x0, [sp, #312]
ffff000000088194:	f100141f 	cmp	x0, #0x5
ffff000000088198:	540008c8 	b.hi	ffff0000000882b0 <syscall_handler+0x208>  // b.pmore
ffff00000008819c:	f9409fe0 	ldr	x0, [sp, #312]
ffff0000000881a0:	f100101f 	cmp	x0, #0x4
ffff0000000881a4:	540004e0 	b.eq	ffff000000088240 <syscall_handler+0x198>  // b.none
ffff0000000881a8:	f9409fe0 	ldr	x0, [sp, #312]
ffff0000000881ac:	f100101f 	cmp	x0, #0x4
ffff0000000881b0:	54000808 	b.hi	ffff0000000882b0 <syscall_handler+0x208>  // b.pmore
ffff0000000881b4:	f9409fe0 	ldr	x0, [sp, #312]
ffff0000000881b8:	f1000c1f 	cmp	x0, #0x3
ffff0000000881bc:	540003a0 	b.eq	ffff000000088230 <syscall_handler+0x188>  // b.none
ffff0000000881c0:	f9409fe0 	ldr	x0, [sp, #312]
ffff0000000881c4:	f1000c1f 	cmp	x0, #0x3
ffff0000000881c8:	54000748 	b.hi	ffff0000000882b0 <syscall_handler+0x208>  // b.pmore
ffff0000000881cc:	f9409fe0 	ldr	x0, [sp, #312]
ffff0000000881d0:	f100081f 	cmp	x0, #0x2
ffff0000000881d4:	54000260 	b.eq	ffff000000088220 <syscall_handler+0x178>  // b.none
ffff0000000881d8:	f9409fe0 	ldr	x0, [sp, #312]
ffff0000000881dc:	f100081f 	cmp	x0, #0x2
ffff0000000881e0:	54000688 	b.hi	ffff0000000882b0 <syscall_handler+0x208>  // b.pmore
ffff0000000881e4:	f9409fe0 	ldr	x0, [sp, #312]
ffff0000000881e8:	f100001f 	cmp	x0, #0x0
ffff0000000881ec:	540000a0 	b.eq	ffff000000088200 <syscall_handler+0x158>  // b.none
ffff0000000881f0:	f9409fe0 	ldr	x0, [sp, #312]
ffff0000000881f4:	f100041f 	cmp	x0, #0x1
ffff0000000881f8:	540000c0 	b.eq	ffff000000088210 <syscall_handler+0x168>  // b.none
ffff0000000881fc:	1400002d 	b	ffff0000000882b0 <syscall_handler+0x208>
ffff000000088200:	90000040 	adrp	x0, ffff000000090000 <pool_slots+0x6f0>
ffff000000088204:	9121e000 	add	x0, x0, #0x878
ffff000000088208:	97fffafd 	bl	ffff000000086dfc <uart_write_str_raw>
ffff00000008820c:	1400002d 	b	ffff0000000882c0 <syscall_handler+0x218>
ffff000000088210:	90000040 	adrp	x0, ffff000000090000 <pool_slots+0x6f0>
ffff000000088214:	91222000 	add	x0, x0, #0x888
ffff000000088218:	97fffaf9 	bl	ffff000000086dfc <uart_write_str_raw>
ffff00000008821c:	14000029 	b	ffff0000000882c0 <syscall_handler+0x218>
ffff000000088220:	90000040 	adrp	x0, ffff000000090000 <pool_slots+0x6f0>
ffff000000088224:	91228000 	add	x0, x0, #0x8a0
ffff000000088228:	97fffaf5 	bl	ffff000000086dfc <uart_write_str_raw>
ffff00000008822c:	14000025 	b	ffff0000000882c0 <syscall_handler+0x218>
ffff000000088230:	90000040 	adrp	x0, ffff000000090000 <pool_slots+0x6f0>
ffff000000088234:	9122e000 	add	x0, x0, #0x8b8
ffff000000088238:	97fffaf1 	bl	ffff000000086dfc <uart_write_str_raw>
ffff00000008823c:	14000021 	b	ffff0000000882c0 <syscall_handler+0x218>
ffff000000088240:	90000040 	adrp	x0, ffff000000090000 <pool_slots+0x6f0>
ffff000000088244:	91232000 	add	x0, x0, #0x8c8
ffff000000088248:	97fffaed 	bl	ffff000000086dfc <uart_write_str_raw>
ffff00000008824c:	1400001d 	b	ffff0000000882c0 <syscall_handler+0x218>
ffff000000088250:	90000040 	adrp	x0, ffff000000090000 <pool_slots+0x6f0>
ffff000000088254:	91236000 	add	x0, x0, #0x8d8
ffff000000088258:	97fffae9 	bl	ffff000000086dfc <uart_write_str_raw>
ffff00000008825c:	14000019 	b	ffff0000000882c0 <syscall_handler+0x218>
ffff000000088260:	90000040 	adrp	x0, ffff000000090000 <pool_slots+0x6f0>
ffff000000088264:	9123a000 	add	x0, x0, #0x8e8
ffff000000088268:	97fffae5 	bl	ffff000000086dfc <uart_write_str_raw>
ffff00000008826c:	14000015 	b	ffff0000000882c0 <syscall_handler+0x218>
ffff000000088270:	90000040 	adrp	x0, ffff000000090000 <pool_slots+0x6f0>
ffff000000088274:	91240000 	add	x0, x0, #0x900
ffff000000088278:	97fffae1 	bl	ffff000000086dfc <uart_write_str_raw>
ffff00000008827c:	14000011 	b	ffff0000000882c0 <syscall_handler+0x218>
ffff000000088280:	90000040 	adrp	x0, ffff000000090000 <pool_slots+0x6f0>
ffff000000088284:	91244000 	add	x0, x0, #0x910
ffff000000088288:	97fffadd 	bl	ffff000000086dfc <uart_write_str_raw>
ffff00000008828c:	1400000d 	b	ffff0000000882c0 <syscall_handler+0x218>
ffff000000088290:	90000040 	adrp	x0, ffff000000090000 <pool_slots+0x6f0>
ffff000000088294:	91248000 	add	x0, x0, #0x920
ffff000000088298:	97fffad9 	bl	ffff000000086dfc <uart_write_str_raw>
ffff00000008829c:	14000009 	b	ffff0000000882c0 <syscall_handler+0x218>
ffff0000000882a0:	90000040 	adrp	x0, ffff000000090000 <pool_slots+0x6f0>
ffff0000000882a4:	9124e000 	add	x0, x0, #0x938
ffff0000000882a8:	97fffad5 	bl	ffff000000086dfc <uart_write_str_raw>
ffff0000000882ac:	14000005 	b	ffff0000000882c0 <syscall_handler+0x218>
ffff0000000882b0:	90000040 	adrp	x0, ffff000000090000 <pool_slots+0x6f0>
ffff0000000882b4:	91254000 	add	x0, x0, #0x950
ffff0000000882b8:	97fffad1 	bl	ffff000000086dfc <uart_write_str_raw>
ffff0000000882bc:	d503201f 	nop
ffff0000000882c0:	90000040 	adrp	x0, ffff000000090000 <pool_slots+0x6f0>
ffff0000000882c4:	91258000 	add	x0, x0, #0x960
ffff0000000882c8:	97fffacd 	bl	ffff000000086dfc <uart_write_str_raw>
ffff0000000882cc:	f940a3e0 	ldr	x0, [sp, #320]
ffff0000000882d0:	b9400800 	ldr	w0, [x0, #8]
ffff0000000882d4:	97fffae1 	bl	ffff000000086e58 <uart_write_int_raw>
ffff0000000882d8:	f9409fe0 	ldr	x0, [sp, #312]
ffff0000000882dc:	f100281f 	cmp	x0, #0xa
ffff0000000882e0:	54001b00 	b.eq	ffff000000088640 <syscall_handler+0x598>  // b.none
ffff0000000882e4:	f9409fe0 	ldr	x0, [sp, #312]
ffff0000000882e8:	f100281f 	cmp	x0, #0xa
ffff0000000882ec:	54002028 	b.hi	ffff0000000886f0 <syscall_handler+0x648>  // b.pmore
ffff0000000882f0:	f9409fe0 	ldr	x0, [sp, #312]
ffff0000000882f4:	f100241f 	cmp	x0, #0x9
ffff0000000882f8:	54001720 	b.eq	ffff0000000885dc <syscall_handler+0x534>  // b.none
ffff0000000882fc:	f9409fe0 	ldr	x0, [sp, #312]
ffff000000088300:	f100241f 	cmp	x0, #0x9
ffff000000088304:	54001f68 	b.hi	ffff0000000886f0 <syscall_handler+0x648>  // b.pmore
ffff000000088308:	f9409fe0 	ldr	x0, [sp, #312]
ffff00000008830c:	f100201f 	cmp	x0, #0x8
ffff000000088310:	54001380 	b.eq	ffff000000088580 <syscall_handler+0x4d8>  // b.none
ffff000000088314:	f9409fe0 	ldr	x0, [sp, #312]
ffff000000088318:	f100201f 	cmp	x0, #0x8
ffff00000008831c:	54001ea8 	b.hi	ffff0000000886f0 <syscall_handler+0x648>  // b.pmore
ffff000000088320:	f9409fe0 	ldr	x0, [sp, #312]
ffff000000088324:	f1001c1f 	cmp	x0, #0x7
ffff000000088328:	54001180 	b.eq	ffff000000088558 <syscall_handler+0x4b0>  // b.none
ffff00000008832c:	f9409fe0 	ldr	x0, [sp, #312]
ffff000000088330:	f1001c1f 	cmp	x0, #0x7
ffff000000088334:	54001de8 	b.hi	ffff0000000886f0 <syscall_handler+0x648>  // b.pmore
ffff000000088338:	f9409fe0 	ldr	x0, [sp, #312]
ffff00000008833c:	f100181f 	cmp	x0, #0x6
ffff000000088340:	54000d80 	b.eq	ffff0000000884f0 <syscall_handler+0x448>  // b.none
ffff000000088344:	f9409fe0 	ldr	x0, [sp, #312]
ffff000000088348:	f100181f 	cmp	x0, #0x6
ffff00000008834c:	54001d28 	b.hi	ffff0000000886f0 <syscall_handler+0x648>  // b.pmore
ffff000000088350:	f9409fe0 	ldr	x0, [sp, #312]
ffff000000088354:	f100141f 	cmp	x0, #0x5
ffff000000088358:	54000c80 	b.eq	ffff0000000884e8 <syscall_handler+0x440>  // b.none
ffff00000008835c:	f9409fe0 	ldr	x0, [sp, #312]
ffff000000088360:	f100141f 	cmp	x0, #0x5
ffff000000088364:	54001c68 	b.hi	ffff0000000886f0 <syscall_handler+0x648>  // b.pmore
ffff000000088368:	f9409fe0 	ldr	x0, [sp, #312]
ffff00000008836c:	f100101f 	cmp	x0, #0x4
ffff000000088370:	54000b20 	b.eq	ffff0000000884d4 <syscall_handler+0x42c>  // b.none
ffff000000088374:	f9409fe0 	ldr	x0, [sp, #312]
ffff000000088378:	f100101f 	cmp	x0, #0x4
ffff00000008837c:	54001ba8 	b.hi	ffff0000000886f0 <syscall_handler+0x648>  // b.pmore
ffff000000088380:	f9409fe0 	ldr	x0, [sp, #312]
ffff000000088384:	f1000c1f 	cmp	x0, #0x3
ffff000000088388:	54000940 	b.eq	ffff0000000884b0 <syscall_handler+0x408>  // b.none
ffff00000008838c:	f9409fe0 	ldr	x0, [sp, #312]
ffff000000088390:	f1000c1f 	cmp	x0, #0x3
ffff000000088394:	54001ae8 	b.hi	ffff0000000886f0 <syscall_handler+0x648>  // b.pmore
ffff000000088398:	f9409fe0 	ldr	x0, [sp, #312]
ffff00000008839c:	f100081f 	cmp	x0, #0x2
ffff0000000883a0:	54000560 	b.eq	ffff00000008844c <syscall_handler+0x3a4>  // b.none
ffff0000000883a4:	f9409fe0 	ldr	x0, [sp, #312]
ffff0000000883a8:	f100081f 	cmp	x0, #0x2
ffff0000000883ac:	54001a28 	b.hi	ffff0000000886f0 <syscall_handler+0x648>  // b.pmore
ffff0000000883b0:	f9409fe0 	ldr	x0, [sp, #312]
ffff0000000883b4:	f100001f 	cmp	x0, #0x0
ffff0000000883b8:	540000a0 	b.eq	ffff0000000883cc <syscall_handler+0x324>  // b.none
ffff0000000883bc:	f9409fe0 	ldr	x0, [sp, #312]
ffff0000000883c0:	f100041f 	cmp	x0, #0x1
ffff0000000883c4:	54000100 	b.eq	ffff0000000883e4 <syscall_handler+0x33c>  // b.none
ffff0000000883c8:	140000ca 	b	ffff0000000886f0 <syscall_handler+0x648>
ffff0000000883cc:	f940a3e0 	ldr	x0, [sp, #320]
ffff0000000883d0:	b9400800 	ldr	w0, [x0, #8]
ffff0000000883d4:	2a0003e1 	mov	w1, w0
ffff0000000883d8:	f94017e0 	ldr	x0, [sp, #40]
ffff0000000883dc:	f9000001 	str	x1, [x0]
ffff0000000883e0:	140000cd 	b	ffff000000088714 <syscall_handler+0x66c>
ffff0000000883e4:	f94017e0 	ldr	x0, [sp, #40]
ffff0000000883e8:	f9400000 	ldr	x0, [x0]
ffff0000000883ec:	f90067e0 	str	x0, [sp, #200]
ffff0000000883f0:	f94017e0 	ldr	x0, [sp, #40]
ffff0000000883f4:	91002000 	add	x0, x0, #0x8
ffff0000000883f8:	f9400000 	ldr	x0, [x0]
ffff0000000883fc:	b900c7e0 	str	w0, [sp, #196]
ffff000000088400:	b9014fff 	str	wzr, [sp, #332]
ffff000000088404:	1400000a 	b	ffff00000008842c <syscall_handler+0x384>
ffff000000088408:	b9814fe0 	ldrsw	x0, [sp, #332]
ffff00000008840c:	f94067e1 	ldr	x1, [sp, #200]
ffff000000088410:	8b000033 	add	x19, x1, x0
ffff000000088414:	97fff8c0 	bl	ffff000000086714 <uart_read>
ffff000000088418:	12001c00 	and	w0, w0, #0xff
ffff00000008841c:	39000260 	strb	w0, [x19]
ffff000000088420:	b9414fe0 	ldr	w0, [sp, #332]
ffff000000088424:	11000400 	add	w0, w0, #0x1
ffff000000088428:	b9014fe0 	str	w0, [sp, #332]
ffff00000008842c:	b9414fe1 	ldr	w1, [sp, #332]
ffff000000088430:	b940c7e0 	ldr	w0, [sp, #196]
ffff000000088434:	6b00003f 	cmp	w1, w0
ffff000000088438:	54fffe8b 	b.lt	ffff000000088408 <syscall_handler+0x360>  // b.tstop
ffff00000008843c:	b980c7e1 	ldrsw	x1, [sp, #196]
ffff000000088440:	f94017e0 	ldr	x0, [sp, #40]
ffff000000088444:	f9000001 	str	x1, [x0]
ffff000000088448:	140000b3 	b	ffff000000088714 <syscall_handler+0x66c>
ffff00000008844c:	f94017e0 	ldr	x0, [sp, #40]
ffff000000088450:	f9400000 	ldr	x0, [x0]
ffff000000088454:	f9006fe0 	str	x0, [sp, #216]
ffff000000088458:	f94017e0 	ldr	x0, [sp, #40]
ffff00000008845c:	91002000 	add	x0, x0, #0x8
ffff000000088460:	f9400000 	ldr	x0, [x0]
ffff000000088464:	b900d7e0 	str	w0, [sp, #212]
ffff000000088468:	b9014bff 	str	wzr, [sp, #328]
ffff00000008846c:	14000009 	b	ffff000000088490 <syscall_handler+0x3e8>
ffff000000088470:	b9814be0 	ldrsw	x0, [sp, #328]
ffff000000088474:	f9406fe1 	ldr	x1, [sp, #216]
ffff000000088478:	8b000020 	add	x0, x1, x0
ffff00000008847c:	39400000 	ldrb	w0, [x0]
ffff000000088480:	97fff8bc 	bl	ffff000000086770 <uart_write_char>
ffff000000088484:	b9414be0 	ldr	w0, [sp, #328]
ffff000000088488:	11000400 	add	w0, w0, #0x1
ffff00000008848c:	b9014be0 	str	w0, [sp, #328]
ffff000000088490:	b9414be1 	ldr	w1, [sp, #328]
ffff000000088494:	b940d7e0 	ldr	w0, [sp, #212]
ffff000000088498:	6b00003f 	cmp	w1, w0
ffff00000008849c:	54fffeab 	b.lt	ffff000000088470 <syscall_handler+0x3c8>  // b.tstop
ffff0000000884a0:	b980d7e1 	ldrsw	x1, [sp, #212]
ffff0000000884a4:	f94017e0 	ldr	x0, [sp, #40]
ffff0000000884a8:	f9000001 	str	x1, [x0]
ffff0000000884ac:	1400009a 	b	ffff000000088714 <syscall_handler+0x66c>
ffff0000000884b0:	f94017e0 	ldr	x0, [sp, #40]
ffff0000000884b4:	f9400000 	ldr	x0, [x0]
ffff0000000884b8:	f90073e0 	str	x0, [sp, #224]
ffff0000000884bc:	f94073e0 	ldr	x0, [sp, #224]
ffff0000000884c0:	97ffe5e3 	bl	ffff000000081c4c <cpio_exec_user_program>
ffff0000000884c4:	93407c01 	sxtw	x1, w0
ffff0000000884c8:	f94017e0 	ldr	x0, [sp, #40]
ffff0000000884cc:	f9000001 	str	x1, [x0]
ffff0000000884d0:	14000091 	b	ffff000000088714 <syscall_handler+0x66c>
ffff0000000884d4:	940003c6 	bl	ffff0000000893ec <thread_fork>
ffff0000000884d8:	93407c01 	sxtw	x1, w0
ffff0000000884dc:	f94017e0 	ldr	x0, [sp, #40]
ffff0000000884e0:	f9000001 	str	x1, [x0]
ffff0000000884e4:	1400008c 	b	ffff000000088714 <syscall_handler+0x66c>
ffff0000000884e8:	94000497 	bl	ffff000000089744 <thread_exit>
ffff0000000884ec:	1400008a 	b	ffff000000088714 <syscall_handler+0x66c>
ffff0000000884f0:	97ffeee8 	bl	ffff000000084090 <check_framebuffer>
ffff0000000884f4:	f94017e0 	ldr	x0, [sp, #40]
ffff0000000884f8:	f9400000 	ldr	x0, [x0]
ffff0000000884fc:	3903ffe0 	strb	w0, [sp, #255]
ffff000000088500:	f94017e0 	ldr	x0, [sp, #40]
ffff000000088504:	91002000 	add	x0, x0, #0x8
ffff000000088508:	f9400000 	ldr	x0, [x0]
ffff00000008850c:	f9007be0 	str	x0, [sp, #240]
ffff000000088510:	9100c3e0 	add	x0, sp, #0x30
ffff000000088514:	d2801202 	mov	x2, #0x90                  	// #144
ffff000000088518:	f9407be1 	ldr	x1, [sp, #240]
ffff00000008851c:	97fffe97 	bl	ffff000000087f78 <copy_from_user>
ffff000000088520:	9100c3e0 	add	x0, sp, #0x30
ffff000000088524:	aa0003e1 	mov	x1, x0
ffff000000088528:	3943ffe0 	ldrb	w0, [sp, #255]
ffff00000008852c:	97ffedb1 	bl	ffff000000083bf0 <mailbox_call>
ffff000000088530:	b900efe0 	str	w0, [sp, #236]
ffff000000088534:	9100c3e0 	add	x0, sp, #0x30
ffff000000088538:	d2801202 	mov	x2, #0x90                  	// #144
ffff00000008853c:	aa0003e1 	mov	x1, x0
ffff000000088540:	f9407be0 	ldr	x0, [sp, #240]
ffff000000088544:	97fffeb3 	bl	ffff000000088010 <copy_to_user>
ffff000000088548:	b980efe1 	ldrsw	x1, [sp, #236]
ffff00000008854c:	f94017e0 	ldr	x0, [sp, #40]
ffff000000088550:	f9000001 	str	x1, [x0]
ffff000000088554:	14000070 	b	ffff000000088714 <syscall_handler+0x66c>
ffff000000088558:	f94017e0 	ldr	x0, [sp, #40]
ffff00000008855c:	f9400000 	ldr	x0, [x0]
ffff000000088560:	b90107e0 	str	w0, [sp, #260]
ffff000000088564:	b94107e0 	ldr	w0, [sp, #260]
ffff000000088568:	94000489 	bl	ffff00000008978c <thread_kill>
ffff00000008856c:	b90103e0 	str	w0, [sp, #256]
ffff000000088570:	b98103e1 	ldrsw	x1, [sp, #256]
ffff000000088574:	f94017e0 	ldr	x0, [sp, #40]
ffff000000088578:	f9000001 	str	x1, [x0]
ffff00000008857c:	14000066 	b	ffff000000088714 <syscall_handler+0x66c>
ffff000000088580:	f94017e0 	ldr	x0, [sp, #40]
ffff000000088584:	f9400000 	ldr	x0, [x0]
ffff000000088588:	b9011be0 	str	w0, [sp, #280]
ffff00000008858c:	f94017e0 	ldr	x0, [sp, #40]
ffff000000088590:	91002000 	add	x0, x0, #0x8
ffff000000088594:	f9400000 	ldr	x0, [x0]
ffff000000088598:	f9008be0 	str	x0, [sp, #272]
ffff00000008859c:	940015aa 	bl	ffff00000008dc44 <get_current>
ffff0000000885a0:	f90087e0 	str	x0, [sp, #264]
ffff0000000885a4:	b9411be0 	ldr	w0, [sp, #280]
ffff0000000885a8:	71007c1f 	cmp	w0, #0x1f
ffff0000000885ac:	54000aec 	b.gt	ffff000000088708 <syscall_handler+0x660>
ffff0000000885b0:	f94087e0 	ldr	x0, [sp, #264]
ffff0000000885b4:	b9811be1 	ldrsw	x1, [sp, #280]
ffff0000000885b8:	91002021 	add	x1, x1, #0x8
ffff0000000885bc:	f9408be2 	ldr	x2, [sp, #272]
ffff0000000885c0:	f8217802 	str	x2, [x0, x1, lsl #3]
ffff0000000885c4:	90000040 	adrp	x0, ffff000000090000 <pool_slots+0x6f0>
ffff0000000885c8:	9125c000 	add	x0, x0, #0x970
ffff0000000885cc:	97fffa0c 	bl	ffff000000086dfc <uart_write_str_raw>
ffff0000000885d0:	b9411be0 	ldr	w0, [sp, #280]
ffff0000000885d4:	97fffa21 	bl	ffff000000086e58 <uart_write_int_raw>
ffff0000000885d8:	1400004c 	b	ffff000000088708 <syscall_handler+0x660>
ffff0000000885dc:	f94017e0 	ldr	x0, [sp, #40]
ffff0000000885e0:	f9400000 	ldr	x0, [x0]
ffff0000000885e4:	b90127e0 	str	w0, [sp, #292]
ffff0000000885e8:	f94017e0 	ldr	x0, [sp, #40]
ffff0000000885ec:	91002000 	add	x0, x0, #0x8
ffff0000000885f0:	f9400000 	ldr	x0, [x0]
ffff0000000885f4:	b90123e0 	str	w0, [sp, #288]
ffff0000000885f8:	90000040 	adrp	x0, ffff000000090000 <pool_slots+0x6f0>
ffff0000000885fc:	9126a000 	add	x0, x0, #0x9a8
ffff000000088600:	97fff9ff 	bl	ffff000000086dfc <uart_write_str_raw>
ffff000000088604:	b94123e0 	ldr	w0, [sp, #288]
ffff000000088608:	97fffa14 	bl	ffff000000086e58 <uart_write_int_raw>
ffff00000008860c:	90000040 	adrp	x0, ffff000000090000 <pool_slots+0x6f0>
ffff000000088610:	91272000 	add	x0, x0, #0x9c8
ffff000000088614:	97fff9fa 	bl	ffff000000086dfc <uart_write_str_raw>
ffff000000088618:	b94127e0 	ldr	w0, [sp, #292]
ffff00000008861c:	97fffa0f 	bl	ffff000000086e58 <uart_write_int_raw>
ffff000000088620:	b94123e1 	ldr	w1, [sp, #288]
ffff000000088624:	b94127e0 	ldr	w0, [sp, #292]
ffff000000088628:	940004c4 	bl	ffff000000089938 <thread_send_signal>
ffff00000008862c:	b9011fe0 	str	w0, [sp, #284]
ffff000000088630:	b9811fe1 	ldrsw	x1, [sp, #284]
ffff000000088634:	f94017e0 	ldr	x0, [sp, #40]
ffff000000088638:	f9000001 	str	x1, [x0]
ffff00000008863c:	14000036 	b	ffff000000088714 <syscall_handler+0x66c>
ffff000000088640:	94001581 	bl	ffff00000008dc44 <get_current>
ffff000000088644:	f9009be0 	str	x0, [sp, #304]
ffff000000088648:	f9409be0 	ldr	x0, [sp, #304]
ffff00000008864c:	b941e800 	ldr	w0, [x0, #488]
ffff000000088650:	7100001f 	cmp	w0, #0x0
ffff000000088654:	540005e0 	b.eq	ffff000000088710 <syscall_handler+0x668>  // b.none
ffff000000088658:	90000040 	adrp	x0, ffff000000090000 <pool_slots+0x6f0>
ffff00000008865c:	91276000 	add	x0, x0, #0x9d8
ffff000000088660:	97fff9e7 	bl	ffff000000086dfc <uart_write_str_raw>
ffff000000088664:	f9409be0 	ldr	x0, [sp, #304]
ffff000000088668:	f9400000 	ldr	x0, [x0]
ffff00000008866c:	f90097e0 	str	x0, [sp, #296]
ffff000000088670:	f94097e0 	ldr	x0, [sp, #296]
ffff000000088674:	9103c000 	add	x0, x0, #0xf0
ffff000000088678:	f9409be1 	ldr	x1, [sp, #304]
ffff00000008867c:	f940e821 	ldr	x1, [x1, #464]
ffff000000088680:	f9000001 	str	x1, [x0]
ffff000000088684:	f94097e0 	ldr	x0, [sp, #296]
ffff000000088688:	91042000 	add	x0, x0, #0x108
ffff00000008868c:	f9409be1 	ldr	x1, [sp, #304]
ffff000000088690:	f940e021 	ldr	x1, [x1, #448]
ffff000000088694:	f9000001 	str	x1, [x0]
ffff000000088698:	f94097e0 	ldr	x0, [sp, #296]
ffff00000008869c:	91040000 	add	x0, x0, #0x100
ffff0000000886a0:	f9409be1 	ldr	x1, [sp, #304]
ffff0000000886a4:	f940e421 	ldr	x1, [x1, #456]
ffff0000000886a8:	f9000001 	str	x1, [x0]
ffff0000000886ac:	f94097e0 	ldr	x0, [sp, #296]
ffff0000000886b0:	91044000 	add	x0, x0, #0x110
ffff0000000886b4:	f9409be1 	ldr	x1, [sp, #304]
ffff0000000886b8:	f940ec21 	ldr	x1, [x1, #472]
ffff0000000886bc:	f9000001 	str	x1, [x0]
ffff0000000886c0:	f9409be0 	ldr	x0, [sp, #304]
ffff0000000886c4:	f940ec01 	ldr	x1, [x0, #472]
ffff0000000886c8:	f9409be0 	ldr	x0, [sp, #304]
ffff0000000886cc:	f9001401 	str	x1, [x0, #40]
ffff0000000886d0:	f9409be0 	ldr	x0, [sp, #304]
ffff0000000886d4:	b901e81f 	str	wzr, [x0, #488]
ffff0000000886d8:	f9409be0 	ldr	x0, [sp, #304]
ffff0000000886dc:	f940f000 	ldr	x0, [x0, #480]
ffff0000000886e0:	97fff2cd 	bl	ffff000000085214 <kfree>
ffff0000000886e4:	f9409be0 	ldr	x0, [sp, #304]
ffff0000000886e8:	f900f01f 	str	xzr, [x0, #480]
ffff0000000886ec:	14000009 	b	ffff000000088710 <syscall_handler+0x668>
ffff0000000886f0:	90000040 	adrp	x0, ffff000000090000 <pool_slots+0x6f0>
ffff0000000886f4:	91282000 	add	x0, x0, #0xa08
ffff0000000886f8:	97fff9c1 	bl	ffff000000086dfc <uart_write_str_raw>
ffff0000000886fc:	f9409fe0 	ldr	x0, [sp, #312]
ffff000000088700:	97fff9d6 	bl	ffff000000086e58 <uart_write_int_raw>
ffff000000088704:	14000004 	b	ffff000000088714 <syscall_handler+0x66c>
ffff000000088708:	d503201f 	nop
ffff00000008870c:	14000002 	b	ffff000000088714 <syscall_handler+0x66c>
ffff000000088710:	d503201f 	nop
ffff000000088714:	d503201f 	nop
ffff000000088718:	f9400bf3 	ldr	x19, [sp, #16]
ffff00000008871c:	a8d57bfd 	ldp	x29, x30, [sp], #336
ffff000000088720:	d65f03c0 	ret

ffff000000088724 <sys_getpid>:
ffff000000088724:	d10043ff 	sub	sp, sp, #0x10
ffff000000088728:	d2800008 	mov	x8, #0x0                   	// #0
ffff00000008872c:	d4000001 	svc	#0x0
ffff000000088730:	aa0003e1 	mov	x1, x0
ffff000000088734:	b9000fe1 	str	w1, [sp, #12]
ffff000000088738:	b9400fe0 	ldr	w0, [sp, #12]
ffff00000008873c:	910043ff 	add	sp, sp, #0x10
ffff000000088740:	d65f03c0 	ret

ffff000000088744 <sys_uart_read>:
ffff000000088744:	d10083ff 	sub	sp, sp, #0x20
ffff000000088748:	f90007e0 	str	x0, [sp, #8]
ffff00000008874c:	f90003e1 	str	x1, [sp]
ffff000000088750:	f94007e2 	ldr	x2, [sp, #8]
ffff000000088754:	f94003e3 	ldr	x3, [sp]
ffff000000088758:	aa0203e0 	mov	x0, x2
ffff00000008875c:	aa0303e1 	mov	x1, x3
ffff000000088760:	d2800028 	mov	x8, #0x1                   	// #1
ffff000000088764:	d4000001 	svc	#0x0
ffff000000088768:	aa0003e2 	mov	x2, x0
ffff00000008876c:	f9000fe2 	str	x2, [sp, #24]
ffff000000088770:	f9400fe0 	ldr	x0, [sp, #24]
ffff000000088774:	910083ff 	add	sp, sp, #0x20
ffff000000088778:	d65f03c0 	ret

ffff00000008877c <sys_uart_write>:
ffff00000008877c:	d10083ff 	sub	sp, sp, #0x20
ffff000000088780:	f90007e0 	str	x0, [sp, #8]
ffff000000088784:	f90003e1 	str	x1, [sp]
ffff000000088788:	f94007e2 	ldr	x2, [sp, #8]
ffff00000008878c:	f94003e3 	ldr	x3, [sp]
ffff000000088790:	aa0203e0 	mov	x0, x2
ffff000000088794:	aa0303e1 	mov	x1, x3
ffff000000088798:	d2800048 	mov	x8, #0x2                   	// #2
ffff00000008879c:	d4000001 	svc	#0x0
ffff0000000887a0:	aa0003e2 	mov	x2, x0
ffff0000000887a4:	f9000fe2 	str	x2, [sp, #24]
ffff0000000887a8:	f9400fe0 	ldr	x0, [sp, #24]
ffff0000000887ac:	910083ff 	add	sp, sp, #0x20
ffff0000000887b0:	d65f03c0 	ret

ffff0000000887b4 <sys_exec>:
ffff0000000887b4:	a9bd7bfd 	stp	x29, x30, [sp, #-48]!
ffff0000000887b8:	910003fd 	mov	x29, sp
ffff0000000887bc:	f9000fe0 	str	x0, [sp, #24]
ffff0000000887c0:	b90017e1 	str	w1, [sp, #20]
ffff0000000887c4:	90000040 	adrp	x0, ffff000000090000 <pool_slots+0x6f0>
ffff0000000887c8:	9128c000 	add	x0, x0, #0xa30
ffff0000000887cc:	97fff98c 	bl	ffff000000086dfc <uart_write_str_raw>
ffff0000000887d0:	f9400fe2 	ldr	x2, [sp, #24]
ffff0000000887d4:	b94017e3 	ldr	w3, [sp, #20]
ffff0000000887d8:	aa0203e0 	mov	x0, x2
ffff0000000887dc:	aa0303e1 	mov	x1, x3
ffff0000000887e0:	d2800068 	mov	x8, #0x3                   	// #3
ffff0000000887e4:	d4000001 	svc	#0x0
ffff0000000887e8:	aa0003e2 	mov	x2, x0
ffff0000000887ec:	b9002fe2 	str	w2, [sp, #44]
ffff0000000887f0:	b9402fe0 	ldr	w0, [sp, #44]
ffff0000000887f4:	a8c37bfd 	ldp	x29, x30, [sp], #48
ffff0000000887f8:	d65f03c0 	ret

ffff0000000887fc <sys_fork>:
ffff0000000887fc:	d10043ff 	sub	sp, sp, #0x10
ffff000000088800:	d2800088 	mov	x8, #0x4                   	// #4
ffff000000088804:	d4000001 	svc	#0x0
ffff000000088808:	aa0003e1 	mov	x1, x0
ffff00000008880c:	b9000fe1 	str	w1, [sp, #12]
ffff000000088810:	b9400fe0 	ldr	w0, [sp, #12]
ffff000000088814:	910043ff 	add	sp, sp, #0x10
ffff000000088818:	d65f03c0 	ret

ffff00000008881c <sys_exit>:
ffff00000008881c:	d28000a8 	mov	x8, #0x5                   	// #5
ffff000000088820:	d4000001 	svc	#0x0
ffff000000088824:	d503201f 	nop
ffff000000088828:	d65f03c0 	ret

ffff00000008882c <sys_mbox_call>:
ffff00000008882c:	a9bd7bfd 	stp	x29, x30, [sp, #-48]!
ffff000000088830:	910003fd 	mov	x29, sp
ffff000000088834:	39007fe0 	strb	w0, [sp, #31]
ffff000000088838:	f9000be1 	str	x1, [sp, #16]
ffff00000008883c:	90000040 	adrp	x0, ffff000000090000 <pool_slots+0x6f0>
ffff000000088840:	91294000 	add	x0, x0, #0xa50
ffff000000088844:	97fff96e 	bl	ffff000000086dfc <uart_write_str_raw>
ffff000000088848:	39407fe2 	ldrb	w2, [sp, #31]
ffff00000008884c:	f9400be3 	ldr	x3, [sp, #16]
ffff000000088850:	aa0203e0 	mov	x0, x2
ffff000000088854:	aa0303e1 	mov	x1, x3
ffff000000088858:	d28000c8 	mov	x8, #0x6                   	// #6
ffff00000008885c:	d4000001 	svc	#0x0
ffff000000088860:	aa0003e2 	mov	x2, x0
ffff000000088864:	b9002fe2 	str	w2, [sp, #44]
ffff000000088868:	b9402fe0 	ldr	w0, [sp, #44]
ffff00000008886c:	a8c37bfd 	ldp	x29, x30, [sp], #48
ffff000000088870:	d65f03c0 	ret

ffff000000088874 <sys_kill>:
ffff000000088874:	d10043ff 	sub	sp, sp, #0x10
ffff000000088878:	b9000fe0 	str	w0, [sp, #12]
ffff00000008887c:	b9400fe1 	ldr	w1, [sp, #12]
ffff000000088880:	aa0103e0 	mov	x0, x1
ffff000000088884:	d28000e8 	mov	x8, #0x7                   	// #7
ffff000000088888:	d4000001 	svc	#0x0
ffff00000008888c:	d503201f 	nop
ffff000000088890:	910043ff 	add	sp, sp, #0x10
ffff000000088894:	d65f03c0 	ret

ffff000000088898 <sys_signal>:
ffff000000088898:	d10043ff 	sub	sp, sp, #0x10
ffff00000008889c:	b9000fe0 	str	w0, [sp, #12]
ffff0000000888a0:	f90003e1 	str	x1, [sp]
ffff0000000888a4:	b9400fe2 	ldr	w2, [sp, #12]
ffff0000000888a8:	f94003e3 	ldr	x3, [sp]
ffff0000000888ac:	aa0203e0 	mov	x0, x2
ffff0000000888b0:	aa0303e1 	mov	x1, x3
ffff0000000888b4:	d2800108 	mov	x8, #0x8                   	// #8
ffff0000000888b8:	d4000001 	svc	#0x0
ffff0000000888bc:	d503201f 	nop
ffff0000000888c0:	910043ff 	add	sp, sp, #0x10
ffff0000000888c4:	d65f03c0 	ret

ffff0000000888c8 <sys_signal_kill>:
ffff0000000888c8:	d10043ff 	sub	sp, sp, #0x10
ffff0000000888cc:	b9000fe0 	str	w0, [sp, #12]
ffff0000000888d0:	b9000be1 	str	w1, [sp, #8]
ffff0000000888d4:	b9400fe2 	ldr	w2, [sp, #12]
ffff0000000888d8:	b9400be3 	ldr	w3, [sp, #8]
ffff0000000888dc:	aa0203e0 	mov	x0, x2
ffff0000000888e0:	aa0303e1 	mov	x1, x3
ffff0000000888e4:	d2800128 	mov	x8, #0x9                   	// #9
ffff0000000888e8:	d4000001 	svc	#0x0
ffff0000000888ec:	d503201f 	nop
ffff0000000888f0:	910043ff 	add	sp, sp, #0x10
ffff0000000888f4:	d65f03c0 	ret

ffff0000000888f8 <sys_sigreturn>:
ffff0000000888f8:	d2800148 	mov	x8, #0xa                   	// #10
ffff0000000888fc:	d4000001 	svc	#0x0
ffff000000088900:	d503201f 	nop
ffff000000088904:	d65f03c0 	ret

ffff000000088908 <enable_interrupt>:
ffff000000088908:	d5034fff 	msr	daifclr, #0xf
ffff00000008890c:	d503201f 	nop
ffff000000088910:	d65f03c0 	ret

ffff000000088914 <disable_interrupt>:
ffff000000088914:	d5034fdf 	msr	daifset, #0xf
ffff000000088918:	d503201f 	nop
ffff00000008891c:	d65f03c0 	ret

ffff000000088920 <remove_from_ready_queue>:
ffff000000088920:	d10083ff 	sub	sp, sp, #0x20
ffff000000088924:	f90007e0 	str	x0, [sp, #8]
ffff000000088928:	f94007e0 	ldr	x0, [sp, #8]
ffff00000008892c:	b9401001 	ldr	w1, [x0, #16]
ffff000000088930:	f0000040 	adrp	x0, ffff000000093000 <task_pool+0x6f8>
ffff000000088934:	9112c000 	add	x0, x0, #0x4b0
ffff000000088938:	93407c21 	sxtw	x1, w1
ffff00000008893c:	f8617800 	ldr	x0, [x0, x1, lsl #3]
ffff000000088940:	f9000fe0 	str	x0, [sp, #24]
ffff000000088944:	f9000bff 	str	xzr, [sp, #16]
ffff000000088948:	1400001b 	b	ffff0000000889b4 <remove_from_ready_queue+0x94>
ffff00000008894c:	f9400fe1 	ldr	x1, [sp, #24]
ffff000000088950:	f94007e0 	ldr	x0, [sp, #8]
ffff000000088954:	eb00003f 	cmp	x1, x0
ffff000000088958:	54000241 	b.ne	ffff0000000889a0 <remove_from_ready_queue+0x80>  // b.any
ffff00000008895c:	f9400be0 	ldr	x0, [sp, #16]
ffff000000088960:	f100001f 	cmp	x0, #0x0
ffff000000088964:	540000c0 	b.eq	ffff00000008897c <remove_from_ready_queue+0x5c>  // b.none
ffff000000088968:	f9400fe0 	ldr	x0, [sp, #24]
ffff00000008896c:	f9401c01 	ldr	x1, [x0, #56]
ffff000000088970:	f9400be0 	ldr	x0, [sp, #16]
ffff000000088974:	f9001c01 	str	x1, [x0, #56]
ffff000000088978:	14000012 	b	ffff0000000889c0 <remove_from_ready_queue+0xa0>
ffff00000008897c:	f94007e0 	ldr	x0, [sp, #8]
ffff000000088980:	b9401001 	ldr	w1, [x0, #16]
ffff000000088984:	f9400fe0 	ldr	x0, [sp, #24]
ffff000000088988:	f9401c02 	ldr	x2, [x0, #56]
ffff00000008898c:	f0000040 	adrp	x0, ffff000000093000 <task_pool+0x6f8>
ffff000000088990:	9112c000 	add	x0, x0, #0x4b0
ffff000000088994:	93407c21 	sxtw	x1, w1
ffff000000088998:	f8217802 	str	x2, [x0, x1, lsl #3]
ffff00000008899c:	14000009 	b	ffff0000000889c0 <remove_from_ready_queue+0xa0>
ffff0000000889a0:	f9400fe0 	ldr	x0, [sp, #24]
ffff0000000889a4:	f9000be0 	str	x0, [sp, #16]
ffff0000000889a8:	f9400fe0 	ldr	x0, [sp, #24]
ffff0000000889ac:	f9401c00 	ldr	x0, [x0, #56]
ffff0000000889b0:	f9000fe0 	str	x0, [sp, #24]
ffff0000000889b4:	f9400fe0 	ldr	x0, [sp, #24]
ffff0000000889b8:	f100001f 	cmp	x0, #0x0
ffff0000000889bc:	54fffc81 	b.ne	ffff00000008894c <remove_from_ready_queue+0x2c>  // b.any
ffff0000000889c0:	f94007e0 	ldr	x0, [sp, #8]
ffff0000000889c4:	f9001c1f 	str	xzr, [x0, #56]
ffff0000000889c8:	d503201f 	nop
ffff0000000889cc:	910083ff 	add	sp, sp, #0x20
ffff0000000889d0:	d65f03c0 	ret

ffff0000000889d4 <move_to_ready_queue_tail>:
ffff0000000889d4:	a9bd7bfd 	stp	x29, x30, [sp, #-48]!
ffff0000000889d8:	910003fd 	mov	x29, sp
ffff0000000889dc:	f9000fe0 	str	x0, [sp, #24]
ffff0000000889e0:	f9400fe0 	ldr	x0, [sp, #24]
ffff0000000889e4:	f100001f 	cmp	x0, #0x0
ffff0000000889e8:	540006a0 	b.eq	ffff000000088abc <move_to_ready_queue_tail+0xe8>  // b.none
ffff0000000889ec:	97ffffca 	bl	ffff000000088914 <disable_interrupt>
ffff0000000889f0:	f9400fe0 	ldr	x0, [sp, #24]
ffff0000000889f4:	b9401000 	ldr	w0, [x0, #16]
ffff0000000889f8:	93407c00 	sxtw	x0, w0
ffff0000000889fc:	d37df001 	lsl	x1, x0, #3
ffff000000088a00:	f0000040 	adrp	x0, ffff000000093000 <task_pool+0x6f8>
ffff000000088a04:	9112c000 	add	x0, x0, #0x4b0
ffff000000088a08:	8b000020 	add	x0, x1, x0
ffff000000088a0c:	f90017e0 	str	x0, [sp, #40]
ffff000000088a10:	1400000f 	b	ffff000000088a4c <move_to_ready_queue_tail+0x78>
ffff000000088a14:	f94017e0 	ldr	x0, [sp, #40]
ffff000000088a18:	f9400000 	ldr	x0, [x0]
ffff000000088a1c:	f9400fe1 	ldr	x1, [sp, #24]
ffff000000088a20:	eb00003f 	cmp	x1, x0
ffff000000088a24:	540000c1 	b.ne	ffff000000088a3c <move_to_ready_queue_tail+0x68>  // b.any
ffff000000088a28:	f9400fe0 	ldr	x0, [sp, #24]
ffff000000088a2c:	f9401c01 	ldr	x1, [x0, #56]
ffff000000088a30:	f94017e0 	ldr	x0, [sp, #40]
ffff000000088a34:	f9000001 	str	x1, [x0]
ffff000000088a38:	14000009 	b	ffff000000088a5c <move_to_ready_queue_tail+0x88>
ffff000000088a3c:	f94017e0 	ldr	x0, [sp, #40]
ffff000000088a40:	f9400000 	ldr	x0, [x0]
ffff000000088a44:	9100e000 	add	x0, x0, #0x38
ffff000000088a48:	f90017e0 	str	x0, [sp, #40]
ffff000000088a4c:	f94017e0 	ldr	x0, [sp, #40]
ffff000000088a50:	f9400000 	ldr	x0, [x0]
ffff000000088a54:	f100001f 	cmp	x0, #0x0
ffff000000088a58:	54fffde1 	b.ne	ffff000000088a14 <move_to_ready_queue_tail+0x40>  // b.any
ffff000000088a5c:	f9400fe0 	ldr	x0, [sp, #24]
ffff000000088a60:	f9001c1f 	str	xzr, [x0, #56]
ffff000000088a64:	f9400fe0 	ldr	x0, [sp, #24]
ffff000000088a68:	b9401000 	ldr	w0, [x0, #16]
ffff000000088a6c:	93407c00 	sxtw	x0, w0
ffff000000088a70:	d37df001 	lsl	x1, x0, #3
ffff000000088a74:	f0000040 	adrp	x0, ffff000000093000 <task_pool+0x6f8>
ffff000000088a78:	9112c000 	add	x0, x0, #0x4b0
ffff000000088a7c:	8b000020 	add	x0, x1, x0
ffff000000088a80:	f90013e0 	str	x0, [sp, #32]
ffff000000088a84:	14000005 	b	ffff000000088a98 <move_to_ready_queue_tail+0xc4>
ffff000000088a88:	f94013e0 	ldr	x0, [sp, #32]
ffff000000088a8c:	f9400000 	ldr	x0, [x0]
ffff000000088a90:	9100e000 	add	x0, x0, #0x38
ffff000000088a94:	f90013e0 	str	x0, [sp, #32]
ffff000000088a98:	f94013e0 	ldr	x0, [sp, #32]
ffff000000088a9c:	f9400000 	ldr	x0, [x0]
ffff000000088aa0:	f100001f 	cmp	x0, #0x0
ffff000000088aa4:	54ffff21 	b.ne	ffff000000088a88 <move_to_ready_queue_tail+0xb4>  // b.any
ffff000000088aa8:	f94013e0 	ldr	x0, [sp, #32]
ffff000000088aac:	f9400fe1 	ldr	x1, [sp, #24]
ffff000000088ab0:	f9000001 	str	x1, [x0]
ffff000000088ab4:	97ffff95 	bl	ffff000000088908 <enable_interrupt>
ffff000000088ab8:	14000002 	b	ffff000000088ac0 <move_to_ready_queue_tail+0xec>
ffff000000088abc:	d503201f 	nop
ffff000000088ac0:	a8c37bfd 	ldp	x29, x30, [sp], #48
ffff000000088ac4:	d65f03c0 	ret

ffff000000088ac8 <find_in_list>:
ffff000000088ac8:	d10083ff 	sub	sp, sp, #0x20
ffff000000088acc:	f90007e0 	str	x0, [sp, #8]
ffff000000088ad0:	b90007e1 	str	w1, [sp, #4]
ffff000000088ad4:	f94007e0 	ldr	x0, [sp, #8]
ffff000000088ad8:	f9000fe0 	str	x0, [sp, #24]
ffff000000088adc:	1400000b 	b	ffff000000088b08 <find_in_list+0x40>
ffff000000088ae0:	f9400fe0 	ldr	x0, [sp, #24]
ffff000000088ae4:	b9400801 	ldr	w1, [x0, #8]
ffff000000088ae8:	b94007e0 	ldr	w0, [sp, #4]
ffff000000088aec:	6b00003f 	cmp	w1, w0
ffff000000088af0:	54000061 	b.ne	ffff000000088afc <find_in_list+0x34>  // b.any
ffff000000088af4:	f9400fe0 	ldr	x0, [sp, #24]
ffff000000088af8:	14000008 	b	ffff000000088b18 <find_in_list+0x50>
ffff000000088afc:	f9400fe0 	ldr	x0, [sp, #24]
ffff000000088b00:	f9401c00 	ldr	x0, [x0, #56]
ffff000000088b04:	f9000fe0 	str	x0, [sp, #24]
ffff000000088b08:	f9400fe0 	ldr	x0, [sp, #24]
ffff000000088b0c:	f100001f 	cmp	x0, #0x0
ffff000000088b10:	54fffe81 	b.ne	ffff000000088ae0 <find_in_list+0x18>  // b.any
ffff000000088b14:	d2800000 	mov	x0, #0x0                   	// #0
ffff000000088b18:	910083ff 	add	sp, sp, #0x20
ffff000000088b1c:	d65f03c0 	ret

ffff000000088b20 <find_thread_by_tid>:
ffff000000088b20:	a9bc7bfd 	stp	x29, x30, [sp, #-64]!
ffff000000088b24:	910003fd 	mov	x29, sp
ffff000000088b28:	b9001fe0 	str	w0, [sp, #28]
ffff000000088b2c:	b9003fff 	str	wzr, [sp, #60]
ffff000000088b30:	14000010 	b	ffff000000088b70 <find_thread_by_tid+0x50>
ffff000000088b34:	f0000040 	adrp	x0, ffff000000093000 <task_pool+0x6f8>
ffff000000088b38:	9112c000 	add	x0, x0, #0x4b0
ffff000000088b3c:	b9803fe1 	ldrsw	x1, [sp, #60]
ffff000000088b40:	f8617800 	ldr	x0, [x0, x1, lsl #3]
ffff000000088b44:	b9401fe1 	ldr	w1, [sp, #28]
ffff000000088b48:	97ffffe0 	bl	ffff000000088ac8 <find_in_list>
ffff000000088b4c:	f90017e0 	str	x0, [sp, #40]
ffff000000088b50:	f94017e0 	ldr	x0, [sp, #40]
ffff000000088b54:	f100001f 	cmp	x0, #0x0
ffff000000088b58:	54000060 	b.eq	ffff000000088b64 <find_thread_by_tid+0x44>  // b.none
ffff000000088b5c:	f94017e0 	ldr	x0, [sp, #40]
ffff000000088b60:	1400001e 	b	ffff000000088bd8 <find_thread_by_tid+0xb8>
ffff000000088b64:	b9403fe0 	ldr	w0, [sp, #60]
ffff000000088b68:	11000400 	add	w0, w0, #0x1
ffff000000088b6c:	b9003fe0 	str	w0, [sp, #60]
ffff000000088b70:	b9403fe0 	ldr	w0, [sp, #60]
ffff000000088b74:	71007c1f 	cmp	w0, #0x1f
ffff000000088b78:	54fffded 	b.le	ffff000000088b34 <find_thread_by_tid+0x14>
ffff000000088b7c:	d0000040 	adrp	x0, ffff000000092000 <pool_slots+0xe38>
ffff000000088b80:	f943b000 	ldr	x0, [x0, #1888]
ffff000000088b84:	f9400400 	ldr	x0, [x0, #8]
ffff000000088b88:	b9401fe1 	ldr	w1, [sp, #28]
ffff000000088b8c:	97ffffcf 	bl	ffff000000088ac8 <find_in_list>
ffff000000088b90:	f9001be0 	str	x0, [sp, #48]
ffff000000088b94:	f9401be0 	ldr	x0, [sp, #48]
ffff000000088b98:	f100001f 	cmp	x0, #0x0
ffff000000088b9c:	54000060 	b.eq	ffff000000088ba8 <find_thread_by_tid+0x88>  // b.none
ffff000000088ba0:	f9401be0 	ldr	x0, [sp, #48]
ffff000000088ba4:	1400000d 	b	ffff000000088bd8 <find_thread_by_tid+0xb8>
ffff000000088ba8:	d0000040 	adrp	x0, ffff000000092000 <pool_slots+0xe38>
ffff000000088bac:	f943f800 	ldr	x0, [x0, #2032]
ffff000000088bb0:	f9400400 	ldr	x0, [x0, #8]
ffff000000088bb4:	b9401fe1 	ldr	w1, [sp, #28]
ffff000000088bb8:	97ffffc4 	bl	ffff000000088ac8 <find_in_list>
ffff000000088bbc:	f9001be0 	str	x0, [sp, #48]
ffff000000088bc0:	f9401be0 	ldr	x0, [sp, #48]
ffff000000088bc4:	f100001f 	cmp	x0, #0x0
ffff000000088bc8:	54000060 	b.eq	ffff000000088bd4 <find_thread_by_tid+0xb4>  // b.none
ffff000000088bcc:	f9401be0 	ldr	x0, [sp, #48]
ffff000000088bd0:	14000002 	b	ffff000000088bd8 <find_thread_by_tid+0xb8>
ffff000000088bd4:	d2800000 	mov	x0, #0x0                   	// #0
ffff000000088bd8:	a8c47bfd 	ldp	x29, x30, [sp], #64
ffff000000088bdc:	d65f03c0 	ret

ffff000000088be0 <ready_queue_dump>:
ffff000000088be0:	a9be7bfd 	stp	x29, x30, [sp, #-32]!
ffff000000088be4:	910003fd 	mov	x29, sp
ffff000000088be8:	90000040 	adrp	x0, ffff000000090000 <pool_slots+0x6f0>
ffff000000088bec:	912aa000 	add	x0, x0, #0xaa8
ffff000000088bf0:	97fff883 	bl	ffff000000086dfc <uart_write_str_raw>
ffff000000088bf4:	b9001fff 	str	wzr, [sp, #28]
ffff000000088bf8:	14000026 	b	ffff000000088c90 <ready_queue_dump+0xb0>
ffff000000088bfc:	f0000040 	adrp	x0, ffff000000093000 <task_pool+0x6f8>
ffff000000088c00:	9112c000 	add	x0, x0, #0x4b0
ffff000000088c04:	b9801fe1 	ldrsw	x1, [sp, #28]
ffff000000088c08:	f8617800 	ldr	x0, [x0, x1, lsl #3]
ffff000000088c0c:	f9000be0 	str	x0, [sp, #16]
ffff000000088c10:	f9400be0 	ldr	x0, [sp, #16]
ffff000000088c14:	f100001f 	cmp	x0, #0x0
ffff000000088c18:	54000340 	b.eq	ffff000000088c80 <ready_queue_dump+0xa0>  // b.none
ffff000000088c1c:	90000040 	adrp	x0, ffff000000090000 <pool_slots+0x6f0>
ffff000000088c20:	912b4000 	add	x0, x0, #0xad0
ffff000000088c24:	97fff876 	bl	ffff000000086dfc <uart_write_str_raw>
ffff000000088c28:	b9401fe0 	ldr	w0, [sp, #28]
ffff000000088c2c:	97fff88b 	bl	ffff000000086e58 <uart_write_int_raw>
ffff000000088c30:	90000040 	adrp	x0, ffff000000090000 <pool_slots+0x6f0>
ffff000000088c34:	912b8000 	add	x0, x0, #0xae0
ffff000000088c38:	97fff871 	bl	ffff000000086dfc <uart_write_str_raw>
ffff000000088c3c:	1400000d 	b	ffff000000088c70 <ready_queue_dump+0x90>
ffff000000088c40:	90000040 	adrp	x0, ffff000000090000 <pool_slots+0x6f0>
ffff000000088c44:	912ba000 	add	x0, x0, #0xae8
ffff000000088c48:	97fff86d 	bl	ffff000000086dfc <uart_write_str_raw>
ffff000000088c4c:	f9400be0 	ldr	x0, [sp, #16]
ffff000000088c50:	b9400800 	ldr	w0, [x0, #8]
ffff000000088c54:	97fff881 	bl	ffff000000086e58 <uart_write_int_raw>
ffff000000088c58:	90000040 	adrp	x0, ffff000000090000 <pool_slots+0x6f0>
ffff000000088c5c:	912bc000 	add	x0, x0, #0xaf0
ffff000000088c60:	97fff867 	bl	ffff000000086dfc <uart_write_str_raw>
ffff000000088c64:	f9400be0 	ldr	x0, [sp, #16]
ffff000000088c68:	f9401c00 	ldr	x0, [x0, #56]
ffff000000088c6c:	f9000be0 	str	x0, [sp, #16]
ffff000000088c70:	f9400be0 	ldr	x0, [sp, #16]
ffff000000088c74:	f100001f 	cmp	x0, #0x0
ffff000000088c78:	54fffe41 	b.ne	ffff000000088c40 <ready_queue_dump+0x60>  // b.any
ffff000000088c7c:	14000002 	b	ffff000000088c84 <ready_queue_dump+0xa4>
ffff000000088c80:	d503201f 	nop
ffff000000088c84:	b9401fe0 	ldr	w0, [sp, #28]
ffff000000088c88:	11000400 	add	w0, w0, #0x1
ffff000000088c8c:	b9001fe0 	str	w0, [sp, #28]
ffff000000088c90:	b9401fe0 	ldr	w0, [sp, #28]
ffff000000088c94:	71007c1f 	cmp	w0, #0x1f
ffff000000088c98:	54fffb2d 	b.le	ffff000000088bfc <ready_queue_dump+0x1c>
ffff000000088c9c:	90000040 	adrp	x0, ffff000000090000 <pool_slots+0x6f0>
ffff000000088ca0:	912be000 	add	x0, x0, #0xaf8
ffff000000088ca4:	97fff856 	bl	ffff000000086dfc <uart_write_str_raw>
ffff000000088ca8:	d503201f 	nop
ffff000000088cac:	a8c27bfd 	ldp	x29, x30, [sp], #32
ffff000000088cb0:	d65f03c0 	ret

ffff000000088cb4 <panic_invalid_sp>:
ffff000000088cb4:	a9bf7bfd 	stp	x29, x30, [sp, #-16]!
ffff000000088cb8:	910003fd 	mov	x29, sp
ffff000000088cbc:	90000040 	adrp	x0, ffff000000090000 <pool_slots+0x6f0>
ffff000000088cc0:	912c8000 	add	x0, x0, #0xb20
ffff000000088cc4:	97fff84e 	bl	ffff000000086dfc <uart_write_str_raw>
ffff000000088cc8:	97ffffc6 	bl	ffff000000088be0 <ready_queue_dump>
ffff000000088ccc:	14000000 	b	ffff000000088ccc <panic_invalid_sp+0x18>

ffff000000088cd0 <panic_null_thread>:
ffff000000088cd0:	a9bf7bfd 	stp	x29, x30, [sp, #-16]!
ffff000000088cd4:	910003fd 	mov	x29, sp
ffff000000088cd8:	90000040 	adrp	x0, ffff000000090000 <pool_slots+0x6f0>
ffff000000088cdc:	912d0000 	add	x0, x0, #0xb40
ffff000000088ce0:	97fff847 	bl	ffff000000086dfc <uart_write_str_raw>
ffff000000088ce4:	97ffffbf 	bl	ffff000000088be0 <ready_queue_dump>
ffff000000088ce8:	14000000 	b	ffff000000088ce8 <panic_null_thread+0x18>

ffff000000088cec <validate_thread_stack>:
ffff000000088cec:	a9be7bfd 	stp	x29, x30, [sp, #-32]!
ffff000000088cf0:	910003fd 	mov	x29, sp
ffff000000088cf4:	f9000fe0 	str	x0, [sp, #24]
ffff000000088cf8:	f9400fe0 	ldr	x0, [sp, #24]
ffff000000088cfc:	f100001f 	cmp	x0, #0x0
ffff000000088d00:	540000a0 	b.eq	ffff000000088d14 <validate_thread_stack+0x28>  // b.none
ffff000000088d04:	f9400fe0 	ldr	x0, [sp, #24]
ffff000000088d08:	f9400c00 	ldr	x0, [x0, #24]
ffff000000088d0c:	f100001f 	cmp	x0, #0x0
ffff000000088d10:	54000041 	b.ne	ffff000000088d18 <validate_thread_stack+0x2c>  // b.any
ffff000000088d14:	97ffffef 	bl	ffff000000088cd0 <panic_null_thread>
ffff000000088d18:	f9400fe0 	ldr	x0, [sp, #24]
ffff000000088d1c:	f9400000 	ldr	x0, [x0]
ffff000000088d20:	f9400fe1 	ldr	x1, [sp, #24]
ffff000000088d24:	f9400c21 	ldr	x1, [x1, #24]
ffff000000088d28:	eb01001f 	cmp	x0, x1
ffff000000088d2c:	540001a3 	b.cc	ffff000000088d60 <validate_thread_stack+0x74>  // b.lo, b.ul, b.last
ffff000000088d30:	f9400fe0 	ldr	x0, [sp, #24]
ffff000000088d34:	f9400001 	ldr	x1, [x0]
ffff000000088d38:	f9400fe0 	ldr	x0, [sp, #24]
ffff000000088d3c:	f9400c00 	ldr	x0, [x0, #24]
ffff000000088d40:	91401000 	add	x0, x0, #0x4, lsl #12
ffff000000088d44:	eb00003f 	cmp	x1, x0
ffff000000088d48:	540000c2 	b.cs	ffff000000088d60 <validate_thread_stack+0x74>  // b.hs, b.nlast
ffff000000088d4c:	f9400fe0 	ldr	x0, [sp, #24]
ffff000000088d50:	f9400000 	ldr	x0, [x0]
ffff000000088d54:	92400c00 	and	x0, x0, #0xf
ffff000000088d58:	f100001f 	cmp	x0, #0x0
ffff000000088d5c:	540001e0 	b.eq	ffff000000088d98 <validate_thread_stack+0xac>  // b.none
ffff000000088d60:	90000040 	adrp	x0, ffff000000090000 <pool_slots+0x6f0>
ffff000000088d64:	912da000 	add	x0, x0, #0xb68
ffff000000088d68:	97fff825 	bl	ffff000000086dfc <uart_write_str_raw>
ffff000000088d6c:	f9400fe0 	ldr	x0, [sp, #24]
ffff000000088d70:	b9400800 	ldr	w0, [x0, #8]
ffff000000088d74:	97fff845 	bl	ffff000000086e88 <uart_write_uint_raw>
ffff000000088d78:	90000040 	adrp	x0, ffff000000090000 <pool_slots+0x6f0>
ffff000000088d7c:	912de000 	add	x0, x0, #0xb78
ffff000000088d80:	97fff81f 	bl	ffff000000086dfc <uart_write_str_raw>
ffff000000088d84:	f9400fe0 	ldr	x0, [sp, #24]
ffff000000088d88:	f9400000 	ldr	x0, [x0]
ffff000000088d8c:	97fff84b 	bl	ffff000000086eb8 <uart_write_hex_raw>
ffff000000088d90:	97ffffc9 	bl	ffff000000088cb4 <panic_invalid_sp>
ffff000000088d94:	97ffff93 	bl	ffff000000088be0 <ready_queue_dump>
ffff000000088d98:	d503201f 	nop
ffff000000088d9c:	a8c27bfd 	ldp	x29, x30, [sp], #32
ffff000000088da0:	d65f03c0 	ret

ffff000000088da4 <validate_ready_queue>:
ffff000000088da4:	a9bc7bfd 	stp	x29, x30, [sp, #-64]!
ffff000000088da8:	910003fd 	mov	x29, sp
ffff000000088dac:	f9000bf3 	str	x19, [sp, #16]
ffff000000088db0:	b9003fff 	str	wzr, [sp, #60]
ffff000000088db4:	14000085 	b	ffff000000088fc8 <validate_ready_queue+0x224>
ffff000000088db8:	f0000040 	adrp	x0, ffff000000093000 <task_pool+0x6f8>
ffff000000088dbc:	9112c000 	add	x0, x0, #0x4b0
ffff000000088dc0:	b9803fe1 	ldrsw	x1, [sp, #60]
ffff000000088dc4:	f8617800 	ldr	x0, [x0, x1, lsl #3]
ffff000000088dc8:	f9001be0 	str	x0, [sp, #48]
ffff000000088dcc:	b9002fff 	str	wzr, [sp, #44]
ffff000000088dd0:	14000078 	b	ffff000000088fb0 <validate_ready_queue+0x20c>
ffff000000088dd4:	f9401be0 	ldr	x0, [sp, #48]
ffff000000088dd8:	f9401c00 	ldr	x0, [x0, #56]
ffff000000088ddc:	f9401be1 	ldr	x1, [sp, #48]
ffff000000088de0:	eb00003f 	cmp	x1, x0
ffff000000088de4:	540001a1 	b.ne	ffff000000088e18 <validate_ready_queue+0x74>  // b.any
ffff000000088de8:	90000040 	adrp	x0, ffff000000090000 <pool_slots+0x6f0>
ffff000000088dec:	912e4000 	add	x0, x0, #0xb90
ffff000000088df0:	97fff803 	bl	ffff000000086dfc <uart_write_str_raw>
ffff000000088df4:	b9403fe0 	ldr	w0, [sp, #60]
ffff000000088df8:	97fff818 	bl	ffff000000086e58 <uart_write_int_raw>
ffff000000088dfc:	90000040 	adrp	x0, ffff000000090000 <pool_slots+0x6f0>
ffff000000088e00:	912f4000 	add	x0, x0, #0xbd0
ffff000000088e04:	97fff7fe 	bl	ffff000000086dfc <uart_write_str_raw>
ffff000000088e08:	f9401be0 	ldr	x0, [sp, #48]
ffff000000088e0c:	b9400800 	ldr	w0, [x0, #8]
ffff000000088e10:	97fff812 	bl	ffff000000086e58 <uart_write_int_raw>
ffff000000088e14:	14000000 	b	ffff000000088e14 <validate_ready_queue+0x70>
ffff000000088e18:	f9401be0 	ldr	x0, [sp, #48]
ffff000000088e1c:	f9400001 	ldr	x1, [x0]
ffff000000088e20:	b2506fe0 	mov	x0, #0xffff000000000fff    	// #-281474976706561
ffff000000088e24:	eb00003f 	cmp	x1, x0
ffff000000088e28:	540006c9 	b.ls	ffff000000088f00 <validate_ready_queue+0x15c>  // b.plast
ffff000000088e2c:	f9401be0 	ldr	x0, [sp, #48]
ffff000000088e30:	f9400001 	ldr	x1, [x0]
ffff000000088e34:	d291ffe0 	mov	x0, #0x8fff                	// #36863
ffff000000088e38:	f2a000a0 	movk	x0, #0x5, lsl #16
ffff000000088e3c:	f2ffffe0 	movk	x0, #0xffff, lsl #48
ffff000000088e40:	eb00003f 	cmp	x1, x0
ffff000000088e44:	540000e9 	b.ls	ffff000000088e60 <validate_ready_queue+0xbc>  // b.plast
ffff000000088e48:	f9401be0 	ldr	x0, [sp, #48]
ffff000000088e4c:	f9400013 	ldr	x19, [x0]
ffff000000088e50:	97fffc46 	bl	ffff000000087f68 <get_startup_current_ptr>
ffff000000088e54:	b2503c00 	orr	x0, x0, #0xffff000000000000
ffff000000088e58:	eb00027f 	cmp	x19, x0
ffff000000088e5c:	54000523 	b.cc	ffff000000088f00 <validate_ready_queue+0x15c>  // b.lo, b.ul, b.last
ffff000000088e60:	f9401be0 	ldr	x0, [sp, #48]
ffff000000088e64:	f9400001 	ldr	x1, [x0]
ffff000000088e68:	d0000040 	adrp	x0, ffff000000092000 <pool_slots+0xe38>
ffff000000088e6c:	f9440000 	ldr	x0, [x0, #2048]
ffff000000088e70:	f9400000 	ldr	x0, [x0]
ffff000000088e74:	b2503c00 	orr	x0, x0, #0xffff000000000000
ffff000000088e78:	eb00003f 	cmp	x1, x0
ffff000000088e7c:	54000123 	b.cc	ffff000000088ea0 <validate_ready_queue+0xfc>  // b.lo, b.ul, b.last
ffff000000088e80:	f9401be0 	ldr	x0, [sp, #48]
ffff000000088e84:	f9400001 	ldr	x1, [x0]
ffff000000088e88:	d0000040 	adrp	x0, ffff000000092000 <pool_slots+0xe38>
ffff000000088e8c:	f943d800 	ldr	x0, [x0, #1968]
ffff000000088e90:	f9400000 	ldr	x0, [x0]
ffff000000088e94:	b2503c00 	orr	x0, x0, #0xffff000000000000
ffff000000088e98:	eb00003f 	cmp	x1, x0
ffff000000088e9c:	54000323 	b.cc	ffff000000088f00 <validate_ready_queue+0x15c>  // b.lo, b.ul, b.last
ffff000000088ea0:	f9401be0 	ldr	x0, [sp, #48]
ffff000000088ea4:	f9400001 	ldr	x1, [x0]
ffff000000088ea8:	d0000040 	adrp	x0, ffff000000092000 <pool_slots+0xe38>
ffff000000088eac:	f943c400 	ldr	x0, [x0, #1928]
ffff000000088eb0:	b9400000 	ldr	w0, [x0]
ffff000000088eb4:	2a0003e0 	mov	w0, w0
ffff000000088eb8:	b2503c00 	orr	x0, x0, #0xffff000000000000
ffff000000088ebc:	eb00003f 	cmp	x1, x0
ffff000000088ec0:	54000143 	b.cc	ffff000000088ee8 <validate_ready_queue+0x144>  // b.lo, b.ul, b.last
ffff000000088ec4:	f9401be0 	ldr	x0, [sp, #48]
ffff000000088ec8:	f9400001 	ldr	x1, [x0]
ffff000000088ecc:	d0000040 	adrp	x0, ffff000000092000 <pool_slots+0xe38>
ffff000000088ed0:	f943f400 	ldr	x0, [x0, #2024]
ffff000000088ed4:	b9400000 	ldr	w0, [x0]
ffff000000088ed8:	2a0003e0 	mov	w0, w0
ffff000000088edc:	b2503c00 	orr	x0, x0, #0xffff000000000000
ffff000000088ee0:	eb00003f 	cmp	x1, x0
ffff000000088ee4:	540000e3 	b.cc	ffff000000088f00 <validate_ready_queue+0x15c>  // b.lo, b.ul, b.last
ffff000000088ee8:	f9401be0 	ldr	x0, [sp, #48]
ffff000000088eec:	f9400001 	ldr	x1, [x0]
ffff000000088ef0:	d2a78000 	mov	x0, #0x3c000000            	// #1006632960
ffff000000088ef4:	f2ffffe0 	movk	x0, #0xffff, lsl #48
ffff000000088ef8:	eb00003f 	cmp	x1, x0
ffff000000088efc:	54000189 	b.ls	ffff000000088f2c <validate_ready_queue+0x188>  // b.plast
ffff000000088f00:	90000040 	adrp	x0, ffff000000090000 <pool_slots+0x6f0>
ffff000000088f04:	912f6000 	add	x0, x0, #0xbd8
ffff000000088f08:	97fff7bd 	bl	ffff000000086dfc <uart_write_str_raw>
ffff000000088f0c:	f9401be0 	ldr	x0, [sp, #48]
ffff000000088f10:	97fff7ea 	bl	ffff000000086eb8 <uart_write_hex_raw>
ffff000000088f14:	90000040 	adrp	x0, ffff000000090000 <pool_slots+0x6f0>
ffff000000088f18:	91304000 	add	x0, x0, #0xc10
ffff000000088f1c:	97fff7b8 	bl	ffff000000086dfc <uart_write_str_raw>
ffff000000088f20:	b9403fe0 	ldr	w0, [sp, #60]
ffff000000088f24:	97fff7cd 	bl	ffff000000086e58 <uart_write_int_raw>
ffff000000088f28:	14000000 	b	ffff000000088f28 <validate_ready_queue+0x184>
ffff000000088f2c:	f9401be0 	ldr	x0, [sp, #48]
ffff000000088f30:	f9400c00 	ldr	x0, [x0, #24]
ffff000000088f34:	f100001f 	cmp	x0, #0x0
ffff000000088f38:	54000120 	b.eq	ffff000000088f5c <validate_ready_queue+0x1b8>  // b.none
ffff000000088f3c:	f9401be0 	ldr	x0, [sp, #48]
ffff000000088f40:	b9400800 	ldr	w0, [x0, #8]
ffff000000088f44:	7100001f 	cmp	w0, #0x0
ffff000000088f48:	540000a0 	b.eq	ffff000000088f5c <validate_ready_queue+0x1b8>  // b.none
ffff000000088f4c:	f9401be0 	ldr	x0, [sp, #48]
ffff000000088f50:	b9401000 	ldr	w0, [x0, #16]
ffff000000088f54:	71007c1f 	cmp	w0, #0x1f
ffff000000088f58:	540000ed 	b.le	ffff000000088f74 <validate_ready_queue+0x1d0>
ffff000000088f5c:	90000040 	adrp	x0, ffff000000090000 <pool_slots+0x6f0>
ffff000000088f60:	91308000 	add	x0, x0, #0xc20
ffff000000088f64:	97fff7a6 	bl	ffff000000086dfc <uart_write_str_raw>
ffff000000088f68:	b9403fe0 	ldr	w0, [sp, #60]
ffff000000088f6c:	97fff7bb 	bl	ffff000000086e58 <uart_write_int_raw>
ffff000000088f70:	14000000 	b	ffff000000088f70 <validate_ready_queue+0x1cc>
ffff000000088f74:	f9401be0 	ldr	x0, [sp, #48]
ffff000000088f78:	f9401c00 	ldr	x0, [x0, #56]
ffff000000088f7c:	f9001be0 	str	x0, [sp, #48]
ffff000000088f80:	b9402fe0 	ldr	w0, [sp, #44]
ffff000000088f84:	11000400 	add	w0, w0, #0x1
ffff000000088f88:	b9002fe0 	str	w0, [sp, #44]
ffff000000088f8c:	b9402fe0 	ldr	w0, [sp, #44]
ffff000000088f90:	710fa01f 	cmp	w0, #0x3e8
ffff000000088f94:	540000ed 	b.le	ffff000000088fb0 <validate_ready_queue+0x20c>
ffff000000088f98:	90000040 	adrp	x0, ffff000000090000 <pool_slots+0x6f0>
ffff000000088f9c:	9131a000 	add	x0, x0, #0xc68
ffff000000088fa0:	97fff797 	bl	ffff000000086dfc <uart_write_str_raw>
ffff000000088fa4:	b9403fe0 	ldr	w0, [sp, #60]
ffff000000088fa8:	97fff7ac 	bl	ffff000000086e58 <uart_write_int_raw>
ffff000000088fac:	14000000 	b	ffff000000088fac <validate_ready_queue+0x208>
ffff000000088fb0:	f9401be0 	ldr	x0, [sp, #48]
ffff000000088fb4:	f100001f 	cmp	x0, #0x0
ffff000000088fb8:	54fff0e1 	b.ne	ffff000000088dd4 <validate_ready_queue+0x30>  // b.any
ffff000000088fbc:	b9403fe0 	ldr	w0, [sp, #60]
ffff000000088fc0:	11000400 	add	w0, w0, #0x1
ffff000000088fc4:	b9003fe0 	str	w0, [sp, #60]
ffff000000088fc8:	b9403fe0 	ldr	w0, [sp, #60]
ffff000000088fcc:	71007c1f 	cmp	w0, #0x1f
ffff000000088fd0:	54ffef4d 	b.le	ffff000000088db8 <validate_ready_queue+0x14>
ffff000000088fd4:	d503201f 	nop
ffff000000088fd8:	d503201f 	nop
ffff000000088fdc:	f9400bf3 	ldr	x19, [sp, #16]
ffff000000088fe0:	a8c47bfd 	ldp	x29, x30, [sp], #64
ffff000000088fe4:	d65f03c0 	ret

ffff000000088fe8 <thread_create>:
ffff000000088fe8:	a9bb7bfd 	stp	x29, x30, [sp, #-80]!
ffff000000088fec:	910003fd 	mov	x29, sp
ffff000000088ff0:	f90017e0 	str	x0, [sp, #40]
ffff000000088ff4:	b90027e1 	str	w1, [sp, #36]
ffff000000088ff8:	b90023e2 	str	w2, [sp, #32]
ffff000000088ffc:	f9000fe3 	str	x3, [sp, #24]
ffff000000089000:	f0000020 	adrp	x0, ffff000000090000 <pool_slots+0x6f0>
ffff000000089004:	9132a000 	add	x0, x0, #0xca8
ffff000000089008:	97fff77d 	bl	ffff000000086dfc <uart_write_str_raw>
ffff00000008900c:	d2803f00 	mov	x0, #0x1f8                 	// #504
ffff000000089010:	97fff0b1 	bl	ffff0000000852d4 <kmalloc>
ffff000000089014:	f90023e0 	str	x0, [sp, #64]
ffff000000089018:	d2880000 	mov	x0, #0x4000                	// #16384
ffff00000008901c:	97fff0ae 	bl	ffff0000000852d4 <kmalloc>
ffff000000089020:	f9001fe0 	str	x0, [sp, #56]
ffff000000089024:	f94023e0 	ldr	x0, [sp, #64]
ffff000000089028:	f100001f 	cmp	x0, #0x0
ffff00000008902c:	54000080 	b.eq	ffff00000008903c <thread_create+0x54>  // b.none
ffff000000089030:	f9401fe0 	ldr	x0, [sp, #56]
ffff000000089034:	f100001f 	cmp	x0, #0x0
ffff000000089038:	54000061 	b.ne	ffff000000089044 <thread_create+0x5c>  // b.any
ffff00000008903c:	d2800000 	mov	x0, #0x0                   	// #0
ffff000000089040:	140000cd 	b	ffff000000089374 <thread_create+0x38c>
ffff000000089044:	d2803f02 	mov	x2, #0x1f8                 	// #504
ffff000000089048:	52800001 	mov	w1, #0x0                   	// #0
ffff00000008904c:	f94023e0 	ldr	x0, [sp, #64]
ffff000000089050:	940006f2 	bl	ffff00000008ac18 <memset>
ffff000000089054:	d2880002 	mov	x2, #0x4000                	// #16384
ffff000000089058:	52800001 	mov	w1, #0x0                   	// #0
ffff00000008905c:	f9401fe0 	ldr	x0, [sp, #56]
ffff000000089060:	940006ee 	bl	ffff00000008ac18 <memset>
ffff000000089064:	97fffe2c 	bl	ffff000000088914 <disable_interrupt>
ffff000000089068:	b0000040 	adrp	x0, ffff000000092000 <pool_slots+0xe38>
ffff00000008906c:	911cf000 	add	x0, x0, #0x73c
ffff000000089070:	b9400000 	ldr	w0, [x0]
ffff000000089074:	11000402 	add	w2, w0, #0x1
ffff000000089078:	b0000041 	adrp	x1, ffff000000092000 <pool_slots+0xe38>
ffff00000008907c:	911cf021 	add	x1, x1, #0x73c
ffff000000089080:	b9000022 	str	w2, [x1]
ffff000000089084:	f94023e1 	ldr	x1, [sp, #64]
ffff000000089088:	b9000820 	str	w0, [x1, #8]
ffff00000008908c:	97fffe1f 	bl	ffff000000088908 <enable_interrupt>
ffff000000089090:	f94023e0 	ldr	x0, [sp, #64]
ffff000000089094:	b94027e1 	ldr	w1, [sp, #36]
ffff000000089098:	b9001001 	str	w1, [x0, #16]
ffff00000008909c:	f94023e0 	ldr	x0, [sp, #64]
ffff0000000890a0:	b9000c1f 	str	wzr, [x0, #12]
ffff0000000890a4:	f94023e0 	ldr	x0, [sp, #64]
ffff0000000890a8:	f9001c1f 	str	xzr, [x0, #56]
ffff0000000890ac:	f94023e0 	ldr	x0, [sp, #64]
ffff0000000890b0:	b94023e1 	ldr	w1, [sp, #32]
ffff0000000890b4:	b9003001 	str	w1, [x0, #48]
ffff0000000890b8:	f9401fe1 	ldr	x1, [sp, #56]
ffff0000000890bc:	d287fe00 	mov	x0, #0x3ff0                	// #16368
ffff0000000890c0:	8b000020 	add	x0, x1, x0
ffff0000000890c4:	f9001be0 	str	x0, [sp, #48]
ffff0000000890c8:	f9401be0 	ldr	x0, [sp, #48]
ffff0000000890cc:	d1048000 	sub	x0, x0, #0x120
ffff0000000890d0:	f9001be0 	str	x0, [sp, #48]
ffff0000000890d4:	d2802202 	mov	x2, #0x110                 	// #272
ffff0000000890d8:	52800001 	mov	w1, #0x0                   	// #0
ffff0000000890dc:	f9401be0 	ldr	x0, [sp, #48]
ffff0000000890e0:	940006ce 	bl	ffff00000008ac18 <memset>
ffff0000000890e4:	b94023e0 	ldr	w0, [sp, #32]
ffff0000000890e8:	7100001f 	cmp	w0, #0x0
ffff0000000890ec:	54000061 	b.ne	ffff0000000890f8 <thread_create+0x110>  // b.any
ffff0000000890f0:	f94017e0 	ldr	x0, [sp, #40]
ffff0000000890f4:	14000002 	b	ffff0000000890fc <thread_create+0x114>
ffff0000000890f8:	d2800000 	mov	x0, #0x0                   	// #0
ffff0000000890fc:	f9401be1 	ldr	x1, [sp, #48]
ffff000000089100:	9103c021 	add	x1, x1, #0xf0
ffff000000089104:	f9000020 	str	x0, [x1]
ffff000000089108:	f9401be0 	ldr	x0, [sp, #48]
ffff00000008910c:	9103e000 	add	x0, x0, #0xf8
ffff000000089110:	f900001f 	str	xzr, [x0]
ffff000000089114:	b94023e0 	ldr	w0, [sp, #32]
ffff000000089118:	7100001f 	cmp	w0, #0x0
ffff00000008911c:	54000060 	b.eq	ffff000000089128 <thread_create+0x140>  // b.none
ffff000000089120:	d2806800 	mov	x0, #0x340                 	// #832
ffff000000089124:	14000002 	b	ffff00000008912c <thread_create+0x144>
ffff000000089128:	d28068a0 	mov	x0, #0x345                 	// #837
ffff00000008912c:	f9401be1 	ldr	x1, [sp, #48]
ffff000000089130:	91040021 	add	x1, x1, #0x100
ffff000000089134:	f9000020 	str	x0, [x1]
ffff000000089138:	b94023e0 	ldr	w0, [sp, #32]
ffff00000008913c:	7100001f 	cmp	w0, #0x0
ffff000000089140:	54000061 	b.ne	ffff00000008914c <thread_create+0x164>  // b.any
ffff000000089144:	f94017e0 	ldr	x0, [sp, #40]
ffff000000089148:	14000002 	b	ffff000000089150 <thread_create+0x168>
ffff00000008914c:	d2800000 	mov	x0, #0x0                   	// #0
ffff000000089150:	f9401be1 	ldr	x1, [sp, #48]
ffff000000089154:	91042021 	add	x1, x1, #0x108
ffff000000089158:	f9000020 	str	x0, [x1]
ffff00000008915c:	b94023e0 	ldr	w0, [sp, #32]
ffff000000089160:	7100001f 	cmp	w0, #0x0
ffff000000089164:	1a9f07e0 	cset	w0, ne  // ne = any
ffff000000089168:	12001c01 	and	w1, w0, #0xff
ffff00000008916c:	f9401be0 	ldr	x0, [sp, #48]
ffff000000089170:	91046000 	add	x0, x0, #0x118
ffff000000089174:	92401c21 	and	x1, x1, #0xff
ffff000000089178:	f9000001 	str	x1, [x0]
ffff00000008917c:	f9401be1 	ldr	x1, [sp, #48]
ffff000000089180:	f94023e0 	ldr	x0, [sp, #64]
ffff000000089184:	f9000001 	str	x1, [x0]
ffff000000089188:	f94023e0 	ldr	x0, [sp, #64]
ffff00000008918c:	f9401fe1 	ldr	x1, [sp, #56]
ffff000000089190:	f9000c01 	str	x1, [x0, #24]
ffff000000089194:	b94023e0 	ldr	w0, [sp, #32]
ffff000000089198:	7100041f 	cmp	w0, #0x1
ffff00000008919c:	54000221 	b.ne	ffff0000000891e0 <thread_create+0x1f8>  // b.any
ffff0000000891a0:	f9400fe1 	ldr	x1, [sp, #24]
ffff0000000891a4:	f94023e0 	ldr	x0, [sp, #64]
ffff0000000891a8:	97ffe241 	bl	ffff000000081aac <cpio_exec_user_program_to_thread>
ffff0000000891ac:	7100001f 	cmp	w0, #0x0
ffff0000000891b0:	540000ca 	b.ge	ffff0000000891c8 <thread_create+0x1e0>  // b.tcont
ffff0000000891b4:	f0000020 	adrp	x0, ffff000000090000 <pool_slots+0x6f0>
ffff0000000891b8:	9133a000 	add	x0, x0, #0xce8
ffff0000000891bc:	97fff710 	bl	ffff000000086dfc <uart_write_str_raw>
ffff0000000891c0:	d2800000 	mov	x0, #0x0                   	// #0
ffff0000000891c4:	1400006c 	b	ffff000000089374 <thread_create+0x38c>
ffff0000000891c8:	f9401be0 	ldr	x0, [sp, #48]
ffff0000000891cc:	91044000 	add	x0, x0, #0x110
ffff0000000891d0:	f94023e1 	ldr	x1, [sp, #64]
ffff0000000891d4:	f9401421 	ldr	x1, [x1, #40]
ffff0000000891d8:	f9000001 	str	x1, [x0]
ffff0000000891dc:	1400000a 	b	ffff000000089204 <thread_create+0x21c>
ffff0000000891e0:	f9401be0 	ldr	x0, [sp, #48]
ffff0000000891e4:	91044000 	add	x0, x0, #0x110
ffff0000000891e8:	f900001f 	str	xzr, [x0]
ffff0000000891ec:	f94023e0 	ldr	x0, [sp, #64]
ffff0000000891f0:	f900141f 	str	xzr, [x0, #40]
ffff0000000891f4:	f94023e0 	ldr	x0, [sp, #64]
ffff0000000891f8:	f900101f 	str	xzr, [x0, #32]
ffff0000000891fc:	f94023e0 	ldr	x0, [sp, #64]
ffff000000089200:	f900f81f 	str	xzr, [x0, #496]
ffff000000089204:	f0000020 	adrp	x0, ffff000000090000 <pool_slots+0x6f0>
ffff000000089208:	91346000 	add	x0, x0, #0xd18
ffff00000008920c:	97fff6fc 	bl	ffff000000086dfc <uart_write_str_raw>
ffff000000089210:	b0000040 	adrp	x0, ffff000000092000 <pool_slots+0xe38>
ffff000000089214:	911cf000 	add	x0, x0, #0x73c
ffff000000089218:	b9400000 	ldr	w0, [x0]
ffff00000008921c:	51000400 	sub	w0, w0, #0x1
ffff000000089220:	97fff70e 	bl	ffff000000086e58 <uart_write_int_raw>
ffff000000089224:	f0000020 	adrp	x0, ffff000000090000 <pool_slots+0x6f0>
ffff000000089228:	9134e000 	add	x0, x0, #0xd38
ffff00000008922c:	97fff6f4 	bl	ffff000000086dfc <uart_write_str_raw>
ffff000000089230:	b94027e0 	ldr	w0, [sp, #36]
ffff000000089234:	97fff709 	bl	ffff000000086e58 <uart_write_int_raw>
ffff000000089238:	f0000020 	adrp	x0, ffff000000090000 <pool_slots+0x6f0>
ffff00000008923c:	91352000 	add	x0, x0, #0xd48
ffff000000089240:	97fff6ef 	bl	ffff000000086dfc <uart_write_str_raw>
ffff000000089244:	f94017e0 	ldr	x0, [sp, #40]
ffff000000089248:	97fff71c 	bl	ffff000000086eb8 <uart_write_hex_raw>
ffff00000008924c:	f0000020 	adrp	x0, ffff000000090000 <pool_slots+0x6f0>
ffff000000089250:	91354000 	add	x0, x0, #0xd50
ffff000000089254:	97fff6ea 	bl	ffff000000086dfc <uart_write_str_raw>
ffff000000089258:	f9401be0 	ldr	x0, [sp, #48]
ffff00000008925c:	97fff717 	bl	ffff000000086eb8 <uart_write_hex_raw>
ffff000000089260:	f0000020 	adrp	x0, ffff000000090000 <pool_slots+0x6f0>
ffff000000089264:	91356000 	add	x0, x0, #0xd58
ffff000000089268:	97fff6e5 	bl	ffff000000086dfc <uart_write_str_raw>
ffff00000008926c:	f9401fe0 	ldr	x0, [sp, #56]
ffff000000089270:	97fff712 	bl	ffff000000086eb8 <uart_write_hex_raw>
ffff000000089274:	b94023e0 	ldr	w0, [sp, #32]
ffff000000089278:	7100001f 	cmp	w0, #0x0
ffff00000008927c:	540001a0 	b.eq	ffff0000000892b0 <thread_create+0x2c8>  // b.none
ffff000000089280:	f0000020 	adrp	x0, ffff000000090000 <pool_slots+0x6f0>
ffff000000089284:	9135a000 	add	x0, x0, #0xd68
ffff000000089288:	97fff6dd 	bl	ffff000000086dfc <uart_write_str_raw>
ffff00000008928c:	f94023e0 	ldr	x0, [sp, #64]
ffff000000089290:	f9401000 	ldr	x0, [x0, #32]
ffff000000089294:	97fff709 	bl	ffff000000086eb8 <uart_write_hex_raw>
ffff000000089298:	f0000020 	adrp	x0, ffff000000090000 <pool_slots+0x6f0>
ffff00000008929c:	91360000 	add	x0, x0, #0xd80
ffff0000000892a0:	97fff6d7 	bl	ffff000000086dfc <uart_write_str_raw>
ffff0000000892a4:	f94023e0 	ldr	x0, [sp, #64]
ffff0000000892a8:	f9401400 	ldr	x0, [x0, #40]
ffff0000000892ac:	97fff703 	bl	ffff000000086eb8 <uart_write_hex_raw>
ffff0000000892b0:	f94023e0 	ldr	x0, [sp, #64]
ffff0000000892b4:	f940f800 	ldr	x0, [x0, #496]
ffff0000000892b8:	d2800001 	mov	x1, #0x0                   	// #0
ffff0000000892bc:	97fff997 	bl	ffff000000087918 <trace_va_mapping>
ffff0000000892c0:	f94023e0 	ldr	x0, [sp, #64]
ffff0000000892c4:	f940f800 	ldr	x0, [x0, #496]
ffff0000000892c8:	b27287e1 	mov	x1, #0xffffffffc000        	// #281474976694272
ffff0000000892cc:	97fff993 	bl	ffff000000087918 <trace_va_mapping>
ffff0000000892d0:	f94023e0 	ldr	x0, [sp, #64]
ffff0000000892d4:	f940f800 	ldr	x0, [x0, #496]
ffff0000000892d8:	1285ffe1 	mov	w1, #0xffffd000            	// #-12288
ffff0000000892dc:	f2dfffe1 	movk	x1, #0xffff, lsl #32
ffff0000000892e0:	97fff98e 	bl	ffff000000087918 <trace_va_mapping>
ffff0000000892e4:	f94023e0 	ldr	x0, [sp, #64]
ffff0000000892e8:	f940f800 	ldr	x0, [x0, #496]
ffff0000000892ec:	b2738be1 	mov	x1, #0xffffffffe000        	// #281474976702464
ffff0000000892f0:	97fff98a 	bl	ffff000000087918 <trace_va_mapping>
ffff0000000892f4:	f94023e0 	ldr	x0, [sp, #64]
ffff0000000892f8:	f940f800 	ldr	x0, [x0, #496]
ffff0000000892fc:	b2748fe1 	mov	x1, #0xfffffffff000        	// #281474976706560
ffff000000089300:	97fff986 	bl	ffff000000087918 <trace_va_mapping>
ffff000000089304:	f94023e0 	ldr	x0, [sp, #64]
ffff000000089308:	f940f800 	ldr	x0, [x0, #496]
ffff00000008930c:	d2804b61 	mov	x1, #0x25b                 	// #603
ffff000000089310:	f2a28001 	movk	x1, #0x1400, lsl #16
ffff000000089314:	f2c04b41 	movk	x1, #0x25a, lsl #32
ffff000000089318:	f2e28001 	movk	x1, #0x1400, lsl #48
ffff00000008931c:	97fff97f 	bl	ffff000000087918 <trace_va_mapping>
ffff000000089320:	97fffd7d 	bl	ffff000000088914 <disable_interrupt>
ffff000000089324:	b98027e0 	ldrsw	x0, [sp, #36]
ffff000000089328:	d37df001 	lsl	x1, x0, #3
ffff00000008932c:	d0000040 	adrp	x0, ffff000000093000 <task_pool+0x6f8>
ffff000000089330:	9112c000 	add	x0, x0, #0x4b0
ffff000000089334:	8b000020 	add	x0, x1, x0
ffff000000089338:	f90027e0 	str	x0, [sp, #72]
ffff00000008933c:	14000005 	b	ffff000000089350 <thread_create+0x368>
ffff000000089340:	f94027e0 	ldr	x0, [sp, #72]
ffff000000089344:	f9400000 	ldr	x0, [x0]
ffff000000089348:	9100e000 	add	x0, x0, #0x38
ffff00000008934c:	f90027e0 	str	x0, [sp, #72]
ffff000000089350:	f94027e0 	ldr	x0, [sp, #72]
ffff000000089354:	f9400000 	ldr	x0, [x0]
ffff000000089358:	f100001f 	cmp	x0, #0x0
ffff00000008935c:	54ffff21 	b.ne	ffff000000089340 <thread_create+0x358>  // b.any
ffff000000089360:	f94027e0 	ldr	x0, [sp, #72]
ffff000000089364:	f94023e1 	ldr	x1, [sp, #64]
ffff000000089368:	f9000001 	str	x1, [x0]
ffff00000008936c:	97fffd67 	bl	ffff000000088908 <enable_interrupt>
ffff000000089370:	f94023e0 	ldr	x0, [sp, #64]
ffff000000089374:	a8c57bfd 	ldp	x29, x30, [sp], #80
ffff000000089378:	d65f03c0 	ret

ffff00000008937c <uart_write_hex_byte_raw>:
ffff00000008937c:	a9bc7bfd 	stp	x29, x30, [sp, #-64]!
ffff000000089380:	910003fd 	mov	x29, sp
ffff000000089384:	39007fe0 	strb	w0, [sp, #31]
ffff000000089388:	f0000020 	adrp	x0, ffff000000090000 <pool_slots+0x6f0>
ffff00000008938c:	91364000 	add	x0, x0, #0xd90
ffff000000089390:	9100a3e2 	add	x2, sp, #0x28
ffff000000089394:	aa0003e3 	mov	x3, x0
ffff000000089398:	a9400460 	ldp	x0, x1, [x3]
ffff00000008939c:	a9000440 	stp	x0, x1, [x2]
ffff0000000893a0:	39404060 	ldrb	w0, [x3, #16]
ffff0000000893a4:	39004040 	strb	w0, [x2, #16]
ffff0000000893a8:	39407fe0 	ldrb	w0, [sp, #31]
ffff0000000893ac:	53047c00 	lsr	w0, w0, #4
ffff0000000893b0:	12001c00 	and	w0, w0, #0xff
ffff0000000893b4:	12000c00 	and	w0, w0, #0xf
ffff0000000893b8:	93407c00 	sxtw	x0, w0
ffff0000000893bc:	9100a3e1 	add	x1, sp, #0x28
ffff0000000893c0:	38606820 	ldrb	w0, [x1, x0]
ffff0000000893c4:	97fff67b 	bl	ffff000000086db0 <uart_write_char_raw>
ffff0000000893c8:	39407fe0 	ldrb	w0, [sp, #31]
ffff0000000893cc:	12000c00 	and	w0, w0, #0xf
ffff0000000893d0:	93407c00 	sxtw	x0, w0
ffff0000000893d4:	9100a3e1 	add	x1, sp, #0x28
ffff0000000893d8:	38606820 	ldrb	w0, [x1, x0]
ffff0000000893dc:	97fff675 	bl	ffff000000086db0 <uart_write_char_raw>
ffff0000000893e0:	d503201f 	nop
ffff0000000893e4:	a8c47bfd 	ldp	x29, x30, [sp], #64
ffff0000000893e8:	d65f03c0 	ret

ffff0000000893ec <thread_fork>:
ffff0000000893ec:	a9b97bfd 	stp	x29, x30, [sp, #-112]!
ffff0000000893f0:	910003fd 	mov	x29, sp
ffff0000000893f4:	97fffd48 	bl	ffff000000088914 <disable_interrupt>
ffff0000000893f8:	94001213 	bl	ffff00000008dc44 <get_current>
ffff0000000893fc:	f9002fe0 	str	x0, [sp, #88]
ffff000000089400:	d2803f00 	mov	x0, #0x1f8                 	// #504
ffff000000089404:	97ffefb4 	bl	ffff0000000852d4 <kmalloc>
ffff000000089408:	f9002be0 	str	x0, [sp, #80]
ffff00000008940c:	d2880000 	mov	x0, #0x4000                	// #16384
ffff000000089410:	97ffefb1 	bl	ffff0000000852d4 <kmalloc>
ffff000000089414:	f90027e0 	str	x0, [sp, #72]
ffff000000089418:	f9402be0 	ldr	x0, [sp, #80]
ffff00000008941c:	f100001f 	cmp	x0, #0x0
ffff000000089420:	54000080 	b.eq	ffff000000089430 <thread_fork+0x44>  // b.none
ffff000000089424:	f94027e0 	ldr	x0, [sp, #72]
ffff000000089428:	f100001f 	cmp	x0, #0x0
ffff00000008942c:	54000061 	b.ne	ffff000000089438 <thread_fork+0x4c>  // b.any
ffff000000089430:	12800000 	mov	w0, #0xffffffff            	// #-1
ffff000000089434:	140000c2 	b	ffff00000008973c <thread_fork+0x350>
ffff000000089438:	d2803f02 	mov	x2, #0x1f8                 	// #504
ffff00000008943c:	52800001 	mov	w1, #0x0                   	// #0
ffff000000089440:	f9402be0 	ldr	x0, [sp, #80]
ffff000000089444:	940005f5 	bl	ffff00000008ac18 <memset>
ffff000000089448:	d2880002 	mov	x2, #0x4000                	// #16384
ffff00000008944c:	52800001 	mov	w1, #0x0                   	// #0
ffff000000089450:	f94027e0 	ldr	x0, [sp, #72]
ffff000000089454:	940005f1 	bl	ffff00000008ac18 <memset>
ffff000000089458:	b0000040 	adrp	x0, ffff000000092000 <pool_slots+0xe38>
ffff00000008945c:	911cf000 	add	x0, x0, #0x73c
ffff000000089460:	b9400000 	ldr	w0, [x0]
ffff000000089464:	11000402 	add	w2, w0, #0x1
ffff000000089468:	b0000041 	adrp	x1, ffff000000092000 <pool_slots+0xe38>
ffff00000008946c:	911cf021 	add	x1, x1, #0x73c
ffff000000089470:	b9000022 	str	w2, [x1]
ffff000000089474:	f9402be1 	ldr	x1, [sp, #80]
ffff000000089478:	b9000820 	str	w0, [x1, #8]
ffff00000008947c:	f9402be0 	ldr	x0, [sp, #80]
ffff000000089480:	b9000c1f 	str	wzr, [x0, #12]
ffff000000089484:	f9402fe0 	ldr	x0, [sp, #88]
ffff000000089488:	b9401001 	ldr	w1, [x0, #16]
ffff00000008948c:	f9402be0 	ldr	x0, [sp, #80]
ffff000000089490:	b9001001 	str	w1, [x0, #16]
ffff000000089494:	f9402be0 	ldr	x0, [sp, #80]
ffff000000089498:	f94027e1 	ldr	x1, [sp, #72]
ffff00000008949c:	f9000c01 	str	x1, [x0, #24]
ffff0000000894a0:	f9402fe0 	ldr	x0, [sp, #88]
ffff0000000894a4:	b9403001 	ldr	w1, [x0, #48]
ffff0000000894a8:	f9402be0 	ldr	x0, [sp, #80]
ffff0000000894ac:	b9003001 	str	w1, [x0, #48]
ffff0000000894b0:	f9402be0 	ldr	x0, [sp, #80]
ffff0000000894b4:	f9001c1f 	str	xzr, [x0, #56]
ffff0000000894b8:	f9402fe0 	ldr	x0, [sp, #88]
ffff0000000894bc:	f940f800 	ldr	x0, [x0, #496]
ffff0000000894c0:	f90023e0 	str	x0, [sp, #64]
ffff0000000894c4:	f0000020 	adrp	x0, ffff000000090000 <pool_slots+0x6f0>
ffff0000000894c8:	9136a000 	add	x0, x0, #0xda8
ffff0000000894cc:	97fff64c 	bl	ffff000000086dfc <uart_write_str_raw>
ffff0000000894d0:	f94023e0 	ldr	x0, [sp, #64]
ffff0000000894d4:	97fff875 	bl	ffff0000000876a8 <copy_user_pagetable>
ffff0000000894d8:	f9001fe0 	str	x0, [sp, #56]
ffff0000000894dc:	f9401fe0 	ldr	x0, [sp, #56]
ffff0000000894e0:	f100001f 	cmp	x0, #0x0
ffff0000000894e4:	54000061 	b.ne	ffff0000000894f0 <thread_fork+0x104>  // b.any
ffff0000000894e8:	12800000 	mov	w0, #0xffffffff            	// #-1
ffff0000000894ec:	14000094 	b	ffff00000008973c <thread_fork+0x350>
ffff0000000894f0:	f9402be0 	ldr	x0, [sp, #80]
ffff0000000894f4:	f9401fe1 	ldr	x1, [sp, #56]
ffff0000000894f8:	f900f801 	str	x1, [x0, #496]
ffff0000000894fc:	b2748fe0 	mov	x0, #0xfffffffff000        	// #281474976706560
ffff000000089500:	f9001be0 	str	x0, [sp, #48]
ffff000000089504:	b9006fff 	str	wzr, [sp, #108]
ffff000000089508:	14000028 	b	ffff0000000895a8 <thread_fork+0x1bc>
ffff00000008950c:	b9406fe0 	ldr	w0, [sp, #108]
ffff000000089510:	53144c00 	lsl	w0, w0, #12
ffff000000089514:	93407c00 	sxtw	x0, w0
ffff000000089518:	f9401be1 	ldr	x1, [sp, #48]
ffff00000008951c:	cb000020 	sub	x0, x1, x0
ffff000000089520:	52800002 	mov	w2, #0x0                   	// #0
ffff000000089524:	aa0003e1 	mov	x1, x0
ffff000000089528:	f94023e0 	ldr	x0, [sp, #64]
ffff00000008952c:	97fff6cf 	bl	ffff000000087068 <walk>
ffff000000089530:	f9400000 	ldr	x0, [x0]
ffff000000089534:	92748c00 	and	x0, x0, #0xfffffffff000
ffff000000089538:	b2503c00 	orr	x0, x0, #0xffff000000000000
ffff00000008953c:	f9000fe0 	str	x0, [sp, #24]
ffff000000089540:	d2820000 	mov	x0, #0x1000                	// #4096
ffff000000089544:	97ffef64 	bl	ffff0000000852d4 <kmalloc>
ffff000000089548:	f9000be0 	str	x0, [sp, #16]
ffff00000008954c:	d2820002 	mov	x2, #0x1000                	// #4096
ffff000000089550:	52800001 	mov	w1, #0x0                   	// #0
ffff000000089554:	f9400be0 	ldr	x0, [sp, #16]
ffff000000089558:	940005b0 	bl	ffff00000008ac18 <memset>
ffff00000008955c:	d2820002 	mov	x2, #0x1000                	// #4096
ffff000000089560:	f9400fe1 	ldr	x1, [sp, #24]
ffff000000089564:	f9400be0 	ldr	x0, [sp, #16]
ffff000000089568:	940005c4 	bl	ffff00000008ac78 <simple_memcpy>
ffff00000008956c:	b9406fe0 	ldr	w0, [sp, #108]
ffff000000089570:	53144c00 	lsl	w0, w0, #12
ffff000000089574:	93407c00 	sxtw	x0, w0
ffff000000089578:	f9401be1 	ldr	x1, [sp, #48]
ffff00000008957c:	cb000021 	sub	x1, x1, x0
ffff000000089580:	f9400be0 	ldr	x0, [sp, #16]
ffff000000089584:	9240bc00 	and	x0, x0, #0xffffffffffff
ffff000000089588:	52800884 	mov	w4, #0x44                  	// #68
ffff00000008958c:	aa0003e3 	mov	x3, x0
ffff000000089590:	d2820002 	mov	x2, #0x1000                	// #4096
ffff000000089594:	f9401fe0 	ldr	x0, [sp, #56]
ffff000000089598:	97fff722 	bl	ffff000000087220 <mappages>
ffff00000008959c:	b9406fe0 	ldr	w0, [sp, #108]
ffff0000000895a0:	11000400 	add	w0, w0, #0x1
ffff0000000895a4:	b9006fe0 	str	w0, [sp, #108]
ffff0000000895a8:	b9406fe0 	ldr	w0, [sp, #108]
ffff0000000895ac:	71000c1f 	cmp	w0, #0x3
ffff0000000895b0:	54fffaed 	b.le	ffff00000008950c <thread_fork+0x120>
ffff0000000895b4:	f9402fe0 	ldr	x0, [sp, #88]
ffff0000000895b8:	f9401401 	ldr	x1, [x0, #40]
ffff0000000895bc:	f9401be0 	ldr	x0, [sp, #48]
ffff0000000895c0:	cb000020 	sub	x0, x1, x0
ffff0000000895c4:	91401000 	add	x0, x0, #0x4, lsl #12
ffff0000000895c8:	f90017e0 	str	x0, [sp, #40]
ffff0000000895cc:	f9401be0 	ldr	x0, [sp, #48]
ffff0000000895d0:	d1401000 	sub	x0, x0, #0x4, lsl #12
ffff0000000895d4:	aa0003e1 	mov	x1, x0
ffff0000000895d8:	f9402be0 	ldr	x0, [sp, #80]
ffff0000000895dc:	f9001001 	str	x1, [x0, #32]
ffff0000000895e0:	f9402be0 	ldr	x0, [sp, #80]
ffff0000000895e4:	f9401000 	ldr	x0, [x0, #32]
ffff0000000895e8:	aa0003e1 	mov	x1, x0
ffff0000000895ec:	f94017e0 	ldr	x0, [sp, #40]
ffff0000000895f0:	8b000021 	add	x1, x1, x0
ffff0000000895f4:	f9402be0 	ldr	x0, [sp, #80]
ffff0000000895f8:	f9001401 	str	x1, [x0, #40]
ffff0000000895fc:	f9402be0 	ldr	x0, [sp, #80]
ffff000000089600:	91010003 	add	x3, x0, #0x40
ffff000000089604:	f9402fe0 	ldr	x0, [sp, #88]
ffff000000089608:	91010000 	add	x0, x0, #0x40
ffff00000008960c:	d2803002 	mov	x2, #0x180                 	// #384
ffff000000089610:	aa0003e1 	mov	x1, x0
ffff000000089614:	aa0303e0 	mov	x0, x3
ffff000000089618:	94000598 	bl	ffff00000008ac78 <simple_memcpy>
ffff00000008961c:	f9402be0 	ldr	x0, [sp, #80]
ffff000000089620:	f900e01f 	str	xzr, [x0, #448]
ffff000000089624:	f9402be0 	ldr	x0, [sp, #80]
ffff000000089628:	f900e41f 	str	xzr, [x0, #456]
ffff00000008962c:	f9402be0 	ldr	x0, [sp, #80]
ffff000000089630:	f900e81f 	str	xzr, [x0, #464]
ffff000000089634:	f9402be0 	ldr	x0, [sp, #80]
ffff000000089638:	f900ec1f 	str	xzr, [x0, #472]
ffff00000008963c:	f9402be0 	ldr	x0, [sp, #80]
ffff000000089640:	f900f01f 	str	xzr, [x0, #480]
ffff000000089644:	f9402be0 	ldr	x0, [sp, #80]
ffff000000089648:	b901e81f 	str	wzr, [x0, #488]
ffff00000008964c:	f94027e1 	ldr	x1, [sp, #72]
ffff000000089650:	d287fe00 	mov	x0, #0x3ff0                	// #16368
ffff000000089654:	8b000020 	add	x0, x1, x0
ffff000000089658:	f90013e0 	str	x0, [sp, #32]
ffff00000008965c:	f94013e0 	ldr	x0, [sp, #32]
ffff000000089660:	d1048000 	sub	x0, x0, #0x120
ffff000000089664:	f90013e0 	str	x0, [sp, #32]
ffff000000089668:	f9402be0 	ldr	x0, [sp, #80]
ffff00000008966c:	f9400c03 	ldr	x3, [x0, #24]
ffff000000089670:	f9402fe0 	ldr	x0, [sp, #88]
ffff000000089674:	f9400c00 	ldr	x0, [x0, #24]
ffff000000089678:	d287fe02 	mov	x2, #0x3ff0                	// #16368
ffff00000008967c:	aa0003e1 	mov	x1, x0
ffff000000089680:	aa0303e0 	mov	x0, x3
ffff000000089684:	9400057d 	bl	ffff00000008ac78 <simple_memcpy>
ffff000000089688:	f94013e1 	ldr	x1, [sp, #32]
ffff00000008968c:	f9402be0 	ldr	x0, [sp, #80]
ffff000000089690:	f9000001 	str	x1, [x0]
ffff000000089694:	f94013e0 	ldr	x0, [sp, #32]
ffff000000089698:	91044000 	add	x0, x0, #0x110
ffff00000008969c:	f9402be1 	ldr	x1, [sp, #80]
ffff0000000896a0:	f9401421 	ldr	x1, [x1, #40]
ffff0000000896a4:	f9000001 	str	x1, [x0]
ffff0000000896a8:	f94013e0 	ldr	x0, [sp, #32]
ffff0000000896ac:	f900001f 	str	xzr, [x0]
ffff0000000896b0:	f9402be0 	ldr	x0, [sp, #80]
ffff0000000896b4:	b9401000 	ldr	w0, [x0, #16]
ffff0000000896b8:	93407c00 	sxtw	x0, w0
ffff0000000896bc:	d37df001 	lsl	x1, x0, #3
ffff0000000896c0:	d0000040 	adrp	x0, ffff000000093000 <task_pool+0x6f8>
ffff0000000896c4:	9112c000 	add	x0, x0, #0x4b0
ffff0000000896c8:	8b000020 	add	x0, x1, x0
ffff0000000896cc:	f90033e0 	str	x0, [sp, #96]
ffff0000000896d0:	14000005 	b	ffff0000000896e4 <thread_fork+0x2f8>
ffff0000000896d4:	f94033e0 	ldr	x0, [sp, #96]
ffff0000000896d8:	f9400000 	ldr	x0, [x0]
ffff0000000896dc:	9100e000 	add	x0, x0, #0x38
ffff0000000896e0:	f90033e0 	str	x0, [sp, #96]
ffff0000000896e4:	f94033e0 	ldr	x0, [sp, #96]
ffff0000000896e8:	f9400000 	ldr	x0, [x0]
ffff0000000896ec:	f100001f 	cmp	x0, #0x0
ffff0000000896f0:	54ffff21 	b.ne	ffff0000000896d4 <thread_fork+0x2e8>  // b.any
ffff0000000896f4:	f94033e0 	ldr	x0, [sp, #96]
ffff0000000896f8:	f9402be1 	ldr	x1, [sp, #80]
ffff0000000896fc:	f9000001 	str	x1, [x0]
ffff000000089700:	f0000020 	adrp	x0, ffff000000090000 <pool_slots+0x6f0>
ffff000000089704:	9137a000 	add	x0, x0, #0xde8
ffff000000089708:	97fff5bd 	bl	ffff000000086dfc <uart_write_str_raw>
ffff00000008970c:	f9402fe0 	ldr	x0, [sp, #88]
ffff000000089710:	b9400800 	ldr	w0, [x0, #8]
ffff000000089714:	97fff5d1 	bl	ffff000000086e58 <uart_write_int_raw>
ffff000000089718:	f0000020 	adrp	x0, ffff000000090000 <pool_slots+0x6f0>
ffff00000008971c:	91382000 	add	x0, x0, #0xe08
ffff000000089720:	97fff5b7 	bl	ffff000000086dfc <uart_write_str_raw>
ffff000000089724:	f9402be0 	ldr	x0, [sp, #80]
ffff000000089728:	b9400800 	ldr	w0, [x0, #8]
ffff00000008972c:	97fff5cb 	bl	ffff000000086e58 <uart_write_int_raw>
ffff000000089730:	97fffc76 	bl	ffff000000088908 <enable_interrupt>
ffff000000089734:	f9402be0 	ldr	x0, [sp, #80]
ffff000000089738:	b9400800 	ldr	w0, [x0, #8]
ffff00000008973c:	a8c77bfd 	ldp	x29, x30, [sp], #112
ffff000000089740:	d65f03c0 	ret

ffff000000089744 <thread_exit>:
ffff000000089744:	a9be7bfd 	stp	x29, x30, [sp, #-32]!
ffff000000089748:	910003fd 	mov	x29, sp
ffff00000008974c:	97fffc72 	bl	ffff000000088914 <disable_interrupt>
ffff000000089750:	9400113d 	bl	ffff00000008dc44 <get_current>
ffff000000089754:	f9000fe0 	str	x0, [sp, #24]
ffff000000089758:	f9400fe0 	ldr	x0, [sp, #24]
ffff00000008975c:	97fffc71 	bl	ffff000000088920 <remove_from_ready_queue>
ffff000000089760:	f9400fe0 	ldr	x0, [sp, #24]
ffff000000089764:	52800021 	mov	w1, #0x1                   	// #1
ffff000000089768:	b9000c01 	str	w1, [x0, #12]
ffff00000008976c:	f9400fe0 	ldr	x0, [sp, #24]
ffff000000089770:	f9001c1f 	str	xzr, [x0, #56]
ffff000000089774:	97fffc65 	bl	ffff000000088908 <enable_interrupt>
ffff000000089778:	d2800000 	mov	x0, #0x0                   	// #0
ffff00000008977c:	940000a4 	bl	ffff000000089a0c <schedule_complete>
ffff000000089780:	d503201f 	nop
ffff000000089784:	a8c27bfd 	ldp	x29, x30, [sp], #32
ffff000000089788:	d65f03c0 	ret

ffff00000008978c <thread_kill>:
ffff00000008978c:	a9bc7bfd 	stp	x29, x30, [sp, #-64]!
ffff000000089790:	910003fd 	mov	x29, sp
ffff000000089794:	b9001fe0 	str	w0, [sp, #28]
ffff000000089798:	97fffc5f 	bl	ffff000000088914 <disable_interrupt>
ffff00000008979c:	9400112a 	bl	ffff00000008dc44 <get_current>
ffff0000000897a0:	f90013e0 	str	x0, [sp, #32]
ffff0000000897a4:	f94013e0 	ldr	x0, [sp, #32]
ffff0000000897a8:	b9400801 	ldr	w1, [x0, #8]
ffff0000000897ac:	b9401fe0 	ldr	w0, [sp, #28]
ffff0000000897b0:	6b00003f 	cmp	w1, w0
ffff0000000897b4:	54000121 	b.ne	ffff0000000897d8 <thread_kill+0x4c>  // b.any
ffff0000000897b8:	f0000020 	adrp	x0, ffff000000090000 <pool_slots+0x6f0>
ffff0000000897bc:	91386000 	add	x0, x0, #0xe18
ffff0000000897c0:	97fff58f 	bl	ffff000000086dfc <uart_write_str_raw>
ffff0000000897c4:	b9401fe0 	ldr	w0, [sp, #28]
ffff0000000897c8:	97fff5a4 	bl	ffff000000086e58 <uart_write_int_raw>
ffff0000000897cc:	97fffc4f 	bl	ffff000000088908 <enable_interrupt>
ffff0000000897d0:	12800000 	mov	w0, #0xffffffff            	// #-1
ffff0000000897d4:	1400003c 	b	ffff0000000898c4 <thread_kill+0x138>
ffff0000000897d8:	f9001fff 	str	xzr, [sp, #56]
ffff0000000897dc:	b90037ff 	str	wzr, [sp, #52]
ffff0000000897e0:	1400001b 	b	ffff00000008984c <thread_kill+0xc0>
ffff0000000897e4:	d0000040 	adrp	x0, ffff000000093000 <task_pool+0x6f8>
ffff0000000897e8:	9112c000 	add	x0, x0, #0x4b0
ffff0000000897ec:	b98037e1 	ldrsw	x1, [sp, #52]
ffff0000000897f0:	f8617800 	ldr	x0, [x0, x1, lsl #3]
ffff0000000897f4:	f90017e0 	str	x0, [sp, #40]
ffff0000000897f8:	1400000c 	b	ffff000000089828 <thread_kill+0x9c>
ffff0000000897fc:	f94017e0 	ldr	x0, [sp, #40]
ffff000000089800:	b9400801 	ldr	w1, [x0, #8]
ffff000000089804:	b9401fe0 	ldr	w0, [sp, #28]
ffff000000089808:	6b00003f 	cmp	w1, w0
ffff00000008980c:	54000081 	b.ne	ffff00000008981c <thread_kill+0x90>  // b.any
ffff000000089810:	f94017e0 	ldr	x0, [sp, #40]
ffff000000089814:	f9001fe0 	str	x0, [sp, #56]
ffff000000089818:	14000007 	b	ffff000000089834 <thread_kill+0xa8>
ffff00000008981c:	f94017e0 	ldr	x0, [sp, #40]
ffff000000089820:	f9401c00 	ldr	x0, [x0, #56]
ffff000000089824:	f90017e0 	str	x0, [sp, #40]
ffff000000089828:	f94017e0 	ldr	x0, [sp, #40]
ffff00000008982c:	f100001f 	cmp	x0, #0x0
ffff000000089830:	54fffe61 	b.ne	ffff0000000897fc <thread_kill+0x70>  // b.any
ffff000000089834:	f9401fe0 	ldr	x0, [sp, #56]
ffff000000089838:	f100001f 	cmp	x0, #0x0
ffff00000008983c:	54000101 	b.ne	ffff00000008985c <thread_kill+0xd0>  // b.any
ffff000000089840:	b94037e0 	ldr	w0, [sp, #52]
ffff000000089844:	11000400 	add	w0, w0, #0x1
ffff000000089848:	b90037e0 	str	w0, [sp, #52]
ffff00000008984c:	b94037e0 	ldr	w0, [sp, #52]
ffff000000089850:	71007c1f 	cmp	w0, #0x1f
ffff000000089854:	54fffc8d 	b.le	ffff0000000897e4 <thread_kill+0x58>
ffff000000089858:	14000002 	b	ffff000000089860 <thread_kill+0xd4>
ffff00000008985c:	d503201f 	nop
ffff000000089860:	f9401fe0 	ldr	x0, [sp, #56]
ffff000000089864:	f100001f 	cmp	x0, #0x0
ffff000000089868:	54000121 	b.ne	ffff00000008988c <thread_kill+0x100>  // b.any
ffff00000008986c:	f0000020 	adrp	x0, ffff000000090000 <pool_slots+0x6f0>
ffff000000089870:	91392000 	add	x0, x0, #0xe48
ffff000000089874:	97fff562 	bl	ffff000000086dfc <uart_write_str_raw>
ffff000000089878:	b9401fe0 	ldr	w0, [sp, #28]
ffff00000008987c:	97fff577 	bl	ffff000000086e58 <uart_write_int_raw>
ffff000000089880:	97fffc22 	bl	ffff000000088908 <enable_interrupt>
ffff000000089884:	12800000 	mov	w0, #0xffffffff            	// #-1
ffff000000089888:	1400000f 	b	ffff0000000898c4 <thread_kill+0x138>
ffff00000008988c:	f9401fe0 	ldr	x0, [sp, #56]
ffff000000089890:	97fffc24 	bl	ffff000000088920 <remove_from_ready_queue>
ffff000000089894:	f9401fe0 	ldr	x0, [sp, #56]
ffff000000089898:	52800021 	mov	w1, #0x1                   	// #1
ffff00000008989c:	b9000c01 	str	w1, [x0, #12]
ffff0000000898a0:	f9401fe0 	ldr	x0, [sp, #56]
ffff0000000898a4:	f9001c1f 	str	xzr, [x0, #56]
ffff0000000898a8:	f0000020 	adrp	x0, ffff000000090000 <pool_slots+0x6f0>
ffff0000000898ac:	9139e000 	add	x0, x0, #0xe78
ffff0000000898b0:	97fff553 	bl	ffff000000086dfc <uart_write_str_raw>
ffff0000000898b4:	b9401fe0 	ldr	w0, [sp, #28]
ffff0000000898b8:	97fff568 	bl	ffff000000086e58 <uart_write_int_raw>
ffff0000000898bc:	97fffc13 	bl	ffff000000088908 <enable_interrupt>
ffff0000000898c0:	52800000 	mov	w0, #0x0                   	// #0
ffff0000000898c4:	a8c47bfd 	ldp	x29, x30, [sp], #64
ffff0000000898c8:	d65f03c0 	ret

ffff0000000898cc <sleep>:
ffff0000000898cc:	a9bd7bfd 	stp	x29, x30, [sp, #-48]!
ffff0000000898d0:	910003fd 	mov	x29, sp
ffff0000000898d4:	b9001fe0 	str	w0, [sp, #28]
ffff0000000898d8:	97fffc0f 	bl	ffff000000088914 <disable_interrupt>
ffff0000000898dc:	940010da 	bl	ffff00000008dc44 <get_current>
ffff0000000898e0:	f90017e0 	str	x0, [sp, #40]
ffff0000000898e4:	f94017e0 	ldr	x0, [sp, #40]
ffff0000000898e8:	97fffc0e 	bl	ffff000000088920 <remove_from_ready_queue>
ffff0000000898ec:	f94017e0 	ldr	x0, [sp, #40]
ffff0000000898f0:	52800041 	mov	w1, #0x2                   	// #2
ffff0000000898f4:	b9000c01 	str	w1, [x0, #12]
ffff0000000898f8:	f94017e0 	ldr	x0, [sp, #40]
ffff0000000898fc:	f9001c1f 	str	xzr, [x0, #56]
ffff000000089900:	b9401fe0 	ldr	w0, [sp, #28]
ffff000000089904:	2a0003e3 	mov	w3, w0
ffff000000089908:	f94017e2 	ldr	x2, [sp, #40]
ffff00000008990c:	f0000020 	adrp	x0, ffff000000090000 <pool_slots+0x6f0>
ffff000000089910:	913a8001 	add	x1, x0, #0xea0
ffff000000089914:	b0000000 	adrp	x0, ffff00000008a000 <schedule_preempt+0x258>
ffff000000089918:	9102c000 	add	x0, x0, #0xb0
ffff00000008991c:	94000327 	bl	ffff00000008a5b8 <add_timer>
ffff000000089920:	97fffbfa 	bl	ffff000000088908 <enable_interrupt>
ffff000000089924:	d2800000 	mov	x0, #0x0                   	// #0
ffff000000089928:	94000039 	bl	ffff000000089a0c <schedule_complete>
ffff00000008992c:	d503201f 	nop
ffff000000089930:	a8c37bfd 	ldp	x29, x30, [sp], #48
ffff000000089934:	d65f03c0 	ret

ffff000000089938 <thread_send_signal>:
ffff000000089938:	a9bd7bfd 	stp	x29, x30, [sp, #-48]!
ffff00000008993c:	910003fd 	mov	x29, sp
ffff000000089940:	b9001fe0 	str	w0, [sp, #28]
ffff000000089944:	b9001be1 	str	w1, [sp, #24]
ffff000000089948:	97fffbf3 	bl	ffff000000088914 <disable_interrupt>
ffff00000008994c:	b9401fe0 	ldr	w0, [sp, #28]
ffff000000089950:	97fffc74 	bl	ffff000000088b20 <find_thread_by_tid>
ffff000000089954:	f90017e0 	str	x0, [sp, #40]
ffff000000089958:	f94017e0 	ldr	x0, [sp, #40]
ffff00000008995c:	f100001f 	cmp	x0, #0x0
ffff000000089960:	54000081 	b.ne	ffff000000089970 <thread_send_signal+0x38>  // b.any
ffff000000089964:	97fffbe9 	bl	ffff000000088908 <enable_interrupt>
ffff000000089968:	12800000 	mov	w0, #0xffffffff            	// #-1
ffff00000008996c:	14000008 	b	ffff00000008998c <thread_send_signal+0x54>
ffff000000089970:	f94017e0 	ldr	x0, [sp, #40]
ffff000000089974:	b9801be1 	ldrsw	x1, [sp, #24]
ffff000000089978:	91014021 	add	x1, x1, #0x50
ffff00000008997c:	52800022 	mov	w2, #0x1                   	// #1
ffff000000089980:	b8217802 	str	w2, [x0, x1, lsl #2]
ffff000000089984:	97fffbe1 	bl	ffff000000088908 <enable_interrupt>
ffff000000089988:	52800000 	mov	w0, #0x0                   	// #0
ffff00000008998c:	a8c37bfd 	ldp	x29, x30, [sp], #48
ffff000000089990:	d65f03c0 	ret

ffff000000089994 <choose_next>:
ffff000000089994:	d10043ff 	sub	sp, sp, #0x10
ffff000000089998:	b9000fff 	str	wzr, [sp, #12]
ffff00000008999c:	14000016 	b	ffff0000000899f4 <choose_next+0x60>
ffff0000000899a0:	d0000040 	adrp	x0, ffff000000093000 <task_pool+0x6f8>
ffff0000000899a4:	9112c000 	add	x0, x0, #0x4b0
ffff0000000899a8:	b9800fe1 	ldrsw	x1, [sp, #12]
ffff0000000899ac:	f8617800 	ldr	x0, [x0, x1, lsl #3]
ffff0000000899b0:	f90003e0 	str	x0, [sp]
ffff0000000899b4:	1400000a 	b	ffff0000000899dc <choose_next+0x48>
ffff0000000899b8:	f94003e0 	ldr	x0, [sp]
ffff0000000899bc:	b9400c00 	ldr	w0, [x0, #12]
ffff0000000899c0:	7100001f 	cmp	w0, #0x0
ffff0000000899c4:	54000061 	b.ne	ffff0000000899d0 <choose_next+0x3c>  // b.any
ffff0000000899c8:	f94003e0 	ldr	x0, [sp]
ffff0000000899cc:	1400000e 	b	ffff000000089a04 <choose_next+0x70>
ffff0000000899d0:	f94003e0 	ldr	x0, [sp]
ffff0000000899d4:	f9401c00 	ldr	x0, [x0, #56]
ffff0000000899d8:	f90003e0 	str	x0, [sp]
ffff0000000899dc:	f94003e0 	ldr	x0, [sp]
ffff0000000899e0:	f100001f 	cmp	x0, #0x0
ffff0000000899e4:	54fffea1 	b.ne	ffff0000000899b8 <choose_next+0x24>  // b.any
ffff0000000899e8:	b9400fe0 	ldr	w0, [sp, #12]
ffff0000000899ec:	11000400 	add	w0, w0, #0x1
ffff0000000899f0:	b9000fe0 	str	w0, [sp, #12]
ffff0000000899f4:	b9400fe0 	ldr	w0, [sp, #12]
ffff0000000899f8:	71007c1f 	cmp	w0, #0x1f
ffff0000000899fc:	54fffd2d 	b.le	ffff0000000899a0 <choose_next+0xc>
ffff000000089a00:	d2800000 	mov	x0, #0x0                   	// #0
ffff000000089a04:	910043ff 	add	sp, sp, #0x10
ffff000000089a08:	d65f03c0 	ret

ffff000000089a0c <schedule_complete>:
ffff000000089a0c:	a9bb7bfd 	stp	x29, x30, [sp, #-80]!
ffff000000089a10:	910003fd 	mov	x29, sp
ffff000000089a14:	f9000fe0 	str	x0, [sp, #24]
ffff000000089a18:	97fffbbf 	bl	ffff000000088914 <disable_interrupt>
ffff000000089a1c:	97fffce2 	bl	ffff000000088da4 <validate_ready_queue>
ffff000000089a20:	f9400fe0 	ldr	x0, [sp, #24]
ffff000000089a24:	b90043e0 	str	w0, [sp, #64]
ffff000000089a28:	94001087 	bl	ffff00000008dc44 <get_current>
ffff000000089a2c:	f9001fe0 	str	x0, [sp, #56]
ffff000000089a30:	97ffffd9 	bl	ffff000000089994 <choose_next>
ffff000000089a34:	f90027e0 	str	x0, [sp, #72]
ffff000000089a38:	f94027e0 	ldr	x0, [sp, #72]
ffff000000089a3c:	f100001f 	cmp	x0, #0x0
ffff000000089a40:	540002a1 	b.ne	ffff000000089a94 <schedule_complete+0x88>  // b.any
ffff000000089a44:	f9401fe0 	ldr	x0, [sp, #56]
ffff000000089a48:	f100001f 	cmp	x0, #0x0
ffff000000089a4c:	54000160 	b.eq	ffff000000089a78 <schedule_complete+0x6c>  // b.none
ffff000000089a50:	f9401fe0 	ldr	x0, [sp, #56]
ffff000000089a54:	b9401000 	ldr	w0, [x0, #16]
ffff000000089a58:	71007c1f 	cmp	w0, #0x1f
ffff000000089a5c:	540000e1 	b.ne	ffff000000089a78 <schedule_complete+0x6c>  // b.any
ffff000000089a60:	f0000020 	adrp	x0, ffff000000090000 <pool_slots+0x6f0>
ffff000000089a64:	913ac000 	add	x0, x0, #0xeb0
ffff000000089a68:	97fff4e5 	bl	ffff000000086dfc <uart_write_str_raw>
ffff000000089a6c:	f9401fe0 	ldr	x0, [sp, #56]
ffff000000089a70:	f90027e0 	str	x0, [sp, #72]
ffff000000089a74:	14000008 	b	ffff000000089a94 <schedule_complete+0x88>
ffff000000089a78:	f0000020 	adrp	x0, ffff000000090000 <pool_slots+0x6f0>
ffff000000089a7c:	913bc000 	add	x0, x0, #0xef0
ffff000000089a80:	97fff4df 	bl	ffff000000086dfc <uart_write_str_raw>
ffff000000089a84:	b94043e0 	ldr	w0, [sp, #64]
ffff000000089a88:	97fff4f4 	bl	ffff000000086e58 <uart_write_int_raw>
ffff000000089a8c:	97fffc55 	bl	ffff000000088be0 <ready_queue_dump>
ffff000000089a90:	14000000 	b	ffff000000089a90 <schedule_complete+0x84>
ffff000000089a94:	b90047ff 	str	wzr, [sp, #68]
ffff000000089a98:	1400005d 	b	ffff000000089c0c <schedule_complete+0x200>
ffff000000089a9c:	f94027e0 	ldr	x0, [sp, #72]
ffff000000089aa0:	b98047e1 	ldrsw	x1, [sp, #68]
ffff000000089aa4:	91014021 	add	x1, x1, #0x50
ffff000000089aa8:	b8617800 	ldr	w0, [x0, x1, lsl #2]
ffff000000089aac:	7100001f 	cmp	w0, #0x0
ffff000000089ab0:	54000a80 	b.eq	ffff000000089c00 <schedule_complete+0x1f4>  // b.none
ffff000000089ab4:	f94027e0 	ldr	x0, [sp, #72]
ffff000000089ab8:	b98047e1 	ldrsw	x1, [sp, #68]
ffff000000089abc:	91014021 	add	x1, x1, #0x50
ffff000000089ac0:	b821781f 	str	wzr, [x0, x1, lsl #2]
ffff000000089ac4:	b94047e0 	ldr	w0, [sp, #68]
ffff000000089ac8:	7100241f 	cmp	w0, #0x9
ffff000000089acc:	540001e1 	b.ne	ffff000000089b08 <schedule_complete+0xfc>  // b.any
ffff000000089ad0:	f94027e0 	ldr	x0, [sp, #72]
ffff000000089ad4:	b98047e1 	ldrsw	x1, [sp, #68]
ffff000000089ad8:	91002021 	add	x1, x1, #0x8
ffff000000089adc:	f8617800 	ldr	x0, [x0, x1, lsl #3]
ffff000000089ae0:	f100001f 	cmp	x0, #0x0
ffff000000089ae4:	54000121 	b.ne	ffff000000089b08 <schedule_complete+0xfc>  // b.any
ffff000000089ae8:	f94027e0 	ldr	x0, [sp, #72]
ffff000000089aec:	97fffb8d 	bl	ffff000000088920 <remove_from_ready_queue>
ffff000000089af0:	f94027e0 	ldr	x0, [sp, #72]
ffff000000089af4:	52800021 	mov	w1, #0x1                   	// #1
ffff000000089af8:	b9000c01 	str	w1, [x0, #12]
ffff000000089afc:	f94027e0 	ldr	x0, [sp, #72]
ffff000000089b00:	f9001c1f 	str	xzr, [x0, #56]
ffff000000089b04:	14000046 	b	ffff000000089c1c <schedule_complete+0x210>
ffff000000089b08:	f94027e0 	ldr	x0, [sp, #72]
ffff000000089b0c:	b98047e1 	ldrsw	x1, [sp, #68]
ffff000000089b10:	91002021 	add	x1, x1, #0x8
ffff000000089b14:	f8617800 	ldr	x0, [x0, x1, lsl #3]
ffff000000089b18:	f100001f 	cmp	x0, #0x0
ffff000000089b1c:	54000800 	b.eq	ffff000000089c1c <schedule_complete+0x210>  // b.none
ffff000000089b20:	f94027e0 	ldr	x0, [sp, #72]
ffff000000089b24:	f9400000 	ldr	x0, [x0]
ffff000000089b28:	f9001be0 	str	x0, [sp, #48]
ffff000000089b2c:	f9401be0 	ldr	x0, [sp, #48]
ffff000000089b30:	f9408401 	ldr	x1, [x0, #264]
ffff000000089b34:	f94027e0 	ldr	x0, [sp, #72]
ffff000000089b38:	f900e001 	str	x1, [x0, #448]
ffff000000089b3c:	f9401be0 	ldr	x0, [sp, #48]
ffff000000089b40:	f9408001 	ldr	x1, [x0, #256]
ffff000000089b44:	f94027e0 	ldr	x0, [sp, #72]
ffff000000089b48:	f900e401 	str	x1, [x0, #456]
ffff000000089b4c:	f9401be0 	ldr	x0, [sp, #48]
ffff000000089b50:	f9407801 	ldr	x1, [x0, #240]
ffff000000089b54:	f94027e0 	ldr	x0, [sp, #72]
ffff000000089b58:	f900e801 	str	x1, [x0, #464]
ffff000000089b5c:	f9401be0 	ldr	x0, [sp, #48]
ffff000000089b60:	f9408801 	ldr	x1, [x0, #272]
ffff000000089b64:	f94027e0 	ldr	x0, [sp, #72]
ffff000000089b68:	f900ec01 	str	x1, [x0, #472]
ffff000000089b6c:	f94027e0 	ldr	x0, [sp, #72]
ffff000000089b70:	f940f000 	ldr	x0, [x0, #480]
ffff000000089b74:	f100001f 	cmp	x0, #0x0
ffff000000089b78:	54000161 	b.ne	ffff000000089ba4 <schedule_complete+0x198>  // b.any
ffff000000089b7c:	d2880000 	mov	x0, #0x4000                	// #16384
ffff000000089b80:	97ffedd5 	bl	ffff0000000852d4 <kmalloc>
ffff000000089b84:	f90017e0 	str	x0, [sp, #40]
ffff000000089b88:	d2880002 	mov	x2, #0x4000                	// #16384
ffff000000089b8c:	52800001 	mov	w1, #0x0                   	// #0
ffff000000089b90:	f94017e0 	ldr	x0, [sp, #40]
ffff000000089b94:	94000421 	bl	ffff00000008ac18 <memset>
ffff000000089b98:	f94017e1 	ldr	x1, [sp, #40]
ffff000000089b9c:	f94027e0 	ldr	x0, [sp, #72]
ffff000000089ba0:	f900f001 	str	x1, [x0, #480]
ffff000000089ba4:	f94027e0 	ldr	x0, [sp, #72]
ffff000000089ba8:	52800021 	mov	w1, #0x1                   	// #1
ffff000000089bac:	b901e801 	str	w1, [x0, #488]
ffff000000089bb0:	f94027e0 	ldr	x0, [sp, #72]
ffff000000089bb4:	b98047e1 	ldrsw	x1, [sp, #68]
ffff000000089bb8:	91002021 	add	x1, x1, #0x8
ffff000000089bbc:	f8617801 	ldr	x1, [x0, x1, lsl #3]
ffff000000089bc0:	f9401be0 	ldr	x0, [sp, #48]
ffff000000089bc4:	91042000 	add	x0, x0, #0x108
ffff000000089bc8:	f9000001 	str	x1, [x0]
ffff000000089bcc:	f94027e0 	ldr	x0, [sp, #72]
ffff000000089bd0:	f940f002 	ldr	x2, [x0, #480]
ffff000000089bd4:	f9401be0 	ldr	x0, [sp, #48]
ffff000000089bd8:	91044000 	add	x0, x0, #0x110
ffff000000089bdc:	d287fe01 	mov	x1, #0x3ff0                	// #16368
ffff000000089be0:	8b010041 	add	x1, x2, x1
ffff000000089be4:	f9000001 	str	x1, [x0]
ffff000000089be8:	f9401be0 	ldr	x0, [sp, #48]
ffff000000089bec:	9103c000 	add	x0, x0, #0xf0
ffff000000089bf0:	b0000041 	adrp	x1, ffff000000092000 <pool_slots+0xe38>
ffff000000089bf4:	f9440821 	ldr	x1, [x1, #2064]
ffff000000089bf8:	f9000001 	str	x1, [x0]
ffff000000089bfc:	14000008 	b	ffff000000089c1c <schedule_complete+0x210>
ffff000000089c00:	b94047e0 	ldr	w0, [sp, #68]
ffff000000089c04:	11000400 	add	w0, w0, #0x1
ffff000000089c08:	b90047e0 	str	w0, [sp, #68]
ffff000000089c0c:	b94047e0 	ldr	w0, [sp, #68]
ffff000000089c10:	71007c1f 	cmp	w0, #0x1f
ffff000000089c14:	54fff44d 	b.le	ffff000000089a9c <schedule_complete+0x90>
ffff000000089c18:	14000002 	b	ffff000000089c20 <schedule_complete+0x214>
ffff000000089c1c:	d503201f 	nop
ffff000000089c20:	f9401fe0 	ldr	x0, [sp, #56]
ffff000000089c24:	b9400801 	ldr	w1, [x0, #8]
ffff000000089c28:	f94027e0 	ldr	x0, [sp, #72]
ffff000000089c2c:	b9400800 	ldr	w0, [x0, #8]
ffff000000089c30:	6b00003f 	cmp	w1, w0
ffff000000089c34:	540009e0 	b.eq	ffff000000089d70 <schedule_complete+0x364>  // b.none
ffff000000089c38:	f94027e0 	ldr	x0, [sp, #72]
ffff000000089c3c:	97fffc2c 	bl	ffff000000088cec <validate_thread_stack>
ffff000000089c40:	b94043e0 	ldr	w0, [sp, #64]
ffff000000089c44:	7100001f 	cmp	w0, #0x0
ffff000000089c48:	54000061 	b.ne	ffff000000089c54 <schedule_complete+0x248>  // b.any
ffff000000089c4c:	f9401fe0 	ldr	x0, [sp, #56]
ffff000000089c50:	97fffc27 	bl	ffff000000088cec <validate_thread_stack>
ffff000000089c54:	97fffc54 	bl	ffff000000088da4 <validate_ready_queue>
ffff000000089c58:	f0000020 	adrp	x0, ffff000000090000 <pool_slots+0x6f0>
ffff000000089c5c:	913ca000 	add	x0, x0, #0xf28
ffff000000089c60:	97fff467 	bl	ffff000000086dfc <uart_write_str_raw>
ffff000000089c64:	f9401fe0 	ldr	x0, [sp, #56]
ffff000000089c68:	f100001f 	cmp	x0, #0x0
ffff000000089c6c:	54000080 	b.eq	ffff000000089c7c <schedule_complete+0x270>  // b.none
ffff000000089c70:	f9401fe0 	ldr	x0, [sp, #56]
ffff000000089c74:	b9400800 	ldr	w0, [x0, #8]
ffff000000089c78:	14000002 	b	ffff000000089c80 <schedule_complete+0x274>
ffff000000089c7c:	52800000 	mov	w0, #0x0                   	// #0
ffff000000089c80:	97fff476 	bl	ffff000000086e58 <uart_write_int_raw>
ffff000000089c84:	f0000020 	adrp	x0, ffff000000090000 <pool_slots+0x6f0>
ffff000000089c88:	913d4000 	add	x0, x0, #0xf50
ffff000000089c8c:	97fff45c 	bl	ffff000000086dfc <uart_write_str_raw>
ffff000000089c90:	f94027e0 	ldr	x0, [sp, #72]
ffff000000089c94:	b9400800 	ldr	w0, [x0, #8]
ffff000000089c98:	97fff470 	bl	ffff000000086e58 <uart_write_int_raw>
ffff000000089c9c:	f0000020 	adrp	x0, ffff000000090000 <pool_slots+0x6f0>
ffff000000089ca0:	913d8000 	add	x0, x0, #0xf60
ffff000000089ca4:	97fff456 	bl	ffff000000086dfc <uart_write_str_raw>
ffff000000089ca8:	f94027e0 	ldr	x0, [sp, #72]
ffff000000089cac:	f9400000 	ldr	x0, [x0]
ffff000000089cb0:	97fff482 	bl	ffff000000086eb8 <uart_write_hex_raw>
ffff000000089cb4:	f94027e0 	ldr	x0, [sp, #72]
ffff000000089cb8:	f940f800 	ldr	x0, [x0, #496]
ffff000000089cbc:	9240bc00 	and	x0, x0, #0xffffffffffff
ffff000000089cc0:	f90013e0 	str	x0, [sp, #32]
ffff000000089cc4:	f94013e0 	ldr	x0, [sp, #32]
ffff000000089cc8:	97fff5a1 	bl	ffff00000008734c <switch_user_address_space>
ffff000000089ccc:	f0000020 	adrp	x0, ffff000000090000 <pool_slots+0x6f0>
ffff000000089cd0:	913de000 	add	x0, x0, #0xf78
ffff000000089cd4:	97fff44a 	bl	ffff000000086dfc <uart_write_str_raw>
ffff000000089cd8:	f94027e0 	ldr	x0, [sp, #72]
ffff000000089cdc:	f940f800 	ldr	x0, [x0, #496]
ffff000000089ce0:	97fff476 	bl	ffff000000086eb8 <uart_write_hex_raw>
ffff000000089ce4:	f0000020 	adrp	x0, ffff000000090000 <pool_slots+0x6f0>
ffff000000089ce8:	913e6000 	add	x0, x0, #0xf98
ffff000000089cec:	97fff444 	bl	ffff000000086dfc <uart_write_str_raw>
ffff000000089cf0:	f94013e0 	ldr	x0, [sp, #32]
ffff000000089cf4:	97fff471 	bl	ffff000000086eb8 <uart_write_hex_raw>
ffff000000089cf8:	b94043e0 	ldr	w0, [sp, #64]
ffff000000089cfc:	7100001f 	cmp	w0, #0x0
ffff000000089d00:	540001c0 	b.eq	ffff000000089d38 <schedule_complete+0x32c>  // b.none
ffff000000089d04:	b0000040 	adrp	x0, ffff000000092000 <pool_slots+0xe38>
ffff000000089d08:	911d0000 	add	x0, x0, #0x740
ffff000000089d0c:	b9400000 	ldr	w0, [x0]
ffff000000089d10:	2a0003e3 	mov	w3, w0
ffff000000089d14:	d2800002 	mov	x2, #0x0                   	// #0
ffff000000089d18:	f0000020 	adrp	x0, ffff000000090000 <pool_slots+0x6f0>
ffff000000089d1c:	913ea001 	add	x1, x0, #0xfa8
ffff000000089d20:	b0000000 	adrp	x0, ffff00000008a000 <schedule_preempt+0x258>
ffff000000089d24:	91056000 	add	x0, x0, #0x158
ffff000000089d28:	94000224 	bl	ffff00000008a5b8 <add_timer>
ffff000000089d2c:	f94027e0 	ldr	x0, [sp, #72]
ffff000000089d30:	94000f62 	bl	ffff00000008dab8 <cxtsw_complete_first>
ffff000000089d34:	14000019 	b	ffff000000089d98 <schedule_complete+0x38c>
ffff000000089d38:	b0000040 	adrp	x0, ffff000000092000 <pool_slots+0xe38>
ffff000000089d3c:	911d0000 	add	x0, x0, #0x740
ffff000000089d40:	b9400000 	ldr	w0, [x0]
ffff000000089d44:	2a0003e3 	mov	w3, w0
ffff000000089d48:	d2800002 	mov	x2, #0x0                   	// #0
ffff000000089d4c:	f0000020 	adrp	x0, ffff000000090000 <pool_slots+0x6f0>
ffff000000089d50:	913ea001 	add	x1, x0, #0xfa8
ffff000000089d54:	b0000000 	adrp	x0, ffff00000008a000 <schedule_preempt+0x258>
ffff000000089d58:	91056000 	add	x0, x0, #0x158
ffff000000089d5c:	94000217 	bl	ffff00000008a5b8 <add_timer>
ffff000000089d60:	f94027e1 	ldr	x1, [sp, #72]
ffff000000089d64:	f9401fe0 	ldr	x0, [sp, #56]
ffff000000089d68:	94000f74 	bl	ffff00000008db38 <cxtsw_complete>
ffff000000089d6c:	1400000b 	b	ffff000000089d98 <schedule_complete+0x38c>
ffff000000089d70:	b0000040 	adrp	x0, ffff000000092000 <pool_slots+0xe38>
ffff000000089d74:	911d0000 	add	x0, x0, #0x740
ffff000000089d78:	b9400000 	ldr	w0, [x0]
ffff000000089d7c:	2a0003e3 	mov	w3, w0
ffff000000089d80:	d2800002 	mov	x2, #0x0                   	// #0
ffff000000089d84:	f0000020 	adrp	x0, ffff000000090000 <pool_slots+0x6f0>
ffff000000089d88:	913ea001 	add	x1, x0, #0xfa8
ffff000000089d8c:	b0000000 	adrp	x0, ffff00000008a000 <schedule_preempt+0x258>
ffff000000089d90:	91056000 	add	x0, x0, #0x158
ffff000000089d94:	94000209 	bl	ffff00000008a5b8 <add_timer>
ffff000000089d98:	97fffadc 	bl	ffff000000088908 <enable_interrupt>
ffff000000089d9c:	d503201f 	nop
ffff000000089da0:	a8c57bfd 	ldp	x29, x30, [sp], #80
ffff000000089da4:	d65f03c0 	ret

ffff000000089da8 <schedule_preempt>:
ffff000000089da8:	a9bc7bfd 	stp	x29, x30, [sp, #-64]!
ffff000000089dac:	910003fd 	mov	x29, sp
ffff000000089db0:	97fffad9 	bl	ffff000000088914 <disable_interrupt>
ffff000000089db4:	97fffbfc 	bl	ffff000000088da4 <validate_ready_queue>
ffff000000089db8:	94000fa3 	bl	ffff00000008dc44 <get_current>
ffff000000089dbc:	f90017e0 	str	x0, [sp, #40]
ffff000000089dc0:	f94017e0 	ldr	x0, [sp, #40]
ffff000000089dc4:	b9400c00 	ldr	w0, [x0, #12]
ffff000000089dc8:	7100001f 	cmp	w0, #0x0
ffff000000089dcc:	54000081 	b.ne	ffff000000089ddc <schedule_preempt+0x34>  // b.any
ffff000000089dd0:	f94017e0 	ldr	x0, [sp, #40]
ffff000000089dd4:	97fffb00 	bl	ffff0000000889d4 <move_to_ready_queue_tail>
ffff000000089dd8:	14000007 	b	ffff000000089df4 <schedule_preempt+0x4c>
ffff000000089ddc:	f0000020 	adrp	x0, ffff000000090000 <pool_slots+0x6f0>
ffff000000089de0:	913f0000 	add	x0, x0, #0xfc0
ffff000000089de4:	97fff406 	bl	ffff000000086dfc <uart_write_str_raw>
ffff000000089de8:	f94017e0 	ldr	x0, [sp, #40]
ffff000000089dec:	b9400800 	ldr	w0, [x0, #8]
ffff000000089df0:	97fff41a 	bl	ffff000000086e58 <uart_write_int_raw>
ffff000000089df4:	97fffee8 	bl	ffff000000089994 <choose_next>
ffff000000089df8:	f9001fe0 	str	x0, [sp, #56]
ffff000000089dfc:	f9401fe0 	ldr	x0, [sp, #56]
ffff000000089e00:	f100001f 	cmp	x0, #0x0
ffff000000089e04:	54000201 	b.ne	ffff000000089e44 <schedule_preempt+0x9c>  // b.any
ffff000000089e08:	f94017e0 	ldr	x0, [sp, #40]
ffff000000089e0c:	f100001f 	cmp	x0, #0x0
ffff000000089e10:	54000100 	b.eq	ffff000000089e30 <schedule_preempt+0x88>  // b.none
ffff000000089e14:	f94017e0 	ldr	x0, [sp, #40]
ffff000000089e18:	b9401000 	ldr	w0, [x0, #16]
ffff000000089e1c:	71007c1f 	cmp	w0, #0x1f
ffff000000089e20:	54000081 	b.ne	ffff000000089e30 <schedule_preempt+0x88>  // b.any
ffff000000089e24:	f94017e0 	ldr	x0, [sp, #40]
ffff000000089e28:	f9001fe0 	str	x0, [sp, #56]
ffff000000089e2c:	14000006 	b	ffff000000089e44 <schedule_preempt+0x9c>
ffff000000089e30:	90000040 	adrp	x0, ffff000000091000 <pool_slots+0x570>
ffff000000089e34:	91002000 	add	x0, x0, #0x8
ffff000000089e38:	97fff3f1 	bl	ffff000000086dfc <uart_write_str_raw>
ffff000000089e3c:	97fffb69 	bl	ffff000000088be0 <ready_queue_dump>
ffff000000089e40:	14000000 	b	ffff000000089e40 <schedule_preempt+0x98>
ffff000000089e44:	f9401fe0 	ldr	x0, [sp, #56]
ffff000000089e48:	97fffba9 	bl	ffff000000088cec <validate_thread_stack>
ffff000000089e4c:	97fffbd6 	bl	ffff000000088da4 <validate_ready_queue>
ffff000000089e50:	b90037ff 	str	wzr, [sp, #52]
ffff000000089e54:	1400005d 	b	ffff000000089fc8 <schedule_preempt+0x220>
ffff000000089e58:	f9401fe0 	ldr	x0, [sp, #56]
ffff000000089e5c:	b98037e1 	ldrsw	x1, [sp, #52]
ffff000000089e60:	91014021 	add	x1, x1, #0x50
ffff000000089e64:	b8617800 	ldr	w0, [x0, x1, lsl #2]
ffff000000089e68:	7100001f 	cmp	w0, #0x0
ffff000000089e6c:	54000a80 	b.eq	ffff000000089fbc <schedule_preempt+0x214>  // b.none
ffff000000089e70:	f9401fe0 	ldr	x0, [sp, #56]
ffff000000089e74:	b98037e1 	ldrsw	x1, [sp, #52]
ffff000000089e78:	91014021 	add	x1, x1, #0x50
ffff000000089e7c:	b821781f 	str	wzr, [x0, x1, lsl #2]
ffff000000089e80:	b94037e0 	ldr	w0, [sp, #52]
ffff000000089e84:	7100241f 	cmp	w0, #0x9
ffff000000089e88:	540001e1 	b.ne	ffff000000089ec4 <schedule_preempt+0x11c>  // b.any
ffff000000089e8c:	f9401fe0 	ldr	x0, [sp, #56]
ffff000000089e90:	b98037e1 	ldrsw	x1, [sp, #52]
ffff000000089e94:	91002021 	add	x1, x1, #0x8
ffff000000089e98:	f8617800 	ldr	x0, [x0, x1, lsl #3]
ffff000000089e9c:	f100001f 	cmp	x0, #0x0
ffff000000089ea0:	54000121 	b.ne	ffff000000089ec4 <schedule_preempt+0x11c>  // b.any
ffff000000089ea4:	f9401fe0 	ldr	x0, [sp, #56]
ffff000000089ea8:	97fffa9e 	bl	ffff000000088920 <remove_from_ready_queue>
ffff000000089eac:	f9401fe0 	ldr	x0, [sp, #56]
ffff000000089eb0:	52800021 	mov	w1, #0x1                   	// #1
ffff000000089eb4:	b9000c01 	str	w1, [x0, #12]
ffff000000089eb8:	f9401fe0 	ldr	x0, [sp, #56]
ffff000000089ebc:	f9001c1f 	str	xzr, [x0, #56]
ffff000000089ec0:	14000046 	b	ffff000000089fd8 <schedule_preempt+0x230>
ffff000000089ec4:	f9401fe0 	ldr	x0, [sp, #56]
ffff000000089ec8:	b98037e1 	ldrsw	x1, [sp, #52]
ffff000000089ecc:	91002021 	add	x1, x1, #0x8
ffff000000089ed0:	f8617800 	ldr	x0, [x0, x1, lsl #3]
ffff000000089ed4:	f100001f 	cmp	x0, #0x0
ffff000000089ed8:	54000800 	b.eq	ffff000000089fd8 <schedule_preempt+0x230>  // b.none
ffff000000089edc:	f9401fe0 	ldr	x0, [sp, #56]
ffff000000089ee0:	f9400000 	ldr	x0, [x0]
ffff000000089ee4:	f90013e0 	str	x0, [sp, #32]
ffff000000089ee8:	f94013e0 	ldr	x0, [sp, #32]
ffff000000089eec:	f9408401 	ldr	x1, [x0, #264]
ffff000000089ef0:	f9401fe0 	ldr	x0, [sp, #56]
ffff000000089ef4:	f900e001 	str	x1, [x0, #448]
ffff000000089ef8:	f94013e0 	ldr	x0, [sp, #32]
ffff000000089efc:	f9408001 	ldr	x1, [x0, #256]
ffff000000089f00:	f9401fe0 	ldr	x0, [sp, #56]
ffff000000089f04:	f900e401 	str	x1, [x0, #456]
ffff000000089f08:	f94013e0 	ldr	x0, [sp, #32]
ffff000000089f0c:	f9407801 	ldr	x1, [x0, #240]
ffff000000089f10:	f9401fe0 	ldr	x0, [sp, #56]
ffff000000089f14:	f900e801 	str	x1, [x0, #464]
ffff000000089f18:	f94013e0 	ldr	x0, [sp, #32]
ffff000000089f1c:	f9408801 	ldr	x1, [x0, #272]
ffff000000089f20:	f9401fe0 	ldr	x0, [sp, #56]
ffff000000089f24:	f900ec01 	str	x1, [x0, #472]
ffff000000089f28:	f9401fe0 	ldr	x0, [sp, #56]
ffff000000089f2c:	f940f000 	ldr	x0, [x0, #480]
ffff000000089f30:	f100001f 	cmp	x0, #0x0
ffff000000089f34:	54000161 	b.ne	ffff000000089f60 <schedule_preempt+0x1b8>  // b.any
ffff000000089f38:	d2880000 	mov	x0, #0x4000                	// #16384
ffff000000089f3c:	97ffece6 	bl	ffff0000000852d4 <kmalloc>
ffff000000089f40:	f9000fe0 	str	x0, [sp, #24]
ffff000000089f44:	d2880002 	mov	x2, #0x4000                	// #16384
ffff000000089f48:	52800001 	mov	w1, #0x0                   	// #0
ffff000000089f4c:	f9400fe0 	ldr	x0, [sp, #24]
ffff000000089f50:	94000332 	bl	ffff00000008ac18 <memset>
ffff000000089f54:	f9400fe1 	ldr	x1, [sp, #24]
ffff000000089f58:	f9401fe0 	ldr	x0, [sp, #56]
ffff000000089f5c:	f900f001 	str	x1, [x0, #480]
ffff000000089f60:	f9401fe0 	ldr	x0, [sp, #56]
ffff000000089f64:	52800021 	mov	w1, #0x1                   	// #1
ffff000000089f68:	b901e801 	str	w1, [x0, #488]
ffff000000089f6c:	f9401fe0 	ldr	x0, [sp, #56]
ffff000000089f70:	b98037e1 	ldrsw	x1, [sp, #52]
ffff000000089f74:	91002021 	add	x1, x1, #0x8
ffff000000089f78:	f8617801 	ldr	x1, [x0, x1, lsl #3]
ffff000000089f7c:	f94013e0 	ldr	x0, [sp, #32]
ffff000000089f80:	91042000 	add	x0, x0, #0x108
ffff000000089f84:	f9000001 	str	x1, [x0]
ffff000000089f88:	f9401fe0 	ldr	x0, [sp, #56]
ffff000000089f8c:	f940f002 	ldr	x2, [x0, #480]
ffff000000089f90:	f94013e0 	ldr	x0, [sp, #32]
ffff000000089f94:	91044000 	add	x0, x0, #0x110
ffff000000089f98:	d287fe01 	mov	x1, #0x3ff0                	// #16368
ffff000000089f9c:	8b010041 	add	x1, x2, x1
ffff000000089fa0:	f9000001 	str	x1, [x0]
ffff000000089fa4:	f94013e0 	ldr	x0, [sp, #32]
ffff000000089fa8:	9103c000 	add	x0, x0, #0xf0
ffff000000089fac:	b0000041 	adrp	x1, ffff000000092000 <pool_slots+0xe38>
ffff000000089fb0:	f9440821 	ldr	x1, [x1, #2064]
ffff000000089fb4:	f9000001 	str	x1, [x0]
ffff000000089fb8:	14000008 	b	ffff000000089fd8 <schedule_preempt+0x230>
ffff000000089fbc:	b94037e0 	ldr	w0, [sp, #52]
ffff000000089fc0:	11000400 	add	w0, w0, #0x1
ffff000000089fc4:	b90037e0 	str	w0, [sp, #52]
ffff000000089fc8:	b94037e0 	ldr	w0, [sp, #52]
ffff000000089fcc:	71007c1f 	cmp	w0, #0x1f
ffff000000089fd0:	54fff44d 	b.le	ffff000000089e58 <schedule_preempt+0xb0>
ffff000000089fd4:	14000002 	b	ffff000000089fdc <schedule_preempt+0x234>
ffff000000089fd8:	d503201f 	nop
ffff000000089fdc:	f94017e0 	ldr	x0, [sp, #40]
ffff000000089fe0:	b9400801 	ldr	w1, [x0, #8]
ffff000000089fe4:	f9401fe0 	ldr	x0, [sp, #56]
ffff000000089fe8:	b9400800 	ldr	w0, [x0, #8]
ffff000000089fec:	6b00003f 	cmp	w1, w0
ffff000000089ff0:	54000440 	b.eq	ffff00000008a078 <schedule_preempt+0x2d0>  // b.none
ffff000000089ff4:	b0000040 	adrp	x0, ffff000000092000 <pool_slots+0xe38>
ffff000000089ff8:	f943f000 	ldr	x0, [x0, #2016]
ffff000000089ffc:	b900001f 	str	wzr, [x0]
ffff00000008a000:	90000040 	adrp	x0, ffff000000092000 <pool_slots+0xe38>
ffff00000008a004:	f943fc00 	ldr	x0, [x0, #2040]
ffff00000008a008:	52807ce1 	mov	w1, #0x3e7                 	// #999
ffff00000008a00c:	b9000001 	str	w1, [x0]
ffff00000008a010:	f9401fe0 	ldr	x0, [sp, #56]
ffff00000008a014:	f940f800 	ldr	x0, [x0, #496]
ffff00000008a018:	9240bc00 	and	x0, x0, #0xffffffffffff
ffff00000008a01c:	f9000be0 	str	x0, [sp, #16]
ffff00000008a020:	f9400be0 	ldr	x0, [sp, #16]
ffff00000008a024:	d5182000 	msr	ttbr0_el1, x0
ffff00000008a028:	d5033b9f 	dsb	ish
ffff00000008a02c:	d5033fdf 	isb
ffff00000008a030:	d508831f 	tlbi	vmalle1is
ffff00000008a034:	d5033b9f 	dsb	ish
ffff00000008a038:	d5033fdf 	isb
ffff00000008a03c:	90000040 	adrp	x0, ffff000000092000 <pool_slots+0xe38>
ffff00000008a040:	911d0000 	add	x0, x0, #0x740
ffff00000008a044:	b9400000 	ldr	w0, [x0]
ffff00000008a048:	2a0003e3 	mov	w3, w0
ffff00000008a04c:	d2800002 	mov	x2, #0x0                   	// #0
ffff00000008a050:	d0000020 	adrp	x0, ffff000000090000 <pool_slots+0x6f0>
ffff00000008a054:	913ea001 	add	x1, x0, #0xfa8
ffff00000008a058:	90000000 	adrp	x0, ffff00000008a000 <schedule_preempt+0x258>
ffff00000008a05c:	91056000 	add	x0, x0, #0x158
ffff00000008a060:	94000156 	bl	ffff00000008a5b8 <add_timer>
ffff00000008a064:	f9401fe1 	ldr	x1, [sp, #56]
ffff00000008a068:	f94017e0 	ldr	x0, [sp, #40]
ffff00000008a06c:	94000e8c 	bl	ffff00000008da9c <switch_to>
ffff00000008a070:	940007e4 	bl	ffff00000008c000 <load_all_preempt>
ffff00000008a074:	1400000b 	b	ffff00000008a0a0 <schedule_preempt+0x2f8>
ffff00000008a078:	90000040 	adrp	x0, ffff000000092000 <pool_slots+0xe38>
ffff00000008a07c:	911d0000 	add	x0, x0, #0x740
ffff00000008a080:	b9400000 	ldr	w0, [x0]
ffff00000008a084:	2a0003e3 	mov	w3, w0
ffff00000008a088:	d2800002 	mov	x2, #0x0                   	// #0
ffff00000008a08c:	d0000020 	adrp	x0, ffff000000090000 <pool_slots+0x6f0>
ffff00000008a090:	913ea001 	add	x1, x0, #0xfa8
ffff00000008a094:	90000000 	adrp	x0, ffff00000008a000 <schedule_preempt+0x258>
ffff00000008a098:	91056000 	add	x0, x0, #0x158
ffff00000008a09c:	94000147 	bl	ffff00000008a5b8 <add_timer>
ffff00000008a0a0:	97fffa1a 	bl	ffff000000088908 <enable_interrupt>
ffff00000008a0a4:	d503201f 	nop
ffff00000008a0a8:	a8c47bfd 	ldp	x29, x30, [sp], #64
ffff00000008a0ac:	d65f03c0 	ret

ffff00000008a0b0 <wakeup_callback>:
ffff00000008a0b0:	a9bd7bfd 	stp	x29, x30, [sp, #-48]!
ffff00000008a0b4:	910003fd 	mov	x29, sp
ffff00000008a0b8:	f9000fe0 	str	x0, [sp, #24]
ffff00000008a0bc:	f9400fe0 	ldr	x0, [sp, #24]
ffff00000008a0c0:	f90013e0 	str	x0, [sp, #32]
ffff00000008a0c4:	97fffa14 	bl	ffff000000088914 <disable_interrupt>
ffff00000008a0c8:	f94013e0 	ldr	x0, [sp, #32]
ffff00000008a0cc:	b9000c1f 	str	wzr, [x0, #12]
ffff00000008a0d0:	f94013e0 	ldr	x0, [sp, #32]
ffff00000008a0d4:	f9001c1f 	str	xzr, [x0, #56]
ffff00000008a0d8:	f94013e0 	ldr	x0, [sp, #32]
ffff00000008a0dc:	b9401001 	ldr	w1, [x0, #16]
ffff00000008a0e0:	b0000040 	adrp	x0, ffff000000093000 <task_pool+0x6f8>
ffff00000008a0e4:	9112c000 	add	x0, x0, #0x4b0
ffff00000008a0e8:	93407c21 	sxtw	x1, w1
ffff00000008a0ec:	f8617800 	ldr	x0, [x0, x1, lsl #3]
ffff00000008a0f0:	f90017e0 	str	x0, [sp, #40]
ffff00000008a0f4:	f94017e0 	ldr	x0, [sp, #40]
ffff00000008a0f8:	f100001f 	cmp	x0, #0x0
ffff00000008a0fc:	54000181 	b.ne	ffff00000008a12c <wakeup_callback+0x7c>  // b.any
ffff00000008a100:	f94013e0 	ldr	x0, [sp, #32]
ffff00000008a104:	b9401001 	ldr	w1, [x0, #16]
ffff00000008a108:	b0000040 	adrp	x0, ffff000000093000 <task_pool+0x6f8>
ffff00000008a10c:	9112c000 	add	x0, x0, #0x4b0
ffff00000008a110:	93407c21 	sxtw	x1, w1
ffff00000008a114:	f94013e2 	ldr	x2, [sp, #32]
ffff00000008a118:	f8217802 	str	x2, [x0, x1, lsl #3]
ffff00000008a11c:	1400000b 	b	ffff00000008a148 <wakeup_callback+0x98>
ffff00000008a120:	f94017e0 	ldr	x0, [sp, #40]
ffff00000008a124:	f9401c00 	ldr	x0, [x0, #56]
ffff00000008a128:	f90017e0 	str	x0, [sp, #40]
ffff00000008a12c:	f94017e0 	ldr	x0, [sp, #40]
ffff00000008a130:	f9401c00 	ldr	x0, [x0, #56]
ffff00000008a134:	f100001f 	cmp	x0, #0x0
ffff00000008a138:	54ffff41 	b.ne	ffff00000008a120 <wakeup_callback+0x70>  // b.any
ffff00000008a13c:	f94017e0 	ldr	x0, [sp, #40]
ffff00000008a140:	f94013e1 	ldr	x1, [sp, #32]
ffff00000008a144:	f9001c01 	str	x1, [x0, #56]
ffff00000008a148:	97fff9f0 	bl	ffff000000088908 <enable_interrupt>
ffff00000008a14c:	d503201f 	nop
ffff00000008a150:	a8c37bfd 	ldp	x29, x30, [sp], #48
ffff00000008a154:	d65f03c0 	ret

ffff00000008a158 <preempt_callback>:
ffff00000008a158:	a9be7bfd 	stp	x29, x30, [sp, #-32]!
ffff00000008a15c:	910003fd 	mov	x29, sp
ffff00000008a160:	f9000fe0 	str	x0, [sp, #24]
ffff00000008a164:	52800022 	mov	w2, #0x1                   	// #1
ffff00000008a168:	d2800001 	mov	x1, #0x0                   	// #0
ffff00000008a16c:	f0ffffe0 	adrp	x0, ffff000000089000 <thread_create+0x18>
ffff00000008a170:	9136a000 	add	x0, x0, #0xda8
ffff00000008a174:	97ffe5c3 	bl	ffff000000083880 <task_enqueue>
ffff00000008a178:	d503201f 	nop
ffff00000008a17c:	a8c27bfd 	ldp	x29, x30, [sp], #32
ffff00000008a180:	d65f03c0 	ret

ffff00000008a184 <idle>:
ffff00000008a184:	a9bf7bfd 	stp	x29, x30, [sp, #-16]!
ffff00000008a188:	910003fd 	mov	x29, sp
ffff00000008a18c:	f0000020 	adrp	x0, ffff000000091000 <pool_slots+0x570>
ffff00000008a190:	9100e000 	add	x0, x0, #0x38
ffff00000008a194:	97fff1ca 	bl	ffff0000000868bc <uart_write_str>
ffff00000008a198:	94000004 	bl	ffff00000008a1a8 <kill_zombies>
ffff00000008a19c:	d2800000 	mov	x0, #0x0                   	// #0
ffff00000008a1a0:	97fffe1b 	bl	ffff000000089a0c <schedule_complete>
ffff00000008a1a4:	17fffffd 	b	ffff00000008a198 <idle+0x14>

ffff00000008a1a8 <kill_zombies>:
ffff00000008a1a8:	a9bd7bfd 	stp	x29, x30, [sp, #-48]!
ffff00000008a1ac:	910003fd 	mov	x29, sp
ffff00000008a1b0:	b9002fff 	str	wzr, [sp, #44]
ffff00000008a1b4:	14000049 	b	ffff00000008a2d8 <kill_zombies+0x130>
ffff00000008a1b8:	97fff9d7 	bl	ffff000000088914 <disable_interrupt>
ffff00000008a1bc:	b0000040 	adrp	x0, ffff000000093000 <task_pool+0x6f8>
ffff00000008a1c0:	9112c000 	add	x0, x0, #0x4b0
ffff00000008a1c4:	b9802fe1 	ldrsw	x1, [sp, #44]
ffff00000008a1c8:	f8617800 	ldr	x0, [x0, x1, lsl #3]
ffff00000008a1cc:	f90013e0 	str	x0, [sp, #32]
ffff00000008a1d0:	f9000fff 	str	xzr, [sp, #24]
ffff00000008a1d4:	1400003a 	b	ffff00000008a2bc <kill_zombies+0x114>
ffff00000008a1d8:	f94013e0 	ldr	x0, [sp, #32]
ffff00000008a1dc:	b9400c00 	ldr	w0, [x0, #12]
ffff00000008a1e0:	7100041f 	cmp	w0, #0x1
ffff00000008a1e4:	54000621 	b.ne	ffff00000008a2a8 <kill_zombies+0x100>  // b.any
ffff00000008a1e8:	90000040 	adrp	x0, ffff000000092000 <pool_slots+0xe38>
ffff00000008a1ec:	f943b001 	ldr	x1, [x0, #1888]
ffff00000008a1f0:	f94013e0 	ldr	x0, [sp, #32]
ffff00000008a1f4:	940004e2 	bl	ffff00000008b57c <is_in_wait_queue>
ffff00000008a1f8:	7100001f 	cmp	w0, #0x0
ffff00000008a1fc:	540000e1 	b.ne	ffff00000008a218 <kill_zombies+0x70>  // b.any
ffff00000008a200:	90000040 	adrp	x0, ffff000000092000 <pool_slots+0xe38>
ffff00000008a204:	f943f801 	ldr	x1, [x0, #2032]
ffff00000008a208:	f94013e0 	ldr	x0, [sp, #32]
ffff00000008a20c:	940004dc 	bl	ffff00000008b57c <is_in_wait_queue>
ffff00000008a210:	7100001f 	cmp	w0, #0x0
ffff00000008a214:	540000e0 	b.eq	ffff00000008a230 <kill_zombies+0x88>  // b.none
ffff00000008a218:	f94013e0 	ldr	x0, [sp, #32]
ffff00000008a21c:	f9000fe0 	str	x0, [sp, #24]
ffff00000008a220:	f94013e0 	ldr	x0, [sp, #32]
ffff00000008a224:	f9401c00 	ldr	x0, [x0, #56]
ffff00000008a228:	f90013e0 	str	x0, [sp, #32]
ffff00000008a22c:	14000024 	b	ffff00000008a2bc <kill_zombies+0x114>
ffff00000008a230:	f94013e0 	ldr	x0, [sp, #32]
ffff00000008a234:	f9000be0 	str	x0, [sp, #16]
ffff00000008a238:	f9400fe0 	ldr	x0, [sp, #24]
ffff00000008a23c:	f100001f 	cmp	x0, #0x0
ffff00000008a240:	540000c0 	b.eq	ffff00000008a258 <kill_zombies+0xb0>  // b.none
ffff00000008a244:	f94013e0 	ldr	x0, [sp, #32]
ffff00000008a248:	f9401c01 	ldr	x1, [x0, #56]
ffff00000008a24c:	f9400fe0 	ldr	x0, [sp, #24]
ffff00000008a250:	f9001c01 	str	x1, [x0, #56]
ffff00000008a254:	14000007 	b	ffff00000008a270 <kill_zombies+0xc8>
ffff00000008a258:	f94013e0 	ldr	x0, [sp, #32]
ffff00000008a25c:	f9401c02 	ldr	x2, [x0, #56]
ffff00000008a260:	b0000040 	adrp	x0, ffff000000093000 <task_pool+0x6f8>
ffff00000008a264:	9112c000 	add	x0, x0, #0x4b0
ffff00000008a268:	b9802fe1 	ldrsw	x1, [sp, #44]
ffff00000008a26c:	f8217802 	str	x2, [x0, x1, lsl #3]
ffff00000008a270:	f94013e0 	ldr	x0, [sp, #32]
ffff00000008a274:	f9401c00 	ldr	x0, [x0, #56]
ffff00000008a278:	f90013e0 	str	x0, [sp, #32]
ffff00000008a27c:	f9400be0 	ldr	x0, [sp, #16]
ffff00000008a280:	f9001c1f 	str	xzr, [x0, #56]
ffff00000008a284:	f9400be0 	ldr	x0, [sp, #16]
ffff00000008a288:	f9401000 	ldr	x0, [x0, #32]
ffff00000008a28c:	97ffebe2 	bl	ffff000000085214 <kfree>
ffff00000008a290:	f9400be0 	ldr	x0, [sp, #16]
ffff00000008a294:	f9400c00 	ldr	x0, [x0, #24]
ffff00000008a298:	97ffebdf 	bl	ffff000000085214 <kfree>
ffff00000008a29c:	f9400be0 	ldr	x0, [sp, #16]
ffff00000008a2a0:	97ffebdd 	bl	ffff000000085214 <kfree>
ffff00000008a2a4:	14000006 	b	ffff00000008a2bc <kill_zombies+0x114>
ffff00000008a2a8:	f94013e0 	ldr	x0, [sp, #32]
ffff00000008a2ac:	f9000fe0 	str	x0, [sp, #24]
ffff00000008a2b0:	f94013e0 	ldr	x0, [sp, #32]
ffff00000008a2b4:	f9401c00 	ldr	x0, [x0, #56]
ffff00000008a2b8:	f90013e0 	str	x0, [sp, #32]
ffff00000008a2bc:	f94013e0 	ldr	x0, [sp, #32]
ffff00000008a2c0:	f100001f 	cmp	x0, #0x0
ffff00000008a2c4:	54fff8a1 	b.ne	ffff00000008a1d8 <kill_zombies+0x30>  // b.any
ffff00000008a2c8:	97fff990 	bl	ffff000000088908 <enable_interrupt>
ffff00000008a2cc:	b9402fe0 	ldr	w0, [sp, #44]
ffff00000008a2d0:	11000400 	add	w0, w0, #0x1
ffff00000008a2d4:	b9002fe0 	str	w0, [sp, #44]
ffff00000008a2d8:	b9402fe0 	ldr	w0, [sp, #44]
ffff00000008a2dc:	71007c1f 	cmp	w0, #0x1f
ffff00000008a2e0:	54fff6cd 	b.le	ffff00000008a1b8 <kill_zombies+0x10>
ffff00000008a2e4:	d503201f 	nop
ffff00000008a2e8:	d503201f 	nop
ffff00000008a2ec:	a8c37bfd 	ldp	x29, x30, [sp], #48
ffff00000008a2f0:	d65f03c0 	ret

ffff00000008a2f4 <foo_sync>:
ffff00000008a2f4:	a9be7bfd 	stp	x29, x30, [sp, #-32]!
ffff00000008a2f8:	910003fd 	mov	x29, sp
ffff00000008a2fc:	b9001fff 	str	wzr, [sp, #28]
ffff00000008a300:	14000011 	b	ffff00000008a344 <foo_sync+0x50>
ffff00000008a304:	f0000020 	adrp	x0, ffff000000091000 <pool_slots+0x570>
ffff00000008a308:	91022000 	add	x0, x0, #0x88
ffff00000008a30c:	97fff16c 	bl	ffff0000000868bc <uart_write_str>
ffff00000008a310:	94000e4d 	bl	ffff00000008dc44 <get_current>
ffff00000008a314:	b9400800 	ldr	w0, [x0, #8]
ffff00000008a318:	97fff21f 	bl	ffff000000086b94 <uart_write_int>
ffff00000008a31c:	f0000020 	adrp	x0, ffff000000091000 <pool_slots+0x570>
ffff00000008a320:	91028000 	add	x0, x0, #0xa0
ffff00000008a324:	97fff166 	bl	ffff0000000868bc <uart_write_str>
ffff00000008a328:	b9401fe0 	ldr	w0, [sp, #28]
ffff00000008a32c:	97fff21a 	bl	ffff000000086b94 <uart_write_int>
ffff00000008a330:	52800140 	mov	w0, #0xa                   	// #10
ffff00000008a334:	97fffd66 	bl	ffff0000000898cc <sleep>
ffff00000008a338:	b9401fe0 	ldr	w0, [sp, #28]
ffff00000008a33c:	11000400 	add	w0, w0, #0x1
ffff00000008a340:	b9001fe0 	str	w0, [sp, #28]
ffff00000008a344:	b9401fe0 	ldr	w0, [sp, #28]
ffff00000008a348:	7100241f 	cmp	w0, #0x9
ffff00000008a34c:	54fffdcd 	b.le	ffff00000008a304 <foo_sync+0x10>
ffff00000008a350:	97fffcfd 	bl	ffff000000089744 <thread_exit>
ffff00000008a354:	d503201f 	nop
ffff00000008a358:	a8c27bfd 	ldp	x29, x30, [sp], #32
ffff00000008a35c:	d65f03c0 	ret

ffff00000008a360 <foo_sync_preempt>:
ffff00000008a360:	a9be7bfd 	stp	x29, x30, [sp, #-32]!
ffff00000008a364:	910003fd 	mov	x29, sp
ffff00000008a368:	b9001fff 	str	wzr, [sp, #28]
ffff00000008a36c:	1400000f 	b	ffff00000008a3a8 <foo_sync_preempt+0x48>
ffff00000008a370:	f0000020 	adrp	x0, ffff000000091000 <pool_slots+0x570>
ffff00000008a374:	91022000 	add	x0, x0, #0x88
ffff00000008a378:	97fff151 	bl	ffff0000000868bc <uart_write_str>
ffff00000008a37c:	94000e32 	bl	ffff00000008dc44 <get_current>
ffff00000008a380:	b9400800 	ldr	w0, [x0, #8]
ffff00000008a384:	97fff204 	bl	ffff000000086b94 <uart_write_int>
ffff00000008a388:	f0000020 	adrp	x0, ffff000000091000 <pool_slots+0x570>
ffff00000008a38c:	91028000 	add	x0, x0, #0xa0
ffff00000008a390:	97fff14b 	bl	ffff0000000868bc <uart_write_str>
ffff00000008a394:	b9401fe0 	ldr	w0, [sp, #28]
ffff00000008a398:	97fff1ff 	bl	ffff000000086b94 <uart_write_int>
ffff00000008a39c:	b9401fe0 	ldr	w0, [sp, #28]
ffff00000008a3a0:	11000400 	add	w0, w0, #0x1
ffff00000008a3a4:	b9001fe0 	str	w0, [sp, #28]
ffff00000008a3a8:	b9401fe0 	ldr	w0, [sp, #28]
ffff00000008a3ac:	7100241f 	cmp	w0, #0x9
ffff00000008a3b0:	54fffe0d 	b.le	ffff00000008a370 <foo_sync_preempt+0x10>
ffff00000008a3b4:	97fffce4 	bl	ffff000000089744 <thread_exit>
ffff00000008a3b8:	d503201f 	nop
ffff00000008a3bc:	a8c27bfd 	ldp	x29, x30, [sp], #32
ffff00000008a3c0:	d65f03c0 	ret

ffff00000008a3c4 <enable_interrupt>:
ffff00000008a3c4:	d5034fff 	msr	daifclr, #0xf
ffff00000008a3c8:	d503201f 	nop
ffff00000008a3cc:	d65f03c0 	ret

ffff00000008a3d0 <disable_interrupt>:
ffff00000008a3d0:	d5034fdf 	msr	daifset, #0xf
ffff00000008a3d4:	d503201f 	nop
ffff00000008a3d8:	d65f03c0 	ret

ffff00000008a3dc <get_current_tick>:
ffff00000008a3dc:	d10043ff 	sub	sp, sp, #0x10
ffff00000008a3e0:	d53be020 	mrs	x0, cntpct_el0
ffff00000008a3e4:	f90007e0 	str	x0, [sp, #8]
ffff00000008a3e8:	f94007e0 	ldr	x0, [sp, #8]
ffff00000008a3ec:	910043ff 	add	sp, sp, #0x10
ffff00000008a3f0:	d65f03c0 	ret

ffff00000008a3f4 <get_cntfrq>:
ffff00000008a3f4:	d10043ff 	sub	sp, sp, #0x10
ffff00000008a3f8:	d53be000 	mrs	x0, cntfrq_el0
ffff00000008a3fc:	f90007e0 	str	x0, [sp, #8]
ffff00000008a400:	f94007e0 	ldr	x0, [sp, #8]
ffff00000008a404:	910043ff 	add	sp, sp, #0x10
ffff00000008a408:	d65f03c0 	ret

ffff00000008a40c <simple_strncpy>:
ffff00000008a40c:	d100c3ff 	sub	sp, sp, #0x30
ffff00000008a410:	f9000fe0 	str	x0, [sp, #24]
ffff00000008a414:	f9000be1 	str	x1, [sp, #16]
ffff00000008a418:	b9000fe2 	str	w2, [sp, #12]
ffff00000008a41c:	b9002fff 	str	wzr, [sp, #44]
ffff00000008a420:	1400000c 	b	ffff00000008a450 <simple_strncpy+0x44>
ffff00000008a424:	b9802fe0 	ldrsw	x0, [sp, #44]
ffff00000008a428:	f9400be1 	ldr	x1, [sp, #16]
ffff00000008a42c:	8b000021 	add	x1, x1, x0
ffff00000008a430:	b9802fe0 	ldrsw	x0, [sp, #44]
ffff00000008a434:	f9400fe2 	ldr	x2, [sp, #24]
ffff00000008a438:	8b000040 	add	x0, x2, x0
ffff00000008a43c:	39400021 	ldrb	w1, [x1]
ffff00000008a440:	39000001 	strb	w1, [x0]
ffff00000008a444:	b9402fe0 	ldr	w0, [sp, #44]
ffff00000008a448:	11000400 	add	w0, w0, #0x1
ffff00000008a44c:	b9002fe0 	str	w0, [sp, #44]
ffff00000008a450:	b9400fe0 	ldr	w0, [sp, #12]
ffff00000008a454:	51000400 	sub	w0, w0, #0x1
ffff00000008a458:	b9402fe1 	ldr	w1, [sp, #44]
ffff00000008a45c:	6b00003f 	cmp	w1, w0
ffff00000008a460:	540000ea 	b.ge	ffff00000008a47c <simple_strncpy+0x70>  // b.tcont
ffff00000008a464:	b9802fe0 	ldrsw	x0, [sp, #44]
ffff00000008a468:	f9400be1 	ldr	x1, [sp, #16]
ffff00000008a46c:	8b000020 	add	x0, x1, x0
ffff00000008a470:	39400000 	ldrb	w0, [x0]
ffff00000008a474:	7100001f 	cmp	w0, #0x0
ffff00000008a478:	54fffd61 	b.ne	ffff00000008a424 <simple_strncpy+0x18>  // b.any
ffff00000008a47c:	b9802fe0 	ldrsw	x0, [sp, #44]
ffff00000008a480:	f9400fe1 	ldr	x1, [sp, #24]
ffff00000008a484:	8b000020 	add	x0, x1, x0
ffff00000008a488:	3900001f 	strb	wzr, [x0]
ffff00000008a48c:	d503201f 	nop
ffff00000008a490:	9100c3ff 	add	sp, sp, #0x30
ffff00000008a494:	d65f03c0 	ret

ffff00000008a498 <core_timer_enable>:
ffff00000008a498:	d10043ff 	sub	sp, sp, #0x10
ffff00000008a49c:	d538e100 	mrs	x0, cntkctl_el1
ffff00000008a4a0:	f90007e0 	str	x0, [sp, #8]
ffff00000008a4a4:	f94007e0 	ldr	x0, [sp, #8]
ffff00000008a4a8:	b2400000 	orr	x0, x0, #0x1
ffff00000008a4ac:	f90007e0 	str	x0, [sp, #8]
ffff00000008a4b0:	f94007e0 	ldr	x0, [sp, #8]
ffff00000008a4b4:	d518e100 	msr	cntkctl_el1, x0
ffff00000008a4b8:	d2800800 	mov	x0, #0x40                  	// #64
ffff00000008a4bc:	f2a80000 	movk	x0, #0x4000, lsl #16
ffff00000008a4c0:	f2ffffe0 	movk	x0, #0xffff, lsl #48
ffff00000008a4c4:	f90003e0 	str	x0, [sp]
ffff00000008a4c8:	f94003e1 	ldr	x1, [sp]
ffff00000008a4cc:	d53be000 	mrs	x0, cntfrq_el0
ffff00000008a4d0:	d37df000 	lsl	x0, x0, #3
ffff00000008a4d4:	d51be200 	msr	cntp_tval_el0, x0
ffff00000008a4d8:	d2800020 	mov	x0, #0x1                   	// #1
ffff00000008a4dc:	d51be220 	msr	cntp_ctl_el0, x0
ffff00000008a4e0:	d2800040 	mov	x0, #0x2                   	// #2
ffff00000008a4e4:	b9000020 	str	w0, [x1]
ffff00000008a4e8:	d28068a0 	mov	x0, #0x345                 	// #837
ffff00000008a4ec:	d5184000 	msr	spsr_el1, x0
ffff00000008a4f0:	d518403e 	msr	elr_el1, x30
ffff00000008a4f4:	d69f03e0 	eret
ffff00000008a4f8:	d503201f 	nop
ffff00000008a4fc:	910043ff 	add	sp, sp, #0x10
ffff00000008a500:	d65f03c0 	ret

ffff00000008a504 <set_timeout>:
ffff00000008a504:	a9bd7bfd 	stp	x29, x30, [sp, #-48]!
ffff00000008a508:	910003fd 	mov	x29, sp
ffff00000008a50c:	97ffffba 	bl	ffff00000008a3f4 <get_cntfrq>
ffff00000008a510:	f90013e0 	str	x0, [sp, #32]
ffff00000008a514:	f94013e0 	ldr	x0, [sp, #32]
ffff00000008a518:	d345fc00 	lsr	x0, x0, #5
ffff00000008a51c:	f9000fe0 	str	x0, [sp, #24]
ffff00000008a520:	f9400fe1 	ldr	x1, [sp, #24]
ffff00000008a524:	aa0103e0 	mov	x0, x1
ffff00000008a528:	d37be800 	lsl	x0, x0, #5
ffff00000008a52c:	cb010000 	sub	x0, x0, x1
ffff00000008a530:	d37ef400 	lsl	x0, x0, #2
ffff00000008a534:	8b010000 	add	x0, x0, x1
ffff00000008a538:	d37df000 	lsl	x0, x0, #3
ffff00000008a53c:	aa0003e1 	mov	x1, x0
ffff00000008a540:	f94013e0 	ldr	x0, [sp, #32]
ffff00000008a544:	9ac00820 	udiv	x0, x1, x0
ffff00000008a548:	b9002fe0 	str	w0, [sp, #44]
ffff00000008a54c:	b9402fe0 	ldr	w0, [sp, #44]
ffff00000008a550:	7100001f 	cmp	w0, #0x0
ffff00000008a554:	54000061 	b.ne	ffff00000008a560 <set_timeout+0x5c>  // b.any
ffff00000008a558:	52800020 	mov	w0, #0x1                   	// #1
ffff00000008a55c:	b9002fe0 	str	w0, [sp, #44]
ffff00000008a560:	f0000020 	adrp	x0, ffff000000091000 <pool_slots+0x570>
ffff00000008a564:	91036000 	add	x0, x0, #0xd8
ffff00000008a568:	97fff225 	bl	ffff000000086dfc <uart_write_str_raw>
ffff00000008a56c:	f94013e0 	ldr	x0, [sp, #32]
ffff00000008a570:	97fff23a 	bl	ffff000000086e58 <uart_write_int_raw>
ffff00000008a574:	f0000020 	adrp	x0, ffff000000091000 <pool_slots+0x570>
ffff00000008a578:	91040000 	add	x0, x0, #0x100
ffff00000008a57c:	97fff220 	bl	ffff000000086dfc <uart_write_str_raw>
ffff00000008a580:	f9400fe0 	ldr	x0, [sp, #24]
ffff00000008a584:	97fff235 	bl	ffff000000086e58 <uart_write_int_raw>
ffff00000008a588:	f0000020 	adrp	x0, ffff000000091000 <pool_slots+0x570>
ffff00000008a58c:	91046000 	add	x0, x0, #0x118
ffff00000008a590:	97fff21b 	bl	ffff000000086dfc <uart_write_str_raw>
ffff00000008a594:	b9402fe0 	ldr	w0, [sp, #44]
ffff00000008a598:	97fff230 	bl	ffff000000086e58 <uart_write_int_raw>
ffff00000008a59c:	90000040 	adrp	x0, ffff000000092000 <pool_slots+0xe38>
ffff00000008a5a0:	f9441800 	ldr	x0, [x0, #2096]
ffff00000008a5a4:	b9402fe1 	ldr	w1, [sp, #44]
ffff00000008a5a8:	b9000001 	str	w1, [x0]
ffff00000008a5ac:	d503201f 	nop
ffff00000008a5b0:	a8c37bfd 	ldp	x29, x30, [sp], #48
ffff00000008a5b4:	d65f03c0 	ret

ffff00000008a5b8 <add_timer>:
ffff00000008a5b8:	a9b87bfd 	stp	x29, x30, [sp, #-128]!
ffff00000008a5bc:	910003fd 	mov	x29, sp
ffff00000008a5c0:	f90017e0 	str	x0, [sp, #40]
ffff00000008a5c4:	f90013e1 	str	x1, [sp, #32]
ffff00000008a5c8:	f9000fe2 	str	x2, [sp, #24]
ffff00000008a5cc:	b90017e3 	str	w3, [sp, #20]
ffff00000008a5d0:	97ffff80 	bl	ffff00000008a3d0 <disable_interrupt>
ffff00000008a5d4:	f0000020 	adrp	x0, ffff000000091000 <pool_slots+0x570>
ffff00000008a5d8:	9104a001 	add	x1, x0, #0x128
ffff00000008a5dc:	f94013e0 	ldr	x0, [sp, #32]
ffff00000008a5e0:	940001fc 	bl	ffff00000008add0 <strcmp>
ffff00000008a5e4:	7100001f 	cmp	w0, #0x0
ffff00000008a5e8:	54000540 	b.eq	ffff00000008a690 <add_timer+0xd8>  // b.none
ffff00000008a5ec:	f0000040 	adrp	x0, ffff000000095000 <timer_event_pool+0x948>
ffff00000008a5f0:	9102e000 	add	x0, x0, #0xb8
ffff00000008a5f4:	f9003fe0 	str	x0, [sp, #120]
ffff00000008a5f8:	14000022 	b	ffff00000008a680 <add_timer+0xc8>
ffff00000008a5fc:	f9403fe0 	ldr	x0, [sp, #120]
ffff00000008a600:	f9400000 	ldr	x0, [x0]
ffff00000008a604:	f9400c02 	ldr	x2, [x0, #24]
ffff00000008a608:	f0000020 	adrp	x0, ffff000000091000 <pool_slots+0x570>
ffff00000008a60c:	9104a001 	add	x1, x0, #0x128
ffff00000008a610:	aa0203e0 	mov	x0, x2
ffff00000008a614:	940001ef 	bl	ffff00000008add0 <strcmp>
ffff00000008a618:	7100001f 	cmp	w0, #0x0
ffff00000008a61c:	540002a0 	b.eq	ffff00000008a670 <add_timer+0xb8>  // b.none
ffff00000008a620:	f9403fe0 	ldr	x0, [sp, #120]
ffff00000008a624:	f9400000 	ldr	x0, [x0]
ffff00000008a628:	f9002fe0 	str	x0, [sp, #88]
ffff00000008a62c:	f9402fe0 	ldr	x0, [sp, #88]
ffff00000008a630:	f9401001 	ldr	x1, [x0, #32]
ffff00000008a634:	f9403fe0 	ldr	x0, [sp, #120]
ffff00000008a638:	f9000001 	str	x1, [x0]
ffff00000008a63c:	f9402fe1 	ldr	x1, [sp, #88]
ffff00000008a640:	d0000040 	adrp	x0, ffff000000094000 <timer_msg_pool+0xa48>
ffff00000008a644:	911ae000 	add	x0, x0, #0x6b8
ffff00000008a648:	cb000020 	sub	x0, x1, x0
ffff00000008a64c:	9343fc01 	asr	x1, x0, #3
ffff00000008a650:	b202e7e0 	mov	x0, #0xcccccccccccccccc    	// #-3689348814741910324
ffff00000008a654:	f29999a0 	movk	x0, #0xcccd
ffff00000008a658:	9b007c20 	mul	x0, x1, x0
ffff00000008a65c:	aa0003e1 	mov	x1, x0
ffff00000008a660:	d0000040 	adrp	x0, ffff000000094000 <timer_msg_pool+0xa48>
ffff00000008a664:	9116e000 	add	x0, x0, #0x5b8
ffff00000008a668:	b821781f 	str	wzr, [x0, x1, lsl #2]
ffff00000008a66c:	14000005 	b	ffff00000008a680 <add_timer+0xc8>
ffff00000008a670:	f9403fe0 	ldr	x0, [sp, #120]
ffff00000008a674:	f9400000 	ldr	x0, [x0]
ffff00000008a678:	91008000 	add	x0, x0, #0x20
ffff00000008a67c:	f9003fe0 	str	x0, [sp, #120]
ffff00000008a680:	f9403fe0 	ldr	x0, [sp, #120]
ffff00000008a684:	f9400000 	ldr	x0, [x0]
ffff00000008a688:	f100001f 	cmp	x0, #0x0
ffff00000008a68c:	54fffb81 	b.ne	ffff00000008a5fc <add_timer+0x44>  // b.any
ffff00000008a690:	12800000 	mov	w0, #0xffffffff            	// #-1
ffff00000008a694:	b90077e0 	str	w0, [sp, #116]
ffff00000008a698:	b90073ff 	str	wzr, [sp, #112]
ffff00000008a69c:	14000012 	b	ffff00000008a6e4 <add_timer+0x12c>
ffff00000008a6a0:	d0000040 	adrp	x0, ffff000000094000 <timer_msg_pool+0xa48>
ffff00000008a6a4:	9116e000 	add	x0, x0, #0x5b8
ffff00000008a6a8:	b98073e1 	ldrsw	x1, [sp, #112]
ffff00000008a6ac:	b8617800 	ldr	w0, [x0, x1, lsl #2]
ffff00000008a6b0:	7100001f 	cmp	w0, #0x0
ffff00000008a6b4:	54000121 	b.ne	ffff00000008a6d8 <add_timer+0x120>  // b.any
ffff00000008a6b8:	d0000040 	adrp	x0, ffff000000094000 <timer_msg_pool+0xa48>
ffff00000008a6bc:	9116e000 	add	x0, x0, #0x5b8
ffff00000008a6c0:	b98073e1 	ldrsw	x1, [sp, #112]
ffff00000008a6c4:	52800022 	mov	w2, #0x1                   	// #1
ffff00000008a6c8:	b8217802 	str	w2, [x0, x1, lsl #2]
ffff00000008a6cc:	b94073e0 	ldr	w0, [sp, #112]
ffff00000008a6d0:	b90077e0 	str	w0, [sp, #116]
ffff00000008a6d4:	14000007 	b	ffff00000008a6f0 <add_timer+0x138>
ffff00000008a6d8:	b94073e0 	ldr	w0, [sp, #112]
ffff00000008a6dc:	11000400 	add	w0, w0, #0x1
ffff00000008a6e0:	b90073e0 	str	w0, [sp, #112]
ffff00000008a6e4:	b94073e0 	ldr	w0, [sp, #112]
ffff00000008a6e8:	7100fc1f 	cmp	w0, #0x3f
ffff00000008a6ec:	54fffdad 	b.le	ffff00000008a6a0 <add_timer+0xe8>
ffff00000008a6f0:	b94077e0 	ldr	w0, [sp, #116]
ffff00000008a6f4:	3100041f 	cmn	w0, #0x1
ffff00000008a6f8:	540000c1 	b.ne	ffff00000008a710 <add_timer+0x158>  // b.any
ffff00000008a6fc:	f0000020 	adrp	x0, ffff000000091000 <pool_slots+0x570>
ffff00000008a700:	91050000 	add	x0, x0, #0x140
ffff00000008a704:	97fff1be 	bl	ffff000000086dfc <uart_write_str_raw>
ffff00000008a708:	97ffff2f 	bl	ffff00000008a3c4 <enable_interrupt>
ffff00000008a70c:	140000b5 	b	ffff00000008a9e0 <add_timer+0x428>
ffff00000008a710:	97ffff39 	bl	ffff00000008a3f4 <get_cntfrq>
ffff00000008a714:	f9002be0 	str	x0, [sp, #80]
ffff00000008a718:	97ffff31 	bl	ffff00000008a3dc <get_current_tick>
ffff00000008a71c:	f90027e0 	str	x0, [sp, #72]
ffff00000008a720:	b94017e1 	ldr	w1, [sp, #20]
ffff00000008a724:	f9402be0 	ldr	x0, [sp, #80]
ffff00000008a728:	9b007c20 	mul	x0, x1, x0
ffff00000008a72c:	d343fc01 	lsr	x1, x0, #3
ffff00000008a730:	d29ef9e0 	mov	x0, #0xf7cf                	// #63439
ffff00000008a734:	f2bc6a60 	movk	x0, #0xe353, lsl #16
ffff00000008a738:	f2d374a0 	movk	x0, #0x9ba5, lsl #32
ffff00000008a73c:	f2e41880 	movk	x0, #0x20c4, lsl #48
ffff00000008a740:	9bc07c20 	umulh	x0, x1, x0
ffff00000008a744:	d344fc00 	lsr	x0, x0, #4
ffff00000008a748:	f94027e1 	ldr	x1, [sp, #72]
ffff00000008a74c:	8b000020 	add	x0, x1, x0
ffff00000008a750:	f90023e0 	str	x0, [sp, #64]
ffff00000008a754:	b98077e1 	ldrsw	x1, [sp, #116]
ffff00000008a758:	aa0103e0 	mov	x0, x1
ffff00000008a75c:	d37ef400 	lsl	x0, x0, #2
ffff00000008a760:	8b010000 	add	x0, x0, x1
ffff00000008a764:	d37df000 	lsl	x0, x0, #3
ffff00000008a768:	d0000041 	adrp	x1, ffff000000094000 <timer_msg_pool+0xa48>
ffff00000008a76c:	911ae021 	add	x1, x1, #0x6b8
ffff00000008a770:	8b010000 	add	x0, x0, x1
ffff00000008a774:	f9001fe0 	str	x0, [sp, #56]
ffff00000008a778:	d2800502 	mov	x2, #0x28                  	// #40
ffff00000008a77c:	52800001 	mov	w1, #0x0                   	// #0
ffff00000008a780:	f9401fe0 	ldr	x0, [sp, #56]
ffff00000008a784:	94000125 	bl	ffff00000008ac18 <memset>
ffff00000008a788:	f9401fe0 	ldr	x0, [sp, #56]
ffff00000008a78c:	f94023e1 	ldr	x1, [sp, #64]
ffff00000008a790:	f9000001 	str	x1, [x0]
ffff00000008a794:	f9401fe0 	ldr	x0, [sp, #56]
ffff00000008a798:	f94017e1 	ldr	x1, [sp, #40]
ffff00000008a79c:	f9000401 	str	x1, [x0, #8]
ffff00000008a7a0:	f9401fe0 	ldr	x0, [sp, #56]
ffff00000008a7a4:	f900101f 	str	xzr, [x0, #32]
ffff00000008a7a8:	f0000020 	adrp	x0, ffff000000091000 <pool_slots+0x570>
ffff00000008a7ac:	91058001 	add	x1, x0, #0x160
ffff00000008a7b0:	f94013e0 	ldr	x0, [sp, #32]
ffff00000008a7b4:	94000187 	bl	ffff00000008add0 <strcmp>
ffff00000008a7b8:	7100001f 	cmp	w0, #0x0
ffff00000008a7bc:	540002a0 	b.eq	ffff00000008a810 <add_timer+0x258>  // b.none
ffff00000008a7c0:	b98077e0 	ldrsw	x0, [sp, #116]
ffff00000008a7c4:	d37ae401 	lsl	x1, x0, #6
ffff00000008a7c8:	b0000040 	adrp	x0, ffff000000093000 <task_pool+0x6f8>
ffff00000008a7cc:	9116e000 	add	x0, x0, #0x5b8
ffff00000008a7d0:	8b000020 	add	x0, x1, x0
ffff00000008a7d4:	52800802 	mov	w2, #0x40                  	// #64
ffff00000008a7d8:	f9400fe1 	ldr	x1, [sp, #24]
ffff00000008a7dc:	97ffff0c 	bl	ffff00000008a40c <simple_strncpy>
ffff00000008a7e0:	b98077e0 	ldrsw	x0, [sp, #116]
ffff00000008a7e4:	d37ae401 	lsl	x1, x0, #6
ffff00000008a7e8:	b0000040 	adrp	x0, ffff000000093000 <task_pool+0x6f8>
ffff00000008a7ec:	9116e000 	add	x0, x0, #0x5b8
ffff00000008a7f0:	8b000021 	add	x1, x1, x0
ffff00000008a7f4:	f9401fe0 	ldr	x0, [sp, #56]
ffff00000008a7f8:	f9000801 	str	x1, [x0, #16]
ffff00000008a7fc:	f9401fe0 	ldr	x0, [sp, #56]
ffff00000008a800:	f0000021 	adrp	x1, ffff000000091000 <pool_slots+0x570>
ffff00000008a804:	91058021 	add	x1, x1, #0x160
ffff00000008a808:	f9000c01 	str	x1, [x0, #24]
ffff00000008a80c:	1400001c 	b	ffff00000008a87c <add_timer+0x2c4>
ffff00000008a810:	f0000020 	adrp	x0, ffff000000091000 <pool_slots+0x570>
ffff00000008a814:	9105e001 	add	x1, x0, #0x178
ffff00000008a818:	f94013e0 	ldr	x0, [sp, #32]
ffff00000008a81c:	9400016d 	bl	ffff00000008add0 <strcmp>
ffff00000008a820:	7100001f 	cmp	w0, #0x0
ffff00000008a824:	54000120 	b.eq	ffff00000008a848 <add_timer+0x290>  // b.none
ffff00000008a828:	f9401fe0 	ldr	x0, [sp, #56]
ffff00000008a82c:	f9400fe1 	ldr	x1, [sp, #24]
ffff00000008a830:	f9000801 	str	x1, [x0, #16]
ffff00000008a834:	f9401fe0 	ldr	x0, [sp, #56]
ffff00000008a838:	f0000021 	adrp	x1, ffff000000091000 <pool_slots+0x570>
ffff00000008a83c:	9105e021 	add	x1, x1, #0x178
ffff00000008a840:	f9000c01 	str	x1, [x0, #24]
ffff00000008a844:	1400000e 	b	ffff00000008a87c <add_timer+0x2c4>
ffff00000008a848:	f0000020 	adrp	x0, ffff000000091000 <pool_slots+0x570>
ffff00000008a84c:	9104a001 	add	x1, x0, #0x128
ffff00000008a850:	f94013e0 	ldr	x0, [sp, #32]
ffff00000008a854:	9400015f 	bl	ffff00000008add0 <strcmp>
ffff00000008a858:	7100001f 	cmp	w0, #0x0
ffff00000008a85c:	54000100 	b.eq	ffff00000008a87c <add_timer+0x2c4>  // b.none
ffff00000008a860:	f9401fe0 	ldr	x0, [sp, #56]
ffff00000008a864:	f9400fe1 	ldr	x1, [sp, #24]
ffff00000008a868:	f9000801 	str	x1, [x0, #16]
ffff00000008a86c:	f9401fe0 	ldr	x0, [sp, #56]
ffff00000008a870:	f0000021 	adrp	x1, ffff000000091000 <pool_slots+0x570>
ffff00000008a874:	9104a021 	add	x1, x1, #0x128
ffff00000008a878:	f9000c01 	str	x1, [x0, #24]
ffff00000008a87c:	f0000040 	adrp	x0, ffff000000095000 <timer_event_pool+0x948>
ffff00000008a880:	9102e000 	add	x0, x0, #0xb8
ffff00000008a884:	f9400000 	ldr	x0, [x0]
ffff00000008a888:	f100001f 	cmp	x0, #0x0
ffff00000008a88c:	54000100 	b.eq	ffff00000008a8ac <add_timer+0x2f4>  // b.none
ffff00000008a890:	f0000040 	adrp	x0, ffff000000095000 <timer_event_pool+0x948>
ffff00000008a894:	9102e000 	add	x0, x0, #0xb8
ffff00000008a898:	f9400000 	ldr	x0, [x0]
ffff00000008a89c:	f9400000 	ldr	x0, [x0]
ffff00000008a8a0:	f94023e1 	ldr	x1, [sp, #64]
ffff00000008a8a4:	eb00003f 	cmp	x1, x0
ffff00000008a8a8:	54000242 	b.cs	ffff00000008a8f0 <add_timer+0x338>  // b.hs, b.nlast
ffff00000008a8ac:	f0000040 	adrp	x0, ffff000000095000 <timer_event_pool+0x948>
ffff00000008a8b0:	9102e000 	add	x0, x0, #0xb8
ffff00000008a8b4:	f9400001 	ldr	x1, [x0]
ffff00000008a8b8:	f9401fe0 	ldr	x0, [sp, #56]
ffff00000008a8bc:	f9001001 	str	x1, [x0, #32]
ffff00000008a8c0:	f0000040 	adrp	x0, ffff000000095000 <timer_event_pool+0x948>
ffff00000008a8c4:	9102e000 	add	x0, x0, #0xb8
ffff00000008a8c8:	f9401fe1 	ldr	x1, [sp, #56]
ffff00000008a8cc:	f9000001 	str	x1, [x0]
ffff00000008a8d0:	d53be220 	mrs	x0, cntp_ctl_el0
ffff00000008a8d4:	b90037e0 	str	w0, [sp, #52]
ffff00000008a8d8:	b94037e0 	ldr	w0, [sp, #52]
ffff00000008a8dc:	32000000 	orr	w0, w0, #0x1
ffff00000008a8e0:	b90037e0 	str	w0, [sp, #52]
ffff00000008a8e4:	b94037e0 	ldr	w0, [sp, #52]
ffff00000008a8e8:	d51be220 	msr	cntp_ctl_el0, x0
ffff00000008a8ec:	1400002b 	b	ffff00000008a998 <add_timer+0x3e0>
ffff00000008a8f0:	f0000040 	adrp	x0, ffff000000095000 <timer_event_pool+0x948>
ffff00000008a8f4:	9102e000 	add	x0, x0, #0xb8
ffff00000008a8f8:	f9400000 	ldr	x0, [x0]
ffff00000008a8fc:	f9400000 	ldr	x0, [x0]
ffff00000008a900:	f94023e1 	ldr	x1, [sp, #64]
ffff00000008a904:	eb00003f 	cmp	x1, x0
ffff00000008a908:	54000162 	b.cs	ffff00000008a934 <add_timer+0x37c>  // b.hs, b.nlast
ffff00000008a90c:	f0000040 	adrp	x0, ffff000000095000 <timer_event_pool+0x948>
ffff00000008a910:	9102e000 	add	x0, x0, #0xb8
ffff00000008a914:	f9400001 	ldr	x1, [x0]
ffff00000008a918:	f9401fe0 	ldr	x0, [sp, #56]
ffff00000008a91c:	f9001001 	str	x1, [x0, #32]
ffff00000008a920:	f0000040 	adrp	x0, ffff000000095000 <timer_event_pool+0x948>
ffff00000008a924:	9102e000 	add	x0, x0, #0xb8
ffff00000008a928:	f9401fe1 	ldr	x1, [sp, #56]
ffff00000008a92c:	f9000001 	str	x1, [x0]
ffff00000008a930:	1400001a 	b	ffff00000008a998 <add_timer+0x3e0>
ffff00000008a934:	f0000040 	adrp	x0, ffff000000095000 <timer_event_pool+0x948>
ffff00000008a938:	9102e000 	add	x0, x0, #0xb8
ffff00000008a93c:	f9400000 	ldr	x0, [x0]
ffff00000008a940:	f90037e0 	str	x0, [sp, #104]
ffff00000008a944:	14000004 	b	ffff00000008a954 <add_timer+0x39c>
ffff00000008a948:	f94037e0 	ldr	x0, [sp, #104]
ffff00000008a94c:	f9401000 	ldr	x0, [x0, #32]
ffff00000008a950:	f90037e0 	str	x0, [sp, #104]
ffff00000008a954:	f94037e0 	ldr	x0, [sp, #104]
ffff00000008a958:	f9401000 	ldr	x0, [x0, #32]
ffff00000008a95c:	f100001f 	cmp	x0, #0x0
ffff00000008a960:	540000e0 	b.eq	ffff00000008a97c <add_timer+0x3c4>  // b.none
ffff00000008a964:	f94037e0 	ldr	x0, [sp, #104]
ffff00000008a968:	f9401000 	ldr	x0, [x0, #32]
ffff00000008a96c:	f9400000 	ldr	x0, [x0]
ffff00000008a970:	f94023e1 	ldr	x1, [sp, #64]
ffff00000008a974:	eb00003f 	cmp	x1, x0
ffff00000008a978:	54fffe88 	b.hi	ffff00000008a948 <add_timer+0x390>  // b.pmore
ffff00000008a97c:	f94037e0 	ldr	x0, [sp, #104]
ffff00000008a980:	f9401001 	ldr	x1, [x0, #32]
ffff00000008a984:	f9401fe0 	ldr	x0, [sp, #56]
ffff00000008a988:	f9001001 	str	x1, [x0, #32]
ffff00000008a98c:	f94037e0 	ldr	x0, [sp, #104]
ffff00000008a990:	f9401fe1 	ldr	x1, [sp, #56]
ffff00000008a994:	f9001001 	str	x1, [x0, #32]
ffff00000008a998:	f0000040 	adrp	x0, ffff000000095000 <timer_event_pool+0x948>
ffff00000008a99c:	9102e000 	add	x0, x0, #0xb8
ffff00000008a9a0:	f9400000 	ldr	x0, [x0]
ffff00000008a9a4:	f9401fe1 	ldr	x1, [sp, #56]
ffff00000008a9a8:	eb00003f 	cmp	x1, x0
ffff00000008a9ac:	54000181 	b.ne	ffff00000008a9dc <add_timer+0x424>  // b.any
ffff00000008a9b0:	f94023e1 	ldr	x1, [sp, #64]
ffff00000008a9b4:	f94027e0 	ldr	x0, [sp, #72]
ffff00000008a9b8:	cb000020 	sub	x0, x1, x0
ffff00000008a9bc:	f90033e0 	str	x0, [sp, #96]
ffff00000008a9c0:	f94033e0 	ldr	x0, [sp, #96]
ffff00000008a9c4:	f100001f 	cmp	x0, #0x0
ffff00000008a9c8:	54000061 	b.ne	ffff00000008a9d4 <add_timer+0x41c>  // b.any
ffff00000008a9cc:	d2800020 	mov	x0, #0x1                   	// #1
ffff00000008a9d0:	f90033e0 	str	x0, [sp, #96]
ffff00000008a9d4:	f94033e0 	ldr	x0, [sp, #96]
ffff00000008a9d8:	d51be200 	msr	cntp_tval_el0, x0
ffff00000008a9dc:	97fffe7a 	bl	ffff00000008a3c4 <enable_interrupt>
ffff00000008a9e0:	a8c87bfd 	ldp	x29, x30, [sp], #128
ffff00000008a9e4:	d65f03c0 	ret

ffff00000008a9e8 <two_second_core_timer_handler>:
ffff00000008a9e8:	a9bd7bfd 	stp	x29, x30, [sp, #-48]!
ffff00000008a9ec:	910003fd 	mov	x29, sp
ffff00000008a9f0:	d53be000 	mrs	x0, cntfrq_el0
ffff00000008a9f4:	f90017e0 	str	x0, [sp, #40]
ffff00000008a9f8:	d53be020 	mrs	x0, cntpct_el0
ffff00000008a9fc:	f90013e0 	str	x0, [sp, #32]
ffff00000008aa00:	f94013e1 	ldr	x1, [sp, #32]
ffff00000008aa04:	f94017e0 	ldr	x0, [sp, #40]
ffff00000008aa08:	9ac00820 	udiv	x0, x1, x0
ffff00000008aa0c:	f9000fe0 	str	x0, [sp, #24]
ffff00000008aa10:	f0000020 	adrp	x0, ffff000000091000 <pool_slots+0x570>
ffff00000008aa14:	91062000 	add	x0, x0, #0x188
ffff00000008aa18:	97fff0f9 	bl	ffff000000086dfc <uart_write_str_raw>
ffff00000008aa1c:	f9400fe0 	ldr	x0, [sp, #24]
ffff00000008aa20:	97fff10e 	bl	ffff000000086e58 <uart_write_int_raw>
ffff00000008aa24:	d53be000 	mrs	x0, cntfrq_el0
ffff00000008aa28:	8b000000 	add	x0, x0, x0
ffff00000008aa2c:	d51be200 	msr	cntp_tval_el0, x0
ffff00000008aa30:	d28068a0 	mov	x0, #0x345                 	// #837
ffff00000008aa34:	d5184000 	msr	spsr_el1, x0
ffff00000008aa38:	d503201f 	nop
ffff00000008aa3c:	a8c37bfd 	ldp	x29, x30, [sp], #48
ffff00000008aa40:	d65f03c0 	ret

ffff00000008aa44 <core_timer_handler>:
ffff00000008aa44:	a9bd7bfd 	stp	x29, x30, [sp, #-48]!
ffff00000008aa48:	910003fd 	mov	x29, sp
ffff00000008aa4c:	97fffe64 	bl	ffff00000008a3dc <get_current_tick>
ffff00000008aa50:	f90013e0 	str	x0, [sp, #32]
ffff00000008aa54:	97fffe5f 	bl	ffff00000008a3d0 <disable_interrupt>
ffff00000008aa58:	1400002b 	b	ffff00000008ab04 <core_timer_handler+0xc0>
ffff00000008aa5c:	f0000040 	adrp	x0, ffff000000095000 <timer_event_pool+0x948>
ffff00000008aa60:	9102e000 	add	x0, x0, #0xb8
ffff00000008aa64:	f9400000 	ldr	x0, [x0]
ffff00000008aa68:	f9400401 	ldr	x1, [x0, #8]
ffff00000008aa6c:	f0000040 	adrp	x0, ffff000000095000 <timer_event_pool+0x948>
ffff00000008aa70:	9102e000 	add	x0, x0, #0xb8
ffff00000008aa74:	f9400000 	ldr	x0, [x0]
ffff00000008aa78:	f9400800 	ldr	x0, [x0, #16]
ffff00000008aa7c:	d63f0020 	blr	x1
ffff00000008aa80:	b9002fff 	str	wzr, [sp, #44]
ffff00000008aa84:	14000016 	b	ffff00000008aadc <core_timer_handler+0x98>
ffff00000008aa88:	b9802fe1 	ldrsw	x1, [sp, #44]
ffff00000008aa8c:	aa0103e0 	mov	x0, x1
ffff00000008aa90:	d37ef400 	lsl	x0, x0, #2
ffff00000008aa94:	8b010000 	add	x0, x0, x1
ffff00000008aa98:	d37df000 	lsl	x0, x0, #3
ffff00000008aa9c:	d0000041 	adrp	x1, ffff000000094000 <timer_msg_pool+0xa48>
ffff00000008aaa0:	911ae021 	add	x1, x1, #0x6b8
ffff00000008aaa4:	8b010001 	add	x1, x0, x1
ffff00000008aaa8:	f0000040 	adrp	x0, ffff000000095000 <timer_event_pool+0x948>
ffff00000008aaac:	9102e000 	add	x0, x0, #0xb8
ffff00000008aab0:	f9400000 	ldr	x0, [x0]
ffff00000008aab4:	eb00003f 	cmp	x1, x0
ffff00000008aab8:	540000c1 	b.ne	ffff00000008aad0 <core_timer_handler+0x8c>  // b.any
ffff00000008aabc:	d0000040 	adrp	x0, ffff000000094000 <timer_msg_pool+0xa48>
ffff00000008aac0:	9116e000 	add	x0, x0, #0x5b8
ffff00000008aac4:	b9802fe1 	ldrsw	x1, [sp, #44]
ffff00000008aac8:	b821781f 	str	wzr, [x0, x1, lsl #2]
ffff00000008aacc:	14000007 	b	ffff00000008aae8 <core_timer_handler+0xa4>
ffff00000008aad0:	b9402fe0 	ldr	w0, [sp, #44]
ffff00000008aad4:	11000400 	add	w0, w0, #0x1
ffff00000008aad8:	b9002fe0 	str	w0, [sp, #44]
ffff00000008aadc:	b9402fe0 	ldr	w0, [sp, #44]
ffff00000008aae0:	7100fc1f 	cmp	w0, #0x3f
ffff00000008aae4:	54fffd2d 	b.le	ffff00000008aa88 <core_timer_handler+0x44>
ffff00000008aae8:	f0000040 	adrp	x0, ffff000000095000 <timer_event_pool+0x948>
ffff00000008aaec:	9102e000 	add	x0, x0, #0xb8
ffff00000008aaf0:	f9400000 	ldr	x0, [x0]
ffff00000008aaf4:	f9401001 	ldr	x1, [x0, #32]
ffff00000008aaf8:	f0000040 	adrp	x0, ffff000000095000 <timer_event_pool+0x948>
ffff00000008aafc:	9102e000 	add	x0, x0, #0xb8
ffff00000008ab00:	f9000001 	str	x1, [x0]
ffff00000008ab04:	f0000040 	adrp	x0, ffff000000095000 <timer_event_pool+0x948>
ffff00000008ab08:	9102e000 	add	x0, x0, #0xb8
ffff00000008ab0c:	f9400000 	ldr	x0, [x0]
ffff00000008ab10:	f100001f 	cmp	x0, #0x0
ffff00000008ab14:	54000100 	b.eq	ffff00000008ab34 <core_timer_handler+0xf0>  // b.none
ffff00000008ab18:	f0000040 	adrp	x0, ffff000000095000 <timer_event_pool+0x948>
ffff00000008ab1c:	9102e000 	add	x0, x0, #0xb8
ffff00000008ab20:	f9400000 	ldr	x0, [x0]
ffff00000008ab24:	f9400000 	ldr	x0, [x0]
ffff00000008ab28:	f94013e1 	ldr	x1, [sp, #32]
ffff00000008ab2c:	eb00003f 	cmp	x1, x0
ffff00000008ab30:	54fff962 	b.cs	ffff00000008aa5c <core_timer_handler+0x18>  // b.hs, b.nlast
ffff00000008ab34:	97fffe24 	bl	ffff00000008a3c4 <enable_interrupt>
ffff00000008ab38:	f0000040 	adrp	x0, ffff000000095000 <timer_event_pool+0x948>
ffff00000008ab3c:	9102e000 	add	x0, x0, #0xb8
ffff00000008ab40:	f9400000 	ldr	x0, [x0]
ffff00000008ab44:	f100001f 	cmp	x0, #0x0
ffff00000008ab48:	540002c0 	b.eq	ffff00000008aba0 <core_timer_handler+0x15c>  // b.none
ffff00000008ab4c:	97fffe24 	bl	ffff00000008a3dc <get_current_tick>
ffff00000008ab50:	f9000fe0 	str	x0, [sp, #24]
ffff00000008ab54:	f0000040 	adrp	x0, ffff000000095000 <timer_event_pool+0x948>
ffff00000008ab58:	9102e000 	add	x0, x0, #0xb8
ffff00000008ab5c:	f9400000 	ldr	x0, [x0]
ffff00000008ab60:	f9400000 	ldr	x0, [x0]
ffff00000008ab64:	f9400fe1 	ldr	x1, [sp, #24]
ffff00000008ab68:	eb00003f 	cmp	x1, x0
ffff00000008ab6c:	54000102 	b.cs	ffff00000008ab8c <core_timer_handler+0x148>  // b.hs, b.nlast
ffff00000008ab70:	f0000040 	adrp	x0, ffff000000095000 <timer_event_pool+0x948>
ffff00000008ab74:	9102e000 	add	x0, x0, #0xb8
ffff00000008ab78:	f9400000 	ldr	x0, [x0]
ffff00000008ab7c:	f9400001 	ldr	x1, [x0]
ffff00000008ab80:	f9400fe0 	ldr	x0, [sp, #24]
ffff00000008ab84:	cb000020 	sub	x0, x1, x0
ffff00000008ab88:	14000002 	b	ffff00000008ab90 <core_timer_handler+0x14c>
ffff00000008ab8c:	d2800020 	mov	x0, #0x1                   	// #1
ffff00000008ab90:	f9000be0 	str	x0, [sp, #16]
ffff00000008ab94:	f9400be0 	ldr	x0, [sp, #16]
ffff00000008ab98:	d51be200 	msr	cntp_tval_el0, x0
ffff00000008ab9c:	14000003 	b	ffff00000008aba8 <core_timer_handler+0x164>
ffff00000008aba0:	d2800000 	mov	x0, #0x0                   	// #0
ffff00000008aba4:	d51be220 	msr	cntp_ctl_el0, x0
ffff00000008aba8:	d2800800 	mov	x0, #0x40                  	// #64
ffff00000008abac:	f2a80000 	movk	x0, #0x4000, lsl #16
ffff00000008abb0:	f2ffffe0 	movk	x0, #0xffff, lsl #48
ffff00000008abb4:	52800041 	mov	w1, #0x2                   	// #2
ffff00000008abb8:	b9000001 	str	w1, [x0]
ffff00000008abbc:	d503201f 	nop
ffff00000008abc0:	a8c37bfd 	ldp	x29, x30, [sp], #48
ffff00000008abc4:	d65f03c0 	ret

ffff00000008abc8 <delay_busy_wait>:
ffff00000008abc8:	d10043ff 	sub	sp, sp, #0x10
ffff00000008abcc:	b9000fe0 	str	w0, [sp, #12]
ffff00000008abd0:	14000005 	b	ffff00000008abe4 <delay_busy_wait+0x1c>
ffff00000008abd4:	d503201f 	nop
ffff00000008abd8:	b9400fe0 	ldr	w0, [sp, #12]
ffff00000008abdc:	51000400 	sub	w0, w0, #0x1
ffff00000008abe0:	b9000fe0 	str	w0, [sp, #12]
ffff00000008abe4:	b9400fe0 	ldr	w0, [sp, #12]
ffff00000008abe8:	7100001f 	cmp	w0, #0x0
ffff00000008abec:	54ffff4c 	b.gt	ffff00000008abd4 <delay_busy_wait+0xc>
ffff00000008abf0:	d503201f 	nop
ffff00000008abf4:	d503201f 	nop
ffff00000008abf8:	910043ff 	add	sp, sp, #0x10
ffff00000008abfc:	d65f03c0 	ret

ffff00000008ac00 <fdt32_to_cpu>:
ffff00000008ac00:	d10043ff 	sub	sp, sp, #0x10
ffff00000008ac04:	b9000fe0 	str	w0, [sp, #12]
ffff00000008ac08:	b9400fe0 	ldr	w0, [sp, #12]
ffff00000008ac0c:	5ac00800 	rev	w0, w0
ffff00000008ac10:	910043ff 	add	sp, sp, #0x10
ffff00000008ac14:	d65f03c0 	ret

ffff00000008ac18 <memset>:
ffff00000008ac18:	d100c3ff 	sub	sp, sp, #0x30
ffff00000008ac1c:	f9000fe0 	str	x0, [sp, #24]
ffff00000008ac20:	b90017e1 	str	w1, [sp, #20]
ffff00000008ac24:	f90007e2 	str	x2, [sp, #8]
ffff00000008ac28:	f9400fe0 	ldr	x0, [sp, #24]
ffff00000008ac2c:	f90013e0 	str	x0, [sp, #32]
ffff00000008ac30:	f90017ff 	str	xzr, [sp, #40]
ffff00000008ac34:	1400000a 	b	ffff00000008ac5c <memset+0x44>
ffff00000008ac38:	f94013e1 	ldr	x1, [sp, #32]
ffff00000008ac3c:	f94017e0 	ldr	x0, [sp, #40]
ffff00000008ac40:	8b000020 	add	x0, x1, x0
ffff00000008ac44:	b94017e1 	ldr	w1, [sp, #20]
ffff00000008ac48:	12001c21 	and	w1, w1, #0xff
ffff00000008ac4c:	39000001 	strb	w1, [x0]
ffff00000008ac50:	f94017e0 	ldr	x0, [sp, #40]
ffff00000008ac54:	91000400 	add	x0, x0, #0x1
ffff00000008ac58:	f90017e0 	str	x0, [sp, #40]
ffff00000008ac5c:	f94017e1 	ldr	x1, [sp, #40]
ffff00000008ac60:	f94007e0 	ldr	x0, [sp, #8]
ffff00000008ac64:	eb00003f 	cmp	x1, x0
ffff00000008ac68:	54fffe83 	b.cc	ffff00000008ac38 <memset+0x20>  // b.lo, b.ul, b.last
ffff00000008ac6c:	f9400fe0 	ldr	x0, [sp, #24]
ffff00000008ac70:	9100c3ff 	add	sp, sp, #0x30
ffff00000008ac74:	d65f03c0 	ret

ffff00000008ac78 <simple_memcpy>:
ffff00000008ac78:	d10103ff 	sub	sp, sp, #0x40
ffff00000008ac7c:	f9000fe0 	str	x0, [sp, #24]
ffff00000008ac80:	f9000be1 	str	x1, [sp, #16]
ffff00000008ac84:	f90007e2 	str	x2, [sp, #8]
ffff00000008ac88:	f9400fe0 	ldr	x0, [sp, #24]
ffff00000008ac8c:	f9001be0 	str	x0, [sp, #48]
ffff00000008ac90:	f9400be0 	ldr	x0, [sp, #16]
ffff00000008ac94:	f90017e0 	str	x0, [sp, #40]
ffff00000008ac98:	f9001fff 	str	xzr, [sp, #56]
ffff00000008ac9c:	1400000c 	b	ffff00000008accc <simple_memcpy+0x54>
ffff00000008aca0:	f94017e1 	ldr	x1, [sp, #40]
ffff00000008aca4:	f9401fe0 	ldr	x0, [sp, #56]
ffff00000008aca8:	8b000021 	add	x1, x1, x0
ffff00000008acac:	f9401be2 	ldr	x2, [sp, #48]
ffff00000008acb0:	f9401fe0 	ldr	x0, [sp, #56]
ffff00000008acb4:	8b000040 	add	x0, x2, x0
ffff00000008acb8:	39400021 	ldrb	w1, [x1]
ffff00000008acbc:	39000001 	strb	w1, [x0]
ffff00000008acc0:	f9401fe0 	ldr	x0, [sp, #56]
ffff00000008acc4:	91000400 	add	x0, x0, #0x1
ffff00000008acc8:	f9001fe0 	str	x0, [sp, #56]
ffff00000008accc:	f9401fe1 	ldr	x1, [sp, #56]
ffff00000008acd0:	f94007e0 	ldr	x0, [sp, #8]
ffff00000008acd4:	eb00003f 	cmp	x1, x0
ffff00000008acd8:	54fffe43 	b.cc	ffff00000008aca0 <simple_memcpy+0x28>  // b.lo, b.ul, b.last
ffff00000008acdc:	d503201f 	nop
ffff00000008ace0:	d503201f 	nop
ffff00000008ace4:	910103ff 	add	sp, sp, #0x40
ffff00000008ace8:	d65f03c0 	ret

ffff00000008acec <memcmp>:
ffff00000008acec:	d10103ff 	sub	sp, sp, #0x40
ffff00000008acf0:	f9000fe0 	str	x0, [sp, #24]
ffff00000008acf4:	f9000be1 	str	x1, [sp, #16]
ffff00000008acf8:	f90007e2 	str	x2, [sp, #8]
ffff00000008acfc:	f9400fe0 	ldr	x0, [sp, #24]
ffff00000008ad00:	f9001be0 	str	x0, [sp, #48]
ffff00000008ad04:	f9400be0 	ldr	x0, [sp, #16]
ffff00000008ad08:	f90017e0 	str	x0, [sp, #40]
ffff00000008ad0c:	f9001fff 	str	xzr, [sp, #56]
ffff00000008ad10:	14000019 	b	ffff00000008ad74 <memcmp+0x88>
ffff00000008ad14:	f9401be1 	ldr	x1, [sp, #48]
ffff00000008ad18:	f9401fe0 	ldr	x0, [sp, #56]
ffff00000008ad1c:	8b000020 	add	x0, x1, x0
ffff00000008ad20:	39400001 	ldrb	w1, [x0]
ffff00000008ad24:	f94017e2 	ldr	x2, [sp, #40]
ffff00000008ad28:	f9401fe0 	ldr	x0, [sp, #56]
ffff00000008ad2c:	8b000040 	add	x0, x2, x0
ffff00000008ad30:	39400000 	ldrb	w0, [x0]
ffff00000008ad34:	6b00003f 	cmp	w1, w0
ffff00000008ad38:	54000180 	b.eq	ffff00000008ad68 <memcmp+0x7c>  // b.none
ffff00000008ad3c:	f9401be1 	ldr	x1, [sp, #48]
ffff00000008ad40:	f9401fe0 	ldr	x0, [sp, #56]
ffff00000008ad44:	8b000020 	add	x0, x1, x0
ffff00000008ad48:	39400000 	ldrb	w0, [x0]
ffff00000008ad4c:	2a0003e2 	mov	w2, w0
ffff00000008ad50:	f94017e1 	ldr	x1, [sp, #40]
ffff00000008ad54:	f9401fe0 	ldr	x0, [sp, #56]
ffff00000008ad58:	8b000020 	add	x0, x1, x0
ffff00000008ad5c:	39400000 	ldrb	w0, [x0]
ffff00000008ad60:	4b000040 	sub	w0, w2, w0
ffff00000008ad64:	14000009 	b	ffff00000008ad88 <memcmp+0x9c>
ffff00000008ad68:	f9401fe0 	ldr	x0, [sp, #56]
ffff00000008ad6c:	91000400 	add	x0, x0, #0x1
ffff00000008ad70:	f9001fe0 	str	x0, [sp, #56]
ffff00000008ad74:	f9401fe1 	ldr	x1, [sp, #56]
ffff00000008ad78:	f94007e0 	ldr	x0, [sp, #8]
ffff00000008ad7c:	eb00003f 	cmp	x1, x0
ffff00000008ad80:	54fffca3 	b.cc	ffff00000008ad14 <memcmp+0x28>  // b.lo, b.ul, b.last
ffff00000008ad84:	52800000 	mov	w0, #0x0                   	// #0
ffff00000008ad88:	910103ff 	add	sp, sp, #0x40
ffff00000008ad8c:	d65f03c0 	ret

ffff00000008ad90 <strlen>:
ffff00000008ad90:	d10083ff 	sub	sp, sp, #0x20
ffff00000008ad94:	f90007e0 	str	x0, [sp, #8]
ffff00000008ad98:	f9000fff 	str	xzr, [sp, #24]
ffff00000008ad9c:	14000004 	b	ffff00000008adac <strlen+0x1c>
ffff00000008ada0:	f9400fe0 	ldr	x0, [sp, #24]
ffff00000008ada4:	91000400 	add	x0, x0, #0x1
ffff00000008ada8:	f9000fe0 	str	x0, [sp, #24]
ffff00000008adac:	f94007e1 	ldr	x1, [sp, #8]
ffff00000008adb0:	f9400fe0 	ldr	x0, [sp, #24]
ffff00000008adb4:	8b000020 	add	x0, x1, x0
ffff00000008adb8:	39400000 	ldrb	w0, [x0]
ffff00000008adbc:	7100001f 	cmp	w0, #0x0
ffff00000008adc0:	54ffff01 	b.ne	ffff00000008ada0 <strlen+0x10>  // b.any
ffff00000008adc4:	f9400fe0 	ldr	x0, [sp, #24]
ffff00000008adc8:	910083ff 	add	sp, sp, #0x20
ffff00000008adcc:	d65f03c0 	ret

ffff00000008add0 <strcmp>:
ffff00000008add0:	d10083ff 	sub	sp, sp, #0x20
ffff00000008add4:	f90007e0 	str	x0, [sp, #8]
ffff00000008add8:	f90003e1 	str	x1, [sp]
ffff00000008addc:	f94007e0 	ldr	x0, [sp, #8]
ffff00000008ade0:	f9000fe0 	str	x0, [sp, #24]
ffff00000008ade4:	f94003e0 	ldr	x0, [sp]
ffff00000008ade8:	f9000be0 	str	x0, [sp, #16]
ffff00000008adec:	1400000d 	b	ffff00000008ae20 <strcmp+0x50>
ffff00000008adf0:	f9400fe0 	ldr	x0, [sp, #24]
ffff00000008adf4:	39400000 	ldrb	w0, [x0]
ffff00000008adf8:	7100001f 	cmp	w0, #0x0
ffff00000008adfc:	54000061 	b.ne	ffff00000008ae08 <strcmp+0x38>  // b.any
ffff00000008ae00:	52800020 	mov	w0, #0x1                   	// #1
ffff00000008ae04:	1400000e 	b	ffff00000008ae3c <strcmp+0x6c>
ffff00000008ae08:	f9400fe0 	ldr	x0, [sp, #24]
ffff00000008ae0c:	91000400 	add	x0, x0, #0x1
ffff00000008ae10:	f9000fe0 	str	x0, [sp, #24]
ffff00000008ae14:	f9400be0 	ldr	x0, [sp, #16]
ffff00000008ae18:	91000400 	add	x0, x0, #0x1
ffff00000008ae1c:	f9000be0 	str	x0, [sp, #16]
ffff00000008ae20:	f9400fe0 	ldr	x0, [sp, #24]
ffff00000008ae24:	39400001 	ldrb	w1, [x0]
ffff00000008ae28:	f9400be0 	ldr	x0, [sp, #16]
ffff00000008ae2c:	39400000 	ldrb	w0, [x0]
ffff00000008ae30:	6b00003f 	cmp	w1, w0
ffff00000008ae34:	54fffde0 	b.eq	ffff00000008adf0 <strcmp+0x20>  // b.none
ffff00000008ae38:	52800000 	mov	w0, #0x0                   	// #0
ffff00000008ae3c:	910083ff 	add	sp, sp, #0x20
ffff00000008ae40:	d65f03c0 	ret

ffff00000008ae44 <strncmp>:
ffff00000008ae44:	d100c3ff 	sub	sp, sp, #0x30
ffff00000008ae48:	f9000fe0 	str	x0, [sp, #24]
ffff00000008ae4c:	f9000be1 	str	x1, [sp, #16]
ffff00000008ae50:	f90007e2 	str	x2, [sp, #8]
ffff00000008ae54:	f90017ff 	str	xzr, [sp, #40]
ffff00000008ae58:	14000021 	b	ffff00000008aedc <strncmp+0x98>
ffff00000008ae5c:	f9400fe1 	ldr	x1, [sp, #24]
ffff00000008ae60:	f94017e0 	ldr	x0, [sp, #40]
ffff00000008ae64:	8b000020 	add	x0, x1, x0
ffff00000008ae68:	39400001 	ldrb	w1, [x0]
ffff00000008ae6c:	f9400be2 	ldr	x2, [sp, #16]
ffff00000008ae70:	f94017e0 	ldr	x0, [sp, #40]
ffff00000008ae74:	8b000040 	add	x0, x2, x0
ffff00000008ae78:	39400000 	ldrb	w0, [x0]
ffff00000008ae7c:	6b00003f 	cmp	w1, w0
ffff00000008ae80:	54000180 	b.eq	ffff00000008aeb0 <strncmp+0x6c>  // b.none
ffff00000008ae84:	f9400fe1 	ldr	x1, [sp, #24]
ffff00000008ae88:	f94017e0 	ldr	x0, [sp, #40]
ffff00000008ae8c:	8b000020 	add	x0, x1, x0
ffff00000008ae90:	39400000 	ldrb	w0, [x0]
ffff00000008ae94:	2a0003e2 	mov	w2, w0
ffff00000008ae98:	f9400be1 	ldr	x1, [sp, #16]
ffff00000008ae9c:	f94017e0 	ldr	x0, [sp, #40]
ffff00000008aea0:	8b000020 	add	x0, x1, x0
ffff00000008aea4:	39400000 	ldrb	w0, [x0]
ffff00000008aea8:	4b000040 	sub	w0, w2, w0
ffff00000008aeac:	14000011 	b	ffff00000008aef0 <strncmp+0xac>
ffff00000008aeb0:	f9400fe1 	ldr	x1, [sp, #24]
ffff00000008aeb4:	f94017e0 	ldr	x0, [sp, #40]
ffff00000008aeb8:	8b000020 	add	x0, x1, x0
ffff00000008aebc:	39400000 	ldrb	w0, [x0]
ffff00000008aec0:	7100001f 	cmp	w0, #0x0
ffff00000008aec4:	54000061 	b.ne	ffff00000008aed0 <strncmp+0x8c>  // b.any
ffff00000008aec8:	52800000 	mov	w0, #0x0                   	// #0
ffff00000008aecc:	14000009 	b	ffff00000008aef0 <strncmp+0xac>
ffff00000008aed0:	f94017e0 	ldr	x0, [sp, #40]
ffff00000008aed4:	91000400 	add	x0, x0, #0x1
ffff00000008aed8:	f90017e0 	str	x0, [sp, #40]
ffff00000008aedc:	f94017e1 	ldr	x1, [sp, #40]
ffff00000008aee0:	f94007e0 	ldr	x0, [sp, #8]
ffff00000008aee4:	eb00003f 	cmp	x1, x0
ffff00000008aee8:	54fffba3 	b.cc	ffff00000008ae5c <strncmp+0x18>  // b.lo, b.ul, b.last
ffff00000008aeec:	52800000 	mov	w0, #0x0                   	// #0
ffff00000008aef0:	9100c3ff 	add	sp, sp, #0x30
ffff00000008aef4:	d65f03c0 	ret

ffff00000008aef8 <strtol>:
ffff00000008aef8:	d100c3ff 	sub	sp, sp, #0x30
ffff00000008aefc:	f9000fe0 	str	x0, [sp, #24]
ffff00000008af00:	f9000be1 	str	x1, [sp, #16]
ffff00000008af04:	b9000fe2 	str	w2, [sp, #12]
ffff00000008af08:	b9002fff 	str	wzr, [sp, #44]
ffff00000008af0c:	52800020 	mov	w0, #0x1                   	// #1
ffff00000008af10:	b9002be0 	str	w0, [sp, #40]
ffff00000008af14:	14000004 	b	ffff00000008af24 <strtol+0x2c>
ffff00000008af18:	f9400fe0 	ldr	x0, [sp, #24]
ffff00000008af1c:	91000400 	add	x0, x0, #0x1
ffff00000008af20:	f9000fe0 	str	x0, [sp, #24]
ffff00000008af24:	f9400fe0 	ldr	x0, [sp, #24]
ffff00000008af28:	39400000 	ldrb	w0, [x0]
ffff00000008af2c:	7100801f 	cmp	w0, #0x20
ffff00000008af30:	54ffff40 	b.eq	ffff00000008af18 <strtol+0x20>  // b.none
ffff00000008af34:	f9400fe0 	ldr	x0, [sp, #24]
ffff00000008af38:	39400000 	ldrb	w0, [x0]
ffff00000008af3c:	7100241f 	cmp	w0, #0x9
ffff00000008af40:	54fffec0 	b.eq	ffff00000008af18 <strtol+0x20>  // b.none
ffff00000008af44:	f9400fe0 	ldr	x0, [sp, #24]
ffff00000008af48:	39400000 	ldrb	w0, [x0]
ffff00000008af4c:	7100b41f 	cmp	w0, #0x2d
ffff00000008af50:	540000e1 	b.ne	ffff00000008af6c <strtol+0x74>  // b.any
ffff00000008af54:	12800000 	mov	w0, #0xffffffff            	// #-1
ffff00000008af58:	b9002be0 	str	w0, [sp, #40]
ffff00000008af5c:	f9400fe0 	ldr	x0, [sp, #24]
ffff00000008af60:	91000400 	add	x0, x0, #0x1
ffff00000008af64:	f9000fe0 	str	x0, [sp, #24]
ffff00000008af68:	14000008 	b	ffff00000008af88 <strtol+0x90>
ffff00000008af6c:	f9400fe0 	ldr	x0, [sp, #24]
ffff00000008af70:	39400000 	ldrb	w0, [x0]
ffff00000008af74:	7100ac1f 	cmp	w0, #0x2b
ffff00000008af78:	54000081 	b.ne	ffff00000008af88 <strtol+0x90>  // b.any
ffff00000008af7c:	f9400fe0 	ldr	x0, [sp, #24]
ffff00000008af80:	91000400 	add	x0, x0, #0x1
ffff00000008af84:	f9000fe0 	str	x0, [sp, #24]
ffff00000008af88:	b9400fe0 	ldr	w0, [sp, #12]
ffff00000008af8c:	7100001f 	cmp	w0, #0x0
ffff00000008af90:	54000a01 	b.ne	ffff00000008b0d0 <strtol+0x1d8>  // b.any
ffff00000008af94:	f9400fe0 	ldr	x0, [sp, #24]
ffff00000008af98:	39400000 	ldrb	w0, [x0]
ffff00000008af9c:	7100c01f 	cmp	w0, #0x30
ffff00000008afa0:	540002a1 	b.ne	ffff00000008aff4 <strtol+0xfc>  // b.any
ffff00000008afa4:	f9400fe0 	ldr	x0, [sp, #24]
ffff00000008afa8:	91000400 	add	x0, x0, #0x1
ffff00000008afac:	f9000fe0 	str	x0, [sp, #24]
ffff00000008afb0:	f9400fe0 	ldr	x0, [sp, #24]
ffff00000008afb4:	39400000 	ldrb	w0, [x0]
ffff00000008afb8:	7101e01f 	cmp	w0, #0x78
ffff00000008afbc:	540000a0 	b.eq	ffff00000008afd0 <strtol+0xd8>  // b.none
ffff00000008afc0:	f9400fe0 	ldr	x0, [sp, #24]
ffff00000008afc4:	39400000 	ldrb	w0, [x0]
ffff00000008afc8:	7101601f 	cmp	w0, #0x58
ffff00000008afcc:	540000e1 	b.ne	ffff00000008afe8 <strtol+0xf0>  // b.any
ffff00000008afd0:	52800200 	mov	w0, #0x10                  	// #16
ffff00000008afd4:	b9000fe0 	str	w0, [sp, #12]
ffff00000008afd8:	f9400fe0 	ldr	x0, [sp, #24]
ffff00000008afdc:	91000400 	add	x0, x0, #0x1
ffff00000008afe0:	f9000fe0 	str	x0, [sp, #24]
ffff00000008afe4:	14000006 	b	ffff00000008affc <strtol+0x104>
ffff00000008afe8:	52800100 	mov	w0, #0x8                   	// #8
ffff00000008afec:	b9000fe0 	str	w0, [sp, #12]
ffff00000008aff0:	14000038 	b	ffff00000008b0d0 <strtol+0x1d8>
ffff00000008aff4:	52800140 	mov	w0, #0xa                   	// #10
ffff00000008aff8:	b9000fe0 	str	w0, [sp, #12]
ffff00000008affc:	14000035 	b	ffff00000008b0d0 <strtol+0x1d8>
ffff00000008b000:	b90027ff 	str	wzr, [sp, #36]
ffff00000008b004:	f9400fe0 	ldr	x0, [sp, #24]
ffff00000008b008:	39400000 	ldrb	w0, [x0]
ffff00000008b00c:	7100bc1f 	cmp	w0, #0x2f
ffff00000008b010:	54000149 	b.ls	ffff00000008b038 <strtol+0x140>  // b.plast
ffff00000008b014:	f9400fe0 	ldr	x0, [sp, #24]
ffff00000008b018:	39400000 	ldrb	w0, [x0]
ffff00000008b01c:	7100e41f 	cmp	w0, #0x39
ffff00000008b020:	540000c8 	b.hi	ffff00000008b038 <strtol+0x140>  // b.pmore
ffff00000008b024:	f9400fe0 	ldr	x0, [sp, #24]
ffff00000008b028:	39400000 	ldrb	w0, [x0]
ffff00000008b02c:	5100c000 	sub	w0, w0, #0x30
ffff00000008b030:	b90027e0 	str	w0, [sp, #36]
ffff00000008b034:	1400001a 	b	ffff00000008b09c <strtol+0x1a4>
ffff00000008b038:	f9400fe0 	ldr	x0, [sp, #24]
ffff00000008b03c:	39400000 	ldrb	w0, [x0]
ffff00000008b040:	7101801f 	cmp	w0, #0x60
ffff00000008b044:	54000149 	b.ls	ffff00000008b06c <strtol+0x174>  // b.plast
ffff00000008b048:	f9400fe0 	ldr	x0, [sp, #24]
ffff00000008b04c:	39400000 	ldrb	w0, [x0]
ffff00000008b050:	7101981f 	cmp	w0, #0x66
ffff00000008b054:	540000c8 	b.hi	ffff00000008b06c <strtol+0x174>  // b.pmore
ffff00000008b058:	f9400fe0 	ldr	x0, [sp, #24]
ffff00000008b05c:	39400000 	ldrb	w0, [x0]
ffff00000008b060:	51015c00 	sub	w0, w0, #0x57
ffff00000008b064:	b90027e0 	str	w0, [sp, #36]
ffff00000008b068:	1400000d 	b	ffff00000008b09c <strtol+0x1a4>
ffff00000008b06c:	f9400fe0 	ldr	x0, [sp, #24]
ffff00000008b070:	39400000 	ldrb	w0, [x0]
ffff00000008b074:	7101001f 	cmp	w0, #0x40
ffff00000008b078:	54000129 	b.ls	ffff00000008b09c <strtol+0x1a4>  // b.plast
ffff00000008b07c:	f9400fe0 	ldr	x0, [sp, #24]
ffff00000008b080:	39400000 	ldrb	w0, [x0]
ffff00000008b084:	7101181f 	cmp	w0, #0x46
ffff00000008b088:	540000a8 	b.hi	ffff00000008b09c <strtol+0x1a4>  // b.pmore
ffff00000008b08c:	f9400fe0 	ldr	x0, [sp, #24]
ffff00000008b090:	39400000 	ldrb	w0, [x0]
ffff00000008b094:	5100dc00 	sub	w0, w0, #0x37
ffff00000008b098:	b90027e0 	str	w0, [sp, #36]
ffff00000008b09c:	b94027e1 	ldr	w1, [sp, #36]
ffff00000008b0a0:	b9400fe0 	ldr	w0, [sp, #12]
ffff00000008b0a4:	6b00003f 	cmp	w1, w0
ffff00000008b0a8:	5400046a 	b.ge	ffff00000008b134 <strtol+0x23c>  // b.tcont
ffff00000008b0ac:	b9402fe1 	ldr	w1, [sp, #44]
ffff00000008b0b0:	b9400fe0 	ldr	w0, [sp, #12]
ffff00000008b0b4:	1b007c20 	mul	w0, w1, w0
ffff00000008b0b8:	b94027e1 	ldr	w1, [sp, #36]
ffff00000008b0bc:	0b000020 	add	w0, w1, w0
ffff00000008b0c0:	b9002fe0 	str	w0, [sp, #44]
ffff00000008b0c4:	f9400fe0 	ldr	x0, [sp, #24]
ffff00000008b0c8:	91000400 	add	x0, x0, #0x1
ffff00000008b0cc:	f9000fe0 	str	x0, [sp, #24]
ffff00000008b0d0:	f9400fe0 	ldr	x0, [sp, #24]
ffff00000008b0d4:	39400000 	ldrb	w0, [x0]
ffff00000008b0d8:	7100bc1f 	cmp	w0, #0x2f
ffff00000008b0dc:	540000a9 	b.ls	ffff00000008b0f0 <strtol+0x1f8>  // b.plast
ffff00000008b0e0:	f9400fe0 	ldr	x0, [sp, #24]
ffff00000008b0e4:	39400000 	ldrb	w0, [x0]
ffff00000008b0e8:	7100e41f 	cmp	w0, #0x39
ffff00000008b0ec:	54fff8a9 	b.ls	ffff00000008b000 <strtol+0x108>  // b.plast
ffff00000008b0f0:	f9400fe0 	ldr	x0, [sp, #24]
ffff00000008b0f4:	39400000 	ldrb	w0, [x0]
ffff00000008b0f8:	7101801f 	cmp	w0, #0x60
ffff00000008b0fc:	540000a9 	b.ls	ffff00000008b110 <strtol+0x218>  // b.plast
ffff00000008b100:	f9400fe0 	ldr	x0, [sp, #24]
ffff00000008b104:	39400000 	ldrb	w0, [x0]
ffff00000008b108:	7101981f 	cmp	w0, #0x66
ffff00000008b10c:	54fff7a9 	b.ls	ffff00000008b000 <strtol+0x108>  // b.plast
ffff00000008b110:	f9400fe0 	ldr	x0, [sp, #24]
ffff00000008b114:	39400000 	ldrb	w0, [x0]
ffff00000008b118:	7101001f 	cmp	w0, #0x40
ffff00000008b11c:	540000e9 	b.ls	ffff00000008b138 <strtol+0x240>  // b.plast
ffff00000008b120:	f9400fe0 	ldr	x0, [sp, #24]
ffff00000008b124:	39400000 	ldrb	w0, [x0]
ffff00000008b128:	7101181f 	cmp	w0, #0x46
ffff00000008b12c:	54fff6a9 	b.ls	ffff00000008b000 <strtol+0x108>  // b.plast
ffff00000008b130:	14000002 	b	ffff00000008b138 <strtol+0x240>
ffff00000008b134:	d503201f 	nop
ffff00000008b138:	f9400be0 	ldr	x0, [sp, #16]
ffff00000008b13c:	f100001f 	cmp	x0, #0x0
ffff00000008b140:	54000080 	b.eq	ffff00000008b150 <strtol+0x258>  // b.none
ffff00000008b144:	f9400be0 	ldr	x0, [sp, #16]
ffff00000008b148:	f9400fe1 	ldr	x1, [sp, #24]
ffff00000008b14c:	f9000001 	str	x1, [x0]
ffff00000008b150:	b9402fe1 	ldr	w1, [sp, #44]
ffff00000008b154:	b9402be0 	ldr	w0, [sp, #40]
ffff00000008b158:	1b007c20 	mul	w0, w1, w0
ffff00000008b15c:	9100c3ff 	add	sp, sp, #0x30
ffff00000008b160:	d65f03c0 	ret

ffff00000008b164 <strtoull>:
ffff00000008b164:	d100c3ff 	sub	sp, sp, #0x30
ffff00000008b168:	f9000fe0 	str	x0, [sp, #24]
ffff00000008b16c:	f9000be1 	str	x1, [sp, #16]
ffff00000008b170:	b9000fe2 	str	w2, [sp, #12]
ffff00000008b174:	f90017ff 	str	xzr, [sp, #40]
ffff00000008b178:	14000004 	b	ffff00000008b188 <strtoull+0x24>
ffff00000008b17c:	f9400fe0 	ldr	x0, [sp, #24]
ffff00000008b180:	91000400 	add	x0, x0, #0x1
ffff00000008b184:	f9000fe0 	str	x0, [sp, #24]
ffff00000008b188:	f9400fe0 	ldr	x0, [sp, #24]
ffff00000008b18c:	39400000 	ldrb	w0, [x0]
ffff00000008b190:	7100801f 	cmp	w0, #0x20
ffff00000008b194:	54ffff40 	b.eq	ffff00000008b17c <strtoull+0x18>  // b.none
ffff00000008b198:	f9400fe0 	ldr	x0, [sp, #24]
ffff00000008b19c:	39400000 	ldrb	w0, [x0]
ffff00000008b1a0:	7100241f 	cmp	w0, #0x9
ffff00000008b1a4:	54fffec0 	b.eq	ffff00000008b17c <strtoull+0x18>  // b.none
ffff00000008b1a8:	f9400fe0 	ldr	x0, [sp, #24]
ffff00000008b1ac:	39400000 	ldrb	w0, [x0]
ffff00000008b1b0:	7100ac1f 	cmp	w0, #0x2b
ffff00000008b1b4:	540000a1 	b.ne	ffff00000008b1c8 <strtoull+0x64>  // b.any
ffff00000008b1b8:	f9400fe0 	ldr	x0, [sp, #24]
ffff00000008b1bc:	91000400 	add	x0, x0, #0x1
ffff00000008b1c0:	f9000fe0 	str	x0, [sp, #24]
ffff00000008b1c4:	1400000d 	b	ffff00000008b1f8 <strtoull+0x94>
ffff00000008b1c8:	f9400fe0 	ldr	x0, [sp, #24]
ffff00000008b1cc:	39400000 	ldrb	w0, [x0]
ffff00000008b1d0:	7100b41f 	cmp	w0, #0x2d
ffff00000008b1d4:	54000121 	b.ne	ffff00000008b1f8 <strtoull+0x94>  // b.any
ffff00000008b1d8:	f9400be0 	ldr	x0, [sp, #16]
ffff00000008b1dc:	f100001f 	cmp	x0, #0x0
ffff00000008b1e0:	54000080 	b.eq	ffff00000008b1f0 <strtoull+0x8c>  // b.none
ffff00000008b1e4:	f9400be0 	ldr	x0, [sp, #16]
ffff00000008b1e8:	f9400fe1 	ldr	x1, [sp, #24]
ffff00000008b1ec:	f9000001 	str	x1, [x0]
ffff00000008b1f0:	d2800000 	mov	x0, #0x0                   	// #0
ffff00000008b1f4:	14000074 	b	ffff00000008b3c4 <strtoull+0x260>
ffff00000008b1f8:	b9400fe0 	ldr	w0, [sp, #12]
ffff00000008b1fc:	7100001f 	cmp	w0, #0x0
ffff00000008b200:	54000a01 	b.ne	ffff00000008b340 <strtoull+0x1dc>  // b.any
ffff00000008b204:	f9400fe0 	ldr	x0, [sp, #24]
ffff00000008b208:	39400000 	ldrb	w0, [x0]
ffff00000008b20c:	7100c01f 	cmp	w0, #0x30
ffff00000008b210:	540002a1 	b.ne	ffff00000008b264 <strtoull+0x100>  // b.any
ffff00000008b214:	f9400fe0 	ldr	x0, [sp, #24]
ffff00000008b218:	91000400 	add	x0, x0, #0x1
ffff00000008b21c:	f9000fe0 	str	x0, [sp, #24]
ffff00000008b220:	f9400fe0 	ldr	x0, [sp, #24]
ffff00000008b224:	39400000 	ldrb	w0, [x0]
ffff00000008b228:	7101e01f 	cmp	w0, #0x78
ffff00000008b22c:	540000a0 	b.eq	ffff00000008b240 <strtoull+0xdc>  // b.none
ffff00000008b230:	f9400fe0 	ldr	x0, [sp, #24]
ffff00000008b234:	39400000 	ldrb	w0, [x0]
ffff00000008b238:	7101601f 	cmp	w0, #0x58
ffff00000008b23c:	540000e1 	b.ne	ffff00000008b258 <strtoull+0xf4>  // b.any
ffff00000008b240:	52800200 	mov	w0, #0x10                  	// #16
ffff00000008b244:	b9000fe0 	str	w0, [sp, #12]
ffff00000008b248:	f9400fe0 	ldr	x0, [sp, #24]
ffff00000008b24c:	91000400 	add	x0, x0, #0x1
ffff00000008b250:	f9000fe0 	str	x0, [sp, #24]
ffff00000008b254:	14000006 	b	ffff00000008b26c <strtoull+0x108>
ffff00000008b258:	52800100 	mov	w0, #0x8                   	// #8
ffff00000008b25c:	b9000fe0 	str	w0, [sp, #12]
ffff00000008b260:	14000038 	b	ffff00000008b340 <strtoull+0x1dc>
ffff00000008b264:	52800140 	mov	w0, #0xa                   	// #10
ffff00000008b268:	b9000fe0 	str	w0, [sp, #12]
ffff00000008b26c:	14000035 	b	ffff00000008b340 <strtoull+0x1dc>
ffff00000008b270:	b90027ff 	str	wzr, [sp, #36]
ffff00000008b274:	f9400fe0 	ldr	x0, [sp, #24]
ffff00000008b278:	39400000 	ldrb	w0, [x0]
ffff00000008b27c:	7100bc1f 	cmp	w0, #0x2f
ffff00000008b280:	54000149 	b.ls	ffff00000008b2a8 <strtoull+0x144>  // b.plast
ffff00000008b284:	f9400fe0 	ldr	x0, [sp, #24]
ffff00000008b288:	39400000 	ldrb	w0, [x0]
ffff00000008b28c:	7100e41f 	cmp	w0, #0x39
ffff00000008b290:	540000c8 	b.hi	ffff00000008b2a8 <strtoull+0x144>  // b.pmore
ffff00000008b294:	f9400fe0 	ldr	x0, [sp, #24]
ffff00000008b298:	39400000 	ldrb	w0, [x0]
ffff00000008b29c:	5100c000 	sub	w0, w0, #0x30
ffff00000008b2a0:	b90027e0 	str	w0, [sp, #36]
ffff00000008b2a4:	1400001a 	b	ffff00000008b30c <strtoull+0x1a8>
ffff00000008b2a8:	f9400fe0 	ldr	x0, [sp, #24]
ffff00000008b2ac:	39400000 	ldrb	w0, [x0]
ffff00000008b2b0:	7101801f 	cmp	w0, #0x60
ffff00000008b2b4:	54000149 	b.ls	ffff00000008b2dc <strtoull+0x178>  // b.plast
ffff00000008b2b8:	f9400fe0 	ldr	x0, [sp, #24]
ffff00000008b2bc:	39400000 	ldrb	w0, [x0]
ffff00000008b2c0:	7101981f 	cmp	w0, #0x66
ffff00000008b2c4:	540000c8 	b.hi	ffff00000008b2dc <strtoull+0x178>  // b.pmore
ffff00000008b2c8:	f9400fe0 	ldr	x0, [sp, #24]
ffff00000008b2cc:	39400000 	ldrb	w0, [x0]
ffff00000008b2d0:	51015c00 	sub	w0, w0, #0x57
ffff00000008b2d4:	b90027e0 	str	w0, [sp, #36]
ffff00000008b2d8:	1400000d 	b	ffff00000008b30c <strtoull+0x1a8>
ffff00000008b2dc:	f9400fe0 	ldr	x0, [sp, #24]
ffff00000008b2e0:	39400000 	ldrb	w0, [x0]
ffff00000008b2e4:	7101001f 	cmp	w0, #0x40
ffff00000008b2e8:	54000129 	b.ls	ffff00000008b30c <strtoull+0x1a8>  // b.plast
ffff00000008b2ec:	f9400fe0 	ldr	x0, [sp, #24]
ffff00000008b2f0:	39400000 	ldrb	w0, [x0]
ffff00000008b2f4:	7101181f 	cmp	w0, #0x46
ffff00000008b2f8:	540000a8 	b.hi	ffff00000008b30c <strtoull+0x1a8>  // b.pmore
ffff00000008b2fc:	f9400fe0 	ldr	x0, [sp, #24]
ffff00000008b300:	39400000 	ldrb	w0, [x0]
ffff00000008b304:	5100dc00 	sub	w0, w0, #0x37
ffff00000008b308:	b90027e0 	str	w0, [sp, #36]
ffff00000008b30c:	b94027e1 	ldr	w1, [sp, #36]
ffff00000008b310:	b9400fe0 	ldr	w0, [sp, #12]
ffff00000008b314:	6b00003f 	cmp	w1, w0
ffff00000008b318:	5400046a 	b.ge	ffff00000008b3a4 <strtoull+0x240>  // b.tcont
ffff00000008b31c:	b9800fe1 	ldrsw	x1, [sp, #12]
ffff00000008b320:	f94017e0 	ldr	x0, [sp, #40]
ffff00000008b324:	9b007c21 	mul	x1, x1, x0
ffff00000008b328:	b98027e0 	ldrsw	x0, [sp, #36]
ffff00000008b32c:	8b000020 	add	x0, x1, x0
ffff00000008b330:	f90017e0 	str	x0, [sp, #40]
ffff00000008b334:	f9400fe0 	ldr	x0, [sp, #24]
ffff00000008b338:	91000400 	add	x0, x0, #0x1
ffff00000008b33c:	f9000fe0 	str	x0, [sp, #24]
ffff00000008b340:	f9400fe0 	ldr	x0, [sp, #24]
ffff00000008b344:	39400000 	ldrb	w0, [x0]
ffff00000008b348:	7100bc1f 	cmp	w0, #0x2f
ffff00000008b34c:	540000a9 	b.ls	ffff00000008b360 <strtoull+0x1fc>  // b.plast
ffff00000008b350:	f9400fe0 	ldr	x0, [sp, #24]
ffff00000008b354:	39400000 	ldrb	w0, [x0]
ffff00000008b358:	7100e41f 	cmp	w0, #0x39
ffff00000008b35c:	54fff8a9 	b.ls	ffff00000008b270 <strtoull+0x10c>  // b.plast
ffff00000008b360:	f9400fe0 	ldr	x0, [sp, #24]
ffff00000008b364:	39400000 	ldrb	w0, [x0]
ffff00000008b368:	7101801f 	cmp	w0, #0x60
ffff00000008b36c:	540000a9 	b.ls	ffff00000008b380 <strtoull+0x21c>  // b.plast
ffff00000008b370:	f9400fe0 	ldr	x0, [sp, #24]
ffff00000008b374:	39400000 	ldrb	w0, [x0]
ffff00000008b378:	7101981f 	cmp	w0, #0x66
ffff00000008b37c:	54fff7a9 	b.ls	ffff00000008b270 <strtoull+0x10c>  // b.plast
ffff00000008b380:	f9400fe0 	ldr	x0, [sp, #24]
ffff00000008b384:	39400000 	ldrb	w0, [x0]
ffff00000008b388:	7101001f 	cmp	w0, #0x40
ffff00000008b38c:	540000e9 	b.ls	ffff00000008b3a8 <strtoull+0x244>  // b.plast
ffff00000008b390:	f9400fe0 	ldr	x0, [sp, #24]
ffff00000008b394:	39400000 	ldrb	w0, [x0]
ffff00000008b398:	7101181f 	cmp	w0, #0x46
ffff00000008b39c:	54fff6a9 	b.ls	ffff00000008b270 <strtoull+0x10c>  // b.plast
ffff00000008b3a0:	14000002 	b	ffff00000008b3a8 <strtoull+0x244>
ffff00000008b3a4:	d503201f 	nop
ffff00000008b3a8:	f9400be0 	ldr	x0, [sp, #16]
ffff00000008b3ac:	f100001f 	cmp	x0, #0x0
ffff00000008b3b0:	54000080 	b.eq	ffff00000008b3c0 <strtoull+0x25c>  // b.none
ffff00000008b3b4:	f9400be0 	ldr	x0, [sp, #16]
ffff00000008b3b8:	f9400fe1 	ldr	x1, [sp, #24]
ffff00000008b3bc:	f9000001 	str	x1, [x0]
ffff00000008b3c0:	f94017e0 	ldr	x0, [sp, #40]
ffff00000008b3c4:	9100c3ff 	add	sp, sp, #0x30
ffff00000008b3c8:	d65f03c0 	ret

ffff00000008b3cc <atoi>:
ffff00000008b3cc:	d10083ff 	sub	sp, sp, #0x20
ffff00000008b3d0:	f90007e0 	str	x0, [sp, #8]
ffff00000008b3d4:	b90007e1 	str	w1, [sp, #4]
ffff00000008b3d8:	b9001fff 	str	wzr, [sp, #28]
ffff00000008b3dc:	b9001bff 	str	wzr, [sp, #24]
ffff00000008b3e0:	14000042 	b	ffff00000008b4e8 <atoi+0x11c>
ffff00000008b3e4:	b90017ff 	str	wzr, [sp, #20]
ffff00000008b3e8:	b9801be0 	ldrsw	x0, [sp, #24]
ffff00000008b3ec:	f94007e1 	ldr	x1, [sp, #8]
ffff00000008b3f0:	8b000020 	add	x0, x1, x0
ffff00000008b3f4:	39400000 	ldrb	w0, [x0]
ffff00000008b3f8:	7100bc1f 	cmp	w0, #0x2f
ffff00000008b3fc:	540001c9 	b.ls	ffff00000008b434 <atoi+0x68>  // b.plast
ffff00000008b400:	b9801be0 	ldrsw	x0, [sp, #24]
ffff00000008b404:	f94007e1 	ldr	x1, [sp, #8]
ffff00000008b408:	8b000020 	add	x0, x1, x0
ffff00000008b40c:	39400000 	ldrb	w0, [x0]
ffff00000008b410:	7100e41f 	cmp	w0, #0x39
ffff00000008b414:	54000108 	b.hi	ffff00000008b434 <atoi+0x68>  // b.pmore
ffff00000008b418:	b9801be0 	ldrsw	x0, [sp, #24]
ffff00000008b41c:	f94007e1 	ldr	x1, [sp, #8]
ffff00000008b420:	8b000020 	add	x0, x1, x0
ffff00000008b424:	39400000 	ldrb	w0, [x0]
ffff00000008b428:	5100c000 	sub	w0, w0, #0x30
ffff00000008b42c:	b90017e0 	str	w0, [sp, #20]
ffff00000008b430:	14000026 	b	ffff00000008b4c8 <atoi+0xfc>
ffff00000008b434:	b9801be0 	ldrsw	x0, [sp, #24]
ffff00000008b438:	f94007e1 	ldr	x1, [sp, #8]
ffff00000008b43c:	8b000020 	add	x0, x1, x0
ffff00000008b440:	39400000 	ldrb	w0, [x0]
ffff00000008b444:	7101001f 	cmp	w0, #0x40
ffff00000008b448:	540001c9 	b.ls	ffff00000008b480 <atoi+0xb4>  // b.plast
ffff00000008b44c:	b9801be0 	ldrsw	x0, [sp, #24]
ffff00000008b450:	f94007e1 	ldr	x1, [sp, #8]
ffff00000008b454:	8b000020 	add	x0, x1, x0
ffff00000008b458:	39400000 	ldrb	w0, [x0]
ffff00000008b45c:	7101181f 	cmp	w0, #0x46
ffff00000008b460:	54000108 	b.hi	ffff00000008b480 <atoi+0xb4>  // b.pmore
ffff00000008b464:	b9801be0 	ldrsw	x0, [sp, #24]
ffff00000008b468:	f94007e1 	ldr	x1, [sp, #8]
ffff00000008b46c:	8b000020 	add	x0, x1, x0
ffff00000008b470:	39400000 	ldrb	w0, [x0]
ffff00000008b474:	5100dc00 	sub	w0, w0, #0x37
ffff00000008b478:	b90017e0 	str	w0, [sp, #20]
ffff00000008b47c:	14000013 	b	ffff00000008b4c8 <atoi+0xfc>
ffff00000008b480:	b9801be0 	ldrsw	x0, [sp, #24]
ffff00000008b484:	f94007e1 	ldr	x1, [sp, #8]
ffff00000008b488:	8b000020 	add	x0, x1, x0
ffff00000008b48c:	39400000 	ldrb	w0, [x0]
ffff00000008b490:	7101801f 	cmp	w0, #0x60
ffff00000008b494:	540001a9 	b.ls	ffff00000008b4c8 <atoi+0xfc>  // b.plast
ffff00000008b498:	b9801be0 	ldrsw	x0, [sp, #24]
ffff00000008b49c:	f94007e1 	ldr	x1, [sp, #8]
ffff00000008b4a0:	8b000020 	add	x0, x1, x0
ffff00000008b4a4:	39400000 	ldrb	w0, [x0]
ffff00000008b4a8:	7101981f 	cmp	w0, #0x66
ffff00000008b4ac:	540000e8 	b.hi	ffff00000008b4c8 <atoi+0xfc>  // b.pmore
ffff00000008b4b0:	b9801be0 	ldrsw	x0, [sp, #24]
ffff00000008b4b4:	f94007e1 	ldr	x1, [sp, #8]
ffff00000008b4b8:	8b000020 	add	x0, x1, x0
ffff00000008b4bc:	39400000 	ldrb	w0, [x0]
ffff00000008b4c0:	51015c00 	sub	w0, w0, #0x57
ffff00000008b4c4:	b90017e0 	str	w0, [sp, #20]
ffff00000008b4c8:	b9401fe0 	ldr	w0, [sp, #28]
ffff00000008b4cc:	531c6c00 	lsl	w0, w0, #4
ffff00000008b4d0:	b94017e1 	ldr	w1, [sp, #20]
ffff00000008b4d4:	0b000020 	add	w0, w1, w0
ffff00000008b4d8:	b9001fe0 	str	w0, [sp, #28]
ffff00000008b4dc:	b9401be0 	ldr	w0, [sp, #24]
ffff00000008b4e0:	11000400 	add	w0, w0, #0x1
ffff00000008b4e4:	b9001be0 	str	w0, [sp, #24]
ffff00000008b4e8:	b9401be1 	ldr	w1, [sp, #24]
ffff00000008b4ec:	b94007e0 	ldr	w0, [sp, #4]
ffff00000008b4f0:	6b00003f 	cmp	w1, w0
ffff00000008b4f4:	540000ea 	b.ge	ffff00000008b510 <atoi+0x144>  // b.tcont
ffff00000008b4f8:	b9801be0 	ldrsw	x0, [sp, #24]
ffff00000008b4fc:	f94007e1 	ldr	x1, [sp, #8]
ffff00000008b500:	8b000020 	add	x0, x1, x0
ffff00000008b504:	39400000 	ldrb	w0, [x0]
ffff00000008b508:	7100001f 	cmp	w0, #0x0
ffff00000008b50c:	54fff6c1 	b.ne	ffff00000008b3e4 <atoi+0x18>  // b.any
ffff00000008b510:	b9401fe0 	ldr	w0, [sp, #28]
ffff00000008b514:	910083ff 	add	sp, sp, #0x20
ffff00000008b518:	d65f03c0 	ret

ffff00000008b51c <get_el>:
ffff00000008b51c:	d10043ff 	sub	sp, sp, #0x10
ffff00000008b520:	d5384240 	mrs	x0, currentel
ffff00000008b524:	d342fc00 	lsr	x0, x0, #2
ffff00000008b528:	b9000fe0 	str	w0, [sp, #12]
ffff00000008b52c:	b9400fe0 	ldr	w0, [sp, #12]
ffff00000008b530:	910043ff 	add	sp, sp, #0x10
ffff00000008b534:	d65f03c0 	ret

ffff00000008b538 <enable_interrupt>:
ffff00000008b538:	d5034fff 	msr	daifclr, #0xf
ffff00000008b53c:	d503201f 	nop
ffff00000008b540:	d65f03c0 	ret

ffff00000008b544 <disable_interrupt>:
ffff00000008b544:	d5034fdf 	msr	daifset, #0xf
ffff00000008b548:	d503201f 	nop
ffff00000008b54c:	d65f03c0 	ret

ffff00000008b550 <wait_queue_init>:
ffff00000008b550:	d10043ff 	sub	sp, sp, #0x10
ffff00000008b554:	f90007e0 	str	x0, [sp, #8]
ffff00000008b558:	b90007e1 	str	w1, [sp, #4]
ffff00000008b55c:	f94007e0 	ldr	x0, [sp, #8]
ffff00000008b560:	b94007e1 	ldr	w1, [sp, #4]
ffff00000008b564:	b9000001 	str	w1, [x0]
ffff00000008b568:	f94007e0 	ldr	x0, [sp, #8]
ffff00000008b56c:	f900041f 	str	xzr, [x0, #8]
ffff00000008b570:	d503201f 	nop
ffff00000008b574:	910043ff 	add	sp, sp, #0x10
ffff00000008b578:	d65f03c0 	ret

ffff00000008b57c <is_in_wait_queue>:
ffff00000008b57c:	a9bd7bfd 	stp	x29, x30, [sp, #-48]!
ffff00000008b580:	910003fd 	mov	x29, sp
ffff00000008b584:	f9000fe0 	str	x0, [sp, #24]
ffff00000008b588:	f9000be1 	str	x1, [sp, #16]
ffff00000008b58c:	97ffffeb 	bl	ffff00000008b538 <enable_interrupt>
ffff00000008b590:	f9400be0 	ldr	x0, [sp, #16]
ffff00000008b594:	f9400400 	ldr	x0, [x0, #8]
ffff00000008b598:	f90017e0 	str	x0, [sp, #40]
ffff00000008b59c:	1400000a 	b	ffff00000008b5c4 <is_in_wait_queue+0x48>
ffff00000008b5a0:	f94017e1 	ldr	x1, [sp, #40]
ffff00000008b5a4:	f9400fe0 	ldr	x0, [sp, #24]
ffff00000008b5a8:	eb00003f 	cmp	x1, x0
ffff00000008b5ac:	54000061 	b.ne	ffff00000008b5b8 <is_in_wait_queue+0x3c>  // b.any
ffff00000008b5b0:	52800020 	mov	w0, #0x1                   	// #1
ffff00000008b5b4:	14000009 	b	ffff00000008b5d8 <is_in_wait_queue+0x5c>
ffff00000008b5b8:	f94017e0 	ldr	x0, [sp, #40]
ffff00000008b5bc:	f9401c00 	ldr	x0, [x0, #56]
ffff00000008b5c0:	f90017e0 	str	x0, [sp, #40]
ffff00000008b5c4:	f94017e0 	ldr	x0, [sp, #40]
ffff00000008b5c8:	f100001f 	cmp	x0, #0x0
ffff00000008b5cc:	54fffea1 	b.ne	ffff00000008b5a0 <is_in_wait_queue+0x24>  // b.any
ffff00000008b5d0:	97ffffdd 	bl	ffff00000008b544 <disable_interrupt>
ffff00000008b5d4:	52800000 	mov	w0, #0x0                   	// #0
ffff00000008b5d8:	a8c37bfd 	ldp	x29, x30, [sp], #48
ffff00000008b5dc:	d65f03c0 	ret

ffff00000008b5e0 <wait>:
ffff00000008b5e0:	a9bd7bfd 	stp	x29, x30, [sp, #-48]!
ffff00000008b5e4:	910003fd 	mov	x29, sp
ffff00000008b5e8:	f9000fe0 	str	x0, [sp, #24]
ffff00000008b5ec:	97ffffd6 	bl	ffff00000008b544 <disable_interrupt>
ffff00000008b5f0:	f9400fe0 	ldr	x0, [sp, #24]
ffff00000008b5f4:	b9400000 	ldr	w0, [x0]
ffff00000008b5f8:	51000401 	sub	w1, w0, #0x1
ffff00000008b5fc:	f9400fe0 	ldr	x0, [sp, #24]
ffff00000008b600:	b9000001 	str	w1, [x0]
ffff00000008b604:	f9400fe0 	ldr	x0, [sp, #24]
ffff00000008b608:	b9400000 	ldr	w0, [x0]
ffff00000008b60c:	7100001f 	cmp	w0, #0x0
ffff00000008b610:	5400080a 	b.ge	ffff00000008b710 <wait+0x130>  // b.tcont
ffff00000008b614:	9400098c 	bl	ffff00000008dc44 <get_current>
ffff00000008b618:	f90013e0 	str	x0, [sp, #32]
ffff00000008b61c:	f94013e0 	ldr	x0, [sp, #32]
ffff00000008b620:	f100001f 	cmp	x0, #0x0
ffff00000008b624:	540000a1 	b.ne	ffff00000008b638 <wait+0x58>  // b.any
ffff00000008b628:	d0000020 	adrp	x0, ffff000000091000 <pool_slots+0x570>
ffff00000008b62c:	91078000 	add	x0, x0, #0x1e0
ffff00000008b630:	97ffedf3 	bl	ffff000000086dfc <uart_write_str_raw>
ffff00000008b634:	14000000 	b	ffff00000008b634 <wait+0x54>
ffff00000008b638:	f94013e0 	ldr	x0, [sp, #32]
ffff00000008b63c:	b9400c00 	ldr	w0, [x0, #12]
ffff00000008b640:	7100001f 	cmp	w0, #0x0
ffff00000008b644:	540001c0 	b.eq	ffff00000008b67c <wait+0x9c>  // b.none
ffff00000008b648:	d0000020 	adrp	x0, ffff000000091000 <pool_slots+0x570>
ffff00000008b64c:	91082000 	add	x0, x0, #0x208
ffff00000008b650:	97ffedeb 	bl	ffff000000086dfc <uart_write_str_raw>
ffff00000008b654:	f94013e0 	ldr	x0, [sp, #32]
ffff00000008b658:	b9400c00 	ldr	w0, [x0, #12]
ffff00000008b65c:	97ffedff 	bl	ffff000000086e58 <uart_write_int_raw>
ffff00000008b660:	d0000020 	adrp	x0, ffff000000091000 <pool_slots+0x570>
ffff00000008b664:	91090000 	add	x0, x0, #0x240
ffff00000008b668:	97ffede5 	bl	ffff000000086dfc <uart_write_str_raw>
ffff00000008b66c:	f94013e0 	ldr	x0, [sp, #32]
ffff00000008b670:	b9400800 	ldr	w0, [x0, #8]
ffff00000008b674:	97ffedf9 	bl	ffff000000086e58 <uart_write_int_raw>
ffff00000008b678:	14000000 	b	ffff00000008b678 <wait+0x98>
ffff00000008b67c:	f94013e0 	ldr	x0, [sp, #32]
ffff00000008b680:	97fff4a8 	bl	ffff000000088920 <remove_from_ready_queue>
ffff00000008b684:	f94013e0 	ldr	x0, [sp, #32]
ffff00000008b688:	52800061 	mov	w1, #0x3                   	// #3
ffff00000008b68c:	b9000c01 	str	w1, [x0, #12]
ffff00000008b690:	f94013e0 	ldr	x0, [sp, #32]
ffff00000008b694:	f9001c1f 	str	xzr, [x0, #56]
ffff00000008b698:	f9400fe0 	ldr	x0, [sp, #24]
ffff00000008b69c:	f9400400 	ldr	x0, [x0, #8]
ffff00000008b6a0:	f100001f 	cmp	x0, #0x0
ffff00000008b6a4:	540000a1 	b.ne	ffff00000008b6b8 <wait+0xd8>  // b.any
ffff00000008b6a8:	f9400fe0 	ldr	x0, [sp, #24]
ffff00000008b6ac:	f94013e1 	ldr	x1, [sp, #32]
ffff00000008b6b0:	f9000401 	str	x1, [x0, #8]
ffff00000008b6b4:	14000014 	b	ffff00000008b704 <wait+0x124>
ffff00000008b6b8:	f9400fe0 	ldr	x0, [sp, #24]
ffff00000008b6bc:	f9400400 	ldr	x0, [x0, #8]
ffff00000008b6c0:	f90017e0 	str	x0, [sp, #40]
ffff00000008b6c4:	14000008 	b	ffff00000008b6e4 <wait+0x104>
ffff00000008b6c8:	f94017e0 	ldr	x0, [sp, #40]
ffff00000008b6cc:	f9401c00 	ldr	x0, [x0, #56]
ffff00000008b6d0:	f100001f 	cmp	x0, #0x0
ffff00000008b6d4:	54000100 	b.eq	ffff00000008b6f4 <wait+0x114>  // b.none
ffff00000008b6d8:	f94017e0 	ldr	x0, [sp, #40]
ffff00000008b6dc:	f9401c00 	ldr	x0, [x0, #56]
ffff00000008b6e0:	f90017e0 	str	x0, [sp, #40]
ffff00000008b6e4:	f94017e0 	ldr	x0, [sp, #40]
ffff00000008b6e8:	f100001f 	cmp	x0, #0x0
ffff00000008b6ec:	54fffee1 	b.ne	ffff00000008b6c8 <wait+0xe8>  // b.any
ffff00000008b6f0:	14000002 	b	ffff00000008b6f8 <wait+0x118>
ffff00000008b6f4:	d503201f 	nop
ffff00000008b6f8:	f94017e0 	ldr	x0, [sp, #40]
ffff00000008b6fc:	f94013e1 	ldr	x1, [sp, #32]
ffff00000008b700:	f9001c01 	str	x1, [x0, #56]
ffff00000008b704:	d2800000 	mov	x0, #0x0                   	// #0
ffff00000008b708:	97fff8c1 	bl	ffff000000089a0c <schedule_complete>
ffff00000008b70c:	14000002 	b	ffff00000008b714 <wait+0x134>
ffff00000008b710:	97ffff8a 	bl	ffff00000008b538 <enable_interrupt>
ffff00000008b714:	d503201f 	nop
ffff00000008b718:	a8c37bfd 	ldp	x29, x30, [sp], #48
ffff00000008b71c:	d65f03c0 	ret

ffff00000008b720 <signal>:
ffff00000008b720:	a9bd7bfd 	stp	x29, x30, [sp, #-48]!
ffff00000008b724:	910003fd 	mov	x29, sp
ffff00000008b728:	f9000fe0 	str	x0, [sp, #24]
ffff00000008b72c:	97ffff86 	bl	ffff00000008b544 <disable_interrupt>
ffff00000008b730:	f9400fe0 	ldr	x0, [sp, #24]
ffff00000008b734:	b9400000 	ldr	w0, [x0]
ffff00000008b738:	11000401 	add	w1, w0, #0x1
ffff00000008b73c:	f9400fe0 	ldr	x0, [sp, #24]
ffff00000008b740:	b9000001 	str	w1, [x0]
ffff00000008b744:	f9400fe0 	ldr	x0, [sp, #24]
ffff00000008b748:	b9400000 	ldr	w0, [x0]
ffff00000008b74c:	7100001f 	cmp	w0, #0x0
ffff00000008b750:	5400084c 	b.gt	ffff00000008b858 <signal+0x138>
ffff00000008b754:	f9400fe0 	ldr	x0, [sp, #24]
ffff00000008b758:	f9400400 	ldr	x0, [x0, #8]
ffff00000008b75c:	f100001f 	cmp	x0, #0x0
ffff00000008b760:	54000061 	b.ne	ffff00000008b76c <signal+0x4c>  // b.any
ffff00000008b764:	97ffff75 	bl	ffff00000008b538 <enable_interrupt>
ffff00000008b768:	1400003d 	b	ffff00000008b85c <signal+0x13c>
ffff00000008b76c:	f9400fe0 	ldr	x0, [sp, #24]
ffff00000008b770:	f9400400 	ldr	x0, [x0, #8]
ffff00000008b774:	f90013e0 	str	x0, [sp, #32]
ffff00000008b778:	f94013e0 	ldr	x0, [sp, #32]
ffff00000008b77c:	f100001f 	cmp	x0, #0x0
ffff00000008b780:	540006c0 	b.eq	ffff00000008b858 <signal+0x138>  // b.none
ffff00000008b784:	f94013e0 	ldr	x0, [sp, #32]
ffff00000008b788:	b9400c00 	ldr	w0, [x0, #12]
ffff00000008b78c:	71000c1f 	cmp	w0, #0x3
ffff00000008b790:	540001c0 	b.eq	ffff00000008b7c8 <signal+0xa8>  // b.none
ffff00000008b794:	d0000020 	adrp	x0, ffff000000091000 <pool_slots+0x570>
ffff00000008b798:	91094000 	add	x0, x0, #0x250
ffff00000008b79c:	97ffed98 	bl	ffff000000086dfc <uart_write_str_raw>
ffff00000008b7a0:	f94013e0 	ldr	x0, [sp, #32]
ffff00000008b7a4:	b9400800 	ldr	w0, [x0, #8]
ffff00000008b7a8:	97ffedac 	bl	ffff000000086e58 <uart_write_int_raw>
ffff00000008b7ac:	d0000020 	adrp	x0, ffff000000091000 <pool_slots+0x570>
ffff00000008b7b0:	910a2000 	add	x0, x0, #0x288
ffff00000008b7b4:	97ffed92 	bl	ffff000000086dfc <uart_write_str_raw>
ffff00000008b7b8:	f94013e0 	ldr	x0, [sp, #32]
ffff00000008b7bc:	b9400c00 	ldr	w0, [x0, #12]
ffff00000008b7c0:	97ffeda6 	bl	ffff000000086e58 <uart_write_int_raw>
ffff00000008b7c4:	14000000 	b	ffff00000008b7c4 <signal+0xa4>
ffff00000008b7c8:	f94013e0 	ldr	x0, [sp, #32]
ffff00000008b7cc:	f9401c01 	ldr	x1, [x0, #56]
ffff00000008b7d0:	f9400fe0 	ldr	x0, [sp, #24]
ffff00000008b7d4:	f9000401 	str	x1, [x0, #8]
ffff00000008b7d8:	f94013e0 	ldr	x0, [sp, #32]
ffff00000008b7dc:	b9000c1f 	str	wzr, [x0, #12]
ffff00000008b7e0:	f94013e0 	ldr	x0, [sp, #32]
ffff00000008b7e4:	f9001c1f 	str	xzr, [x0, #56]
ffff00000008b7e8:	f94013e0 	ldr	x0, [sp, #32]
ffff00000008b7ec:	b9401001 	ldr	w1, [x0, #16]
ffff00000008b7f0:	f0000020 	adrp	x0, ffff000000092000 <pool_slots+0xe38>
ffff00000008b7f4:	f943e000 	ldr	x0, [x0, #1984]
ffff00000008b7f8:	93407c21 	sxtw	x1, w1
ffff00000008b7fc:	f8617800 	ldr	x0, [x0, x1, lsl #3]
ffff00000008b800:	f90017e0 	str	x0, [sp, #40]
ffff00000008b804:	f94017e0 	ldr	x0, [sp, #40]
ffff00000008b808:	f100001f 	cmp	x0, #0x0
ffff00000008b80c:	54000181 	b.ne	ffff00000008b83c <signal+0x11c>  // b.any
ffff00000008b810:	f94013e0 	ldr	x0, [sp, #32]
ffff00000008b814:	b9401001 	ldr	w1, [x0, #16]
ffff00000008b818:	f0000020 	adrp	x0, ffff000000092000 <pool_slots+0xe38>
ffff00000008b81c:	f943e000 	ldr	x0, [x0, #1984]
ffff00000008b820:	93407c21 	sxtw	x1, w1
ffff00000008b824:	f94013e2 	ldr	x2, [sp, #32]
ffff00000008b828:	f8217802 	str	x2, [x0, x1, lsl #3]
ffff00000008b82c:	1400000b 	b	ffff00000008b858 <signal+0x138>
ffff00000008b830:	f94017e0 	ldr	x0, [sp, #40]
ffff00000008b834:	f9401c00 	ldr	x0, [x0, #56]
ffff00000008b838:	f90017e0 	str	x0, [sp, #40]
ffff00000008b83c:	f94017e0 	ldr	x0, [sp, #40]
ffff00000008b840:	f9401c00 	ldr	x0, [x0, #56]
ffff00000008b844:	f100001f 	cmp	x0, #0x0
ffff00000008b848:	54ffff41 	b.ne	ffff00000008b830 <signal+0x110>  // b.any
ffff00000008b84c:	f94017e0 	ldr	x0, [sp, #40]
ffff00000008b850:	f94013e1 	ldr	x1, [sp, #32]
ffff00000008b854:	f9001c01 	str	x1, [x0, #56]
ffff00000008b858:	97ffff38 	bl	ffff00000008b538 <enable_interrupt>
ffff00000008b85c:	a8c37bfd 	ldp	x29, x30, [sp], #48
ffff00000008b860:	d65f03c0 	ret

ffff00000008b864 <signal_all>:
ffff00000008b864:	a9be7bfd 	stp	x29, x30, [sp, #-32]!
ffff00000008b868:	910003fd 	mov	x29, sp
ffff00000008b86c:	f9000fe0 	str	x0, [sp, #24]
ffff00000008b870:	97ffff35 	bl	ffff00000008b544 <disable_interrupt>
ffff00000008b874:	14000008 	b	ffff00000008b894 <signal_all+0x30>
ffff00000008b878:	f9400fe0 	ldr	x0, [sp, #24]
ffff00000008b87c:	b9400000 	ldr	w0, [x0]
ffff00000008b880:	11000401 	add	w1, w0, #0x1
ffff00000008b884:	f9400fe0 	ldr	x0, [sp, #24]
ffff00000008b888:	b9000001 	str	w1, [x0]
ffff00000008b88c:	f9400fe0 	ldr	x0, [sp, #24]
ffff00000008b890:	97ffffa4 	bl	ffff00000008b720 <signal>
ffff00000008b894:	f9400fe0 	ldr	x0, [sp, #24]
ffff00000008b898:	f9400400 	ldr	x0, [x0, #8]
ffff00000008b89c:	f100001f 	cmp	x0, #0x0
ffff00000008b8a0:	54fffec1 	b.ne	ffff00000008b878 <signal_all+0x14>  // b.any
ffff00000008b8a4:	97ffff25 	bl	ffff00000008b538 <enable_interrupt>
ffff00000008b8a8:	d503201f 	nop
ffff00000008b8ac:	a8c27bfd 	ldp	x29, x30, [sp], #32
ffff00000008b8b0:	d65f03c0 	ret
	...

ffff00000008c000 <load_all_preempt>:
ffff00000008c000:	a94007e0 	ldp	x0, x1, [sp]
ffff00000008c004:	a9410fe2 	ldp	x2, x3, [sp, #16]
ffff00000008c008:	a94217e4 	ldp	x4, x5, [sp, #32]
ffff00000008c00c:	a94427e8 	ldp	x8, x9, [sp, #64]
ffff00000008c010:	a9452fea 	ldp	x10, x11, [sp, #80]
ffff00000008c014:	a94637ec 	ldp	x12, x13, [sp, #96]
ffff00000008c018:	a9473fee 	ldp	x14, x15, [sp, #112]
ffff00000008c01c:	a94847f0 	ldp	x16, x17, [sp, #128]
ffff00000008c020:	a9494ff2 	ldp	x18, x19, [sp, #144]
ffff00000008c024:	a94a57f4 	ldp	x20, x21, [sp, #160]
ffff00000008c028:	a94b5ff6 	ldp	x22, x23, [sp, #176]
ffff00000008c02c:	a94c67f8 	ldp	x24, x25, [sp, #192]
ffff00000008c030:	a94d6ffa 	ldp	x26, x27, [sp, #208]
ffff00000008c034:	a94e77fc 	ldp	x28, x29, [sp, #224]
ffff00000008c038:	a94f0bfe 	ldp	x30, x2, [sp, #240]
ffff00000008c03c:	f94083e3 	ldr	x3, [sp, #256]
ffff00000008c040:	d5184003 	msr	spsr_el1, x3
ffff00000008c044:	f94087e4 	ldr	x4, [sp, #264]
ffff00000008c048:	d5184024 	msr	elr_el1, x4
ffff00000008c04c:	f9408be5 	ldr	x5, [sp, #272]
ffff00000008c050:	d5184105 	msr	sp_el0, x5
ffff00000008c054:	f9408fe6 	ldr	x6, [sp, #280]
ffff00000008c058:	910483ff 	add	sp, sp, #0x120
ffff00000008c05c:	b4000046 	cbz	x6, ffff00000008c064 <load_all_preempt+0x64>
ffff00000008c060:	d69f03e0 	eret
ffff00000008c064:	d65f03c0 	ret

ffff00000008c068 <get_el_s>:
ffff00000008c068:	d5384240 	mrs	x0, currentel
ffff00000008c06c:	d342fc00 	lsr	x0, x0, #2
ffff00000008c070:	d65f03c0 	ret

ffff00000008c074 <enable_irq>:
ffff00000008c074:	d50342ff 	msr	daifclr, #0x2
ffff00000008c078:	d65f03c0 	ret

ffff00000008c07c <disable_irq>:
ffff00000008c07c:	d50342df 	msr	daifset, #0x2
ffff00000008c080:	d65f03c0 	ret
ffff00000008c084:	d503201f 	nop
ffff00000008c088:	d503201f 	nop
ffff00000008c08c:	d503201f 	nop
ffff00000008c090:	d503201f 	nop
ffff00000008c094:	d503201f 	nop
ffff00000008c098:	d503201f 	nop
ffff00000008c09c:	d503201f 	nop
ffff00000008c0a0:	d503201f 	nop
ffff00000008c0a4:	d503201f 	nop
ffff00000008c0a8:	d503201f 	nop
ffff00000008c0ac:	d503201f 	nop
ffff00000008c0b0:	d503201f 	nop
ffff00000008c0b4:	d503201f 	nop
ffff00000008c0b8:	d503201f 	nop
ffff00000008c0bc:	d503201f 	nop
ffff00000008c0c0:	d503201f 	nop
ffff00000008c0c4:	d503201f 	nop
ffff00000008c0c8:	d503201f 	nop
ffff00000008c0cc:	d503201f 	nop
ffff00000008c0d0:	d503201f 	nop
ffff00000008c0d4:	d503201f 	nop
ffff00000008c0d8:	d503201f 	nop
ffff00000008c0dc:	d503201f 	nop
ffff00000008c0e0:	d503201f 	nop
ffff00000008c0e4:	d503201f 	nop
ffff00000008c0e8:	d503201f 	nop
ffff00000008c0ec:	d503201f 	nop
ffff00000008c0f0:	d503201f 	nop
ffff00000008c0f4:	d503201f 	nop
ffff00000008c0f8:	d503201f 	nop
ffff00000008c0fc:	d503201f 	nop
ffff00000008c100:	d503201f 	nop
ffff00000008c104:	d503201f 	nop
ffff00000008c108:	d503201f 	nop
ffff00000008c10c:	d503201f 	nop
ffff00000008c110:	d503201f 	nop
ffff00000008c114:	d503201f 	nop
ffff00000008c118:	d503201f 	nop
ffff00000008c11c:	d503201f 	nop
ffff00000008c120:	d503201f 	nop
ffff00000008c124:	d503201f 	nop
ffff00000008c128:	d503201f 	nop
ffff00000008c12c:	d503201f 	nop
ffff00000008c130:	d503201f 	nop
ffff00000008c134:	d503201f 	nop
ffff00000008c138:	d503201f 	nop
ffff00000008c13c:	d503201f 	nop
ffff00000008c140:	d503201f 	nop
ffff00000008c144:	d503201f 	nop
ffff00000008c148:	d503201f 	nop
ffff00000008c14c:	d503201f 	nop
ffff00000008c150:	d503201f 	nop
ffff00000008c154:	d503201f 	nop
ffff00000008c158:	d503201f 	nop
ffff00000008c15c:	d503201f 	nop
ffff00000008c160:	d503201f 	nop
ffff00000008c164:	d503201f 	nop
ffff00000008c168:	d503201f 	nop
ffff00000008c16c:	d503201f 	nop
ffff00000008c170:	d503201f 	nop
ffff00000008c174:	d503201f 	nop
ffff00000008c178:	d503201f 	nop
ffff00000008c17c:	d503201f 	nop
ffff00000008c180:	d503201f 	nop
ffff00000008c184:	d503201f 	nop
ffff00000008c188:	d503201f 	nop
ffff00000008c18c:	d503201f 	nop
ffff00000008c190:	d503201f 	nop
ffff00000008c194:	d503201f 	nop
ffff00000008c198:	d503201f 	nop
ffff00000008c19c:	d503201f 	nop
ffff00000008c1a0:	d503201f 	nop
ffff00000008c1a4:	d503201f 	nop
ffff00000008c1a8:	d503201f 	nop
ffff00000008c1ac:	d503201f 	nop
ffff00000008c1b0:	d503201f 	nop
ffff00000008c1b4:	d503201f 	nop
ffff00000008c1b8:	d503201f 	nop
ffff00000008c1bc:	d503201f 	nop
ffff00000008c1c0:	d503201f 	nop
ffff00000008c1c4:	d503201f 	nop
ffff00000008c1c8:	d503201f 	nop
ffff00000008c1cc:	d503201f 	nop
ffff00000008c1d0:	d503201f 	nop
ffff00000008c1d4:	d503201f 	nop
ffff00000008c1d8:	d503201f 	nop
ffff00000008c1dc:	d503201f 	nop
ffff00000008c1e0:	d503201f 	nop
ffff00000008c1e4:	d503201f 	nop
ffff00000008c1e8:	d503201f 	nop
ffff00000008c1ec:	d503201f 	nop
ffff00000008c1f0:	d503201f 	nop
ffff00000008c1f4:	d503201f 	nop
ffff00000008c1f8:	d503201f 	nop
ffff00000008c1fc:	d503201f 	nop
ffff00000008c200:	d503201f 	nop
ffff00000008c204:	d503201f 	nop
ffff00000008c208:	d503201f 	nop
ffff00000008c20c:	d503201f 	nop
ffff00000008c210:	d503201f 	nop
ffff00000008c214:	d503201f 	nop
ffff00000008c218:	d503201f 	nop
ffff00000008c21c:	d503201f 	nop
ffff00000008c220:	d503201f 	nop
ffff00000008c224:	d503201f 	nop
ffff00000008c228:	d503201f 	nop
ffff00000008c22c:	d503201f 	nop
ffff00000008c230:	d503201f 	nop
ffff00000008c234:	d503201f 	nop
ffff00000008c238:	d503201f 	nop
ffff00000008c23c:	d503201f 	nop
ffff00000008c240:	d503201f 	nop
ffff00000008c244:	d503201f 	nop
ffff00000008c248:	d503201f 	nop
ffff00000008c24c:	d503201f 	nop
ffff00000008c250:	d503201f 	nop
ffff00000008c254:	d503201f 	nop
ffff00000008c258:	d503201f 	nop
ffff00000008c25c:	d503201f 	nop
ffff00000008c260:	d503201f 	nop
ffff00000008c264:	d503201f 	nop
ffff00000008c268:	d503201f 	nop
ffff00000008c26c:	d503201f 	nop
ffff00000008c270:	d503201f 	nop
ffff00000008c274:	d503201f 	nop
ffff00000008c278:	d503201f 	nop
ffff00000008c27c:	d503201f 	nop
ffff00000008c280:	d503201f 	nop
ffff00000008c284:	d503201f 	nop
ffff00000008c288:	d503201f 	nop
ffff00000008c28c:	d503201f 	nop
ffff00000008c290:	d503201f 	nop
ffff00000008c294:	d503201f 	nop
ffff00000008c298:	d503201f 	nop
ffff00000008c29c:	d503201f 	nop
ffff00000008c2a0:	d503201f 	nop
ffff00000008c2a4:	d503201f 	nop
ffff00000008c2a8:	d503201f 	nop
ffff00000008c2ac:	d503201f 	nop
ffff00000008c2b0:	d503201f 	nop
ffff00000008c2b4:	d503201f 	nop
ffff00000008c2b8:	d503201f 	nop
ffff00000008c2bc:	d503201f 	nop
ffff00000008c2c0:	d503201f 	nop
ffff00000008c2c4:	d503201f 	nop
ffff00000008c2c8:	d503201f 	nop
ffff00000008c2cc:	d503201f 	nop
ffff00000008c2d0:	d503201f 	nop
ffff00000008c2d4:	d503201f 	nop
ffff00000008c2d8:	d503201f 	nop
ffff00000008c2dc:	d503201f 	nop
ffff00000008c2e0:	d503201f 	nop
ffff00000008c2e4:	d503201f 	nop
ffff00000008c2e8:	d503201f 	nop
ffff00000008c2ec:	d503201f 	nop
ffff00000008c2f0:	d503201f 	nop
ffff00000008c2f4:	d503201f 	nop
ffff00000008c2f8:	d503201f 	nop
ffff00000008c2fc:	d503201f 	nop
ffff00000008c300:	d503201f 	nop
ffff00000008c304:	d503201f 	nop
ffff00000008c308:	d503201f 	nop
ffff00000008c30c:	d503201f 	nop
ffff00000008c310:	d503201f 	nop
ffff00000008c314:	d503201f 	nop
ffff00000008c318:	d503201f 	nop
ffff00000008c31c:	d503201f 	nop
ffff00000008c320:	d503201f 	nop
ffff00000008c324:	d503201f 	nop
ffff00000008c328:	d503201f 	nop
ffff00000008c32c:	d503201f 	nop
ffff00000008c330:	d503201f 	nop
ffff00000008c334:	d503201f 	nop
ffff00000008c338:	d503201f 	nop
ffff00000008c33c:	d503201f 	nop
ffff00000008c340:	d503201f 	nop
ffff00000008c344:	d503201f 	nop
ffff00000008c348:	d503201f 	nop
ffff00000008c34c:	d503201f 	nop
ffff00000008c350:	d503201f 	nop
ffff00000008c354:	d503201f 	nop
ffff00000008c358:	d503201f 	nop
ffff00000008c35c:	d503201f 	nop
ffff00000008c360:	d503201f 	nop
ffff00000008c364:	d503201f 	nop
ffff00000008c368:	d503201f 	nop
ffff00000008c36c:	d503201f 	nop
ffff00000008c370:	d503201f 	nop
ffff00000008c374:	d503201f 	nop
ffff00000008c378:	d503201f 	nop
ffff00000008c37c:	d503201f 	nop
ffff00000008c380:	d503201f 	nop
ffff00000008c384:	d503201f 	nop
ffff00000008c388:	d503201f 	nop
ffff00000008c38c:	d503201f 	nop
ffff00000008c390:	d503201f 	nop
ffff00000008c394:	d503201f 	nop
ffff00000008c398:	d503201f 	nop
ffff00000008c39c:	d503201f 	nop
ffff00000008c3a0:	d503201f 	nop
ffff00000008c3a4:	d503201f 	nop
ffff00000008c3a8:	d503201f 	nop
ffff00000008c3ac:	d503201f 	nop
ffff00000008c3b0:	d503201f 	nop
ffff00000008c3b4:	d503201f 	nop
ffff00000008c3b8:	d503201f 	nop
ffff00000008c3bc:	d503201f 	nop
ffff00000008c3c0:	d503201f 	nop
ffff00000008c3c4:	d503201f 	nop
ffff00000008c3c8:	d503201f 	nop
ffff00000008c3cc:	d503201f 	nop
ffff00000008c3d0:	d503201f 	nop
ffff00000008c3d4:	d503201f 	nop
ffff00000008c3d8:	d503201f 	nop
ffff00000008c3dc:	d503201f 	nop
ffff00000008c3e0:	d503201f 	nop
ffff00000008c3e4:	d503201f 	nop
ffff00000008c3e8:	d503201f 	nop
ffff00000008c3ec:	d503201f 	nop
ffff00000008c3f0:	d503201f 	nop
ffff00000008c3f4:	d503201f 	nop
ffff00000008c3f8:	d503201f 	nop
ffff00000008c3fc:	d503201f 	nop
ffff00000008c400:	d503201f 	nop
ffff00000008c404:	d503201f 	nop
ffff00000008c408:	d503201f 	nop
ffff00000008c40c:	d503201f 	nop
ffff00000008c410:	d503201f 	nop
ffff00000008c414:	d503201f 	nop
ffff00000008c418:	d503201f 	nop
ffff00000008c41c:	d503201f 	nop
ffff00000008c420:	d503201f 	nop
ffff00000008c424:	d503201f 	nop
ffff00000008c428:	d503201f 	nop
ffff00000008c42c:	d503201f 	nop
ffff00000008c430:	d503201f 	nop
ffff00000008c434:	d503201f 	nop
ffff00000008c438:	d503201f 	nop
ffff00000008c43c:	d503201f 	nop
ffff00000008c440:	d503201f 	nop
ffff00000008c444:	d503201f 	nop
ffff00000008c448:	d503201f 	nop
ffff00000008c44c:	d503201f 	nop
ffff00000008c450:	d503201f 	nop
ffff00000008c454:	d503201f 	nop
ffff00000008c458:	d503201f 	nop
ffff00000008c45c:	d503201f 	nop
ffff00000008c460:	d503201f 	nop
ffff00000008c464:	d503201f 	nop
ffff00000008c468:	d503201f 	nop
ffff00000008c46c:	d503201f 	nop
ffff00000008c470:	d503201f 	nop
ffff00000008c474:	d503201f 	nop
ffff00000008c478:	d503201f 	nop
ffff00000008c47c:	d503201f 	nop
ffff00000008c480:	d503201f 	nop
ffff00000008c484:	d503201f 	nop
ffff00000008c488:	d503201f 	nop
ffff00000008c48c:	d503201f 	nop
ffff00000008c490:	d503201f 	nop
ffff00000008c494:	d503201f 	nop
ffff00000008c498:	d503201f 	nop
ffff00000008c49c:	d503201f 	nop
ffff00000008c4a0:	d503201f 	nop
ffff00000008c4a4:	d503201f 	nop
ffff00000008c4a8:	d503201f 	nop
ffff00000008c4ac:	d503201f 	nop
ffff00000008c4b0:	d503201f 	nop
ffff00000008c4b4:	d503201f 	nop
ffff00000008c4b8:	d503201f 	nop
ffff00000008c4bc:	d503201f 	nop
ffff00000008c4c0:	d503201f 	nop
ffff00000008c4c4:	d503201f 	nop
ffff00000008c4c8:	d503201f 	nop
ffff00000008c4cc:	d503201f 	nop
ffff00000008c4d0:	d503201f 	nop
ffff00000008c4d4:	d503201f 	nop
ffff00000008c4d8:	d503201f 	nop
ffff00000008c4dc:	d503201f 	nop
ffff00000008c4e0:	d503201f 	nop
ffff00000008c4e4:	d503201f 	nop
ffff00000008c4e8:	d503201f 	nop
ffff00000008c4ec:	d503201f 	nop
ffff00000008c4f0:	d503201f 	nop
ffff00000008c4f4:	d503201f 	nop
ffff00000008c4f8:	d503201f 	nop
ffff00000008c4fc:	d503201f 	nop
ffff00000008c500:	d503201f 	nop
ffff00000008c504:	d503201f 	nop
ffff00000008c508:	d503201f 	nop
ffff00000008c50c:	d503201f 	nop
ffff00000008c510:	d503201f 	nop
ffff00000008c514:	d503201f 	nop
ffff00000008c518:	d503201f 	nop
ffff00000008c51c:	d503201f 	nop
ffff00000008c520:	d503201f 	nop
ffff00000008c524:	d503201f 	nop
ffff00000008c528:	d503201f 	nop
ffff00000008c52c:	d503201f 	nop
ffff00000008c530:	d503201f 	nop
ffff00000008c534:	d503201f 	nop
ffff00000008c538:	d503201f 	nop
ffff00000008c53c:	d503201f 	nop
ffff00000008c540:	d503201f 	nop
ffff00000008c544:	d503201f 	nop
ffff00000008c548:	d503201f 	nop
ffff00000008c54c:	d503201f 	nop
ffff00000008c550:	d503201f 	nop
ffff00000008c554:	d503201f 	nop
ffff00000008c558:	d503201f 	nop
ffff00000008c55c:	d503201f 	nop
ffff00000008c560:	d503201f 	nop
ffff00000008c564:	d503201f 	nop
ffff00000008c568:	d503201f 	nop
ffff00000008c56c:	d503201f 	nop
ffff00000008c570:	d503201f 	nop
ffff00000008c574:	d503201f 	nop
ffff00000008c578:	d503201f 	nop
ffff00000008c57c:	d503201f 	nop
ffff00000008c580:	d503201f 	nop
ffff00000008c584:	d503201f 	nop
ffff00000008c588:	d503201f 	nop
ffff00000008c58c:	d503201f 	nop
ffff00000008c590:	d503201f 	nop
ffff00000008c594:	d503201f 	nop
ffff00000008c598:	d503201f 	nop
ffff00000008c59c:	d503201f 	nop
ffff00000008c5a0:	d503201f 	nop
ffff00000008c5a4:	d503201f 	nop
ffff00000008c5a8:	d503201f 	nop
ffff00000008c5ac:	d503201f 	nop
ffff00000008c5b0:	d503201f 	nop
ffff00000008c5b4:	d503201f 	nop
ffff00000008c5b8:	d503201f 	nop
ffff00000008c5bc:	d503201f 	nop
ffff00000008c5c0:	d503201f 	nop
ffff00000008c5c4:	d503201f 	nop
ffff00000008c5c8:	d503201f 	nop
ffff00000008c5cc:	d503201f 	nop
ffff00000008c5d0:	d503201f 	nop
ffff00000008c5d4:	d503201f 	nop
ffff00000008c5d8:	d503201f 	nop
ffff00000008c5dc:	d503201f 	nop
ffff00000008c5e0:	d503201f 	nop
ffff00000008c5e4:	d503201f 	nop
ffff00000008c5e8:	d503201f 	nop
ffff00000008c5ec:	d503201f 	nop
ffff00000008c5f0:	d503201f 	nop
ffff00000008c5f4:	d503201f 	nop
ffff00000008c5f8:	d503201f 	nop
ffff00000008c5fc:	d503201f 	nop
ffff00000008c600:	d503201f 	nop
ffff00000008c604:	d503201f 	nop
ffff00000008c608:	d503201f 	nop
ffff00000008c60c:	d503201f 	nop
ffff00000008c610:	d503201f 	nop
ffff00000008c614:	d503201f 	nop
ffff00000008c618:	d503201f 	nop
ffff00000008c61c:	d503201f 	nop
ffff00000008c620:	d503201f 	nop
ffff00000008c624:	d503201f 	nop
ffff00000008c628:	d503201f 	nop
ffff00000008c62c:	d503201f 	nop
ffff00000008c630:	d503201f 	nop
ffff00000008c634:	d503201f 	nop
ffff00000008c638:	d503201f 	nop
ffff00000008c63c:	d503201f 	nop
ffff00000008c640:	d503201f 	nop
ffff00000008c644:	d503201f 	nop
ffff00000008c648:	d503201f 	nop
ffff00000008c64c:	d503201f 	nop
ffff00000008c650:	d503201f 	nop
ffff00000008c654:	d503201f 	nop
ffff00000008c658:	d503201f 	nop
ffff00000008c65c:	d503201f 	nop
ffff00000008c660:	d503201f 	nop
ffff00000008c664:	d503201f 	nop
ffff00000008c668:	d503201f 	nop
ffff00000008c66c:	d503201f 	nop
ffff00000008c670:	d503201f 	nop
ffff00000008c674:	d503201f 	nop
ffff00000008c678:	d503201f 	nop
ffff00000008c67c:	d503201f 	nop
ffff00000008c680:	d503201f 	nop
ffff00000008c684:	d503201f 	nop
ffff00000008c688:	d503201f 	nop
ffff00000008c68c:	d503201f 	nop
ffff00000008c690:	d503201f 	nop
ffff00000008c694:	d503201f 	nop
ffff00000008c698:	d503201f 	nop
ffff00000008c69c:	d503201f 	nop
ffff00000008c6a0:	d503201f 	nop
ffff00000008c6a4:	d503201f 	nop
ffff00000008c6a8:	d503201f 	nop
ffff00000008c6ac:	d503201f 	nop
ffff00000008c6b0:	d503201f 	nop
ffff00000008c6b4:	d503201f 	nop
ffff00000008c6b8:	d503201f 	nop
ffff00000008c6bc:	d503201f 	nop
ffff00000008c6c0:	d503201f 	nop
ffff00000008c6c4:	d503201f 	nop
ffff00000008c6c8:	d503201f 	nop
ffff00000008c6cc:	d503201f 	nop
ffff00000008c6d0:	d503201f 	nop
ffff00000008c6d4:	d503201f 	nop
ffff00000008c6d8:	d503201f 	nop
ffff00000008c6dc:	d503201f 	nop
ffff00000008c6e0:	d503201f 	nop
ffff00000008c6e4:	d503201f 	nop
ffff00000008c6e8:	d503201f 	nop
ffff00000008c6ec:	d503201f 	nop
ffff00000008c6f0:	d503201f 	nop
ffff00000008c6f4:	d503201f 	nop
ffff00000008c6f8:	d503201f 	nop
ffff00000008c6fc:	d503201f 	nop
ffff00000008c700:	d503201f 	nop
ffff00000008c704:	d503201f 	nop
ffff00000008c708:	d503201f 	nop
ffff00000008c70c:	d503201f 	nop
ffff00000008c710:	d503201f 	nop
ffff00000008c714:	d503201f 	nop
ffff00000008c718:	d503201f 	nop
ffff00000008c71c:	d503201f 	nop
ffff00000008c720:	d503201f 	nop
ffff00000008c724:	d503201f 	nop
ffff00000008c728:	d503201f 	nop
ffff00000008c72c:	d503201f 	nop
ffff00000008c730:	d503201f 	nop
ffff00000008c734:	d503201f 	nop
ffff00000008c738:	d503201f 	nop
ffff00000008c73c:	d503201f 	nop
ffff00000008c740:	d503201f 	nop
ffff00000008c744:	d503201f 	nop
ffff00000008c748:	d503201f 	nop
ffff00000008c74c:	d503201f 	nop
ffff00000008c750:	d503201f 	nop
ffff00000008c754:	d503201f 	nop
ffff00000008c758:	d503201f 	nop
ffff00000008c75c:	d503201f 	nop
ffff00000008c760:	d503201f 	nop
ffff00000008c764:	d503201f 	nop
ffff00000008c768:	d503201f 	nop
ffff00000008c76c:	d503201f 	nop
ffff00000008c770:	d503201f 	nop
ffff00000008c774:	d503201f 	nop
ffff00000008c778:	d503201f 	nop
ffff00000008c77c:	d503201f 	nop
ffff00000008c780:	d503201f 	nop
ffff00000008c784:	d503201f 	nop
ffff00000008c788:	d503201f 	nop
ffff00000008c78c:	d503201f 	nop
ffff00000008c790:	d503201f 	nop
ffff00000008c794:	d503201f 	nop
ffff00000008c798:	d503201f 	nop
ffff00000008c79c:	d503201f 	nop
ffff00000008c7a0:	d503201f 	nop
ffff00000008c7a4:	d503201f 	nop
ffff00000008c7a8:	d503201f 	nop
ffff00000008c7ac:	d503201f 	nop
ffff00000008c7b0:	d503201f 	nop
ffff00000008c7b4:	d503201f 	nop
ffff00000008c7b8:	d503201f 	nop
ffff00000008c7bc:	d503201f 	nop
ffff00000008c7c0:	d503201f 	nop
ffff00000008c7c4:	d503201f 	nop
ffff00000008c7c8:	d503201f 	nop
ffff00000008c7cc:	d503201f 	nop
ffff00000008c7d0:	d503201f 	nop
ffff00000008c7d4:	d503201f 	nop
ffff00000008c7d8:	d503201f 	nop
ffff00000008c7dc:	d503201f 	nop
ffff00000008c7e0:	d503201f 	nop
ffff00000008c7e4:	d503201f 	nop
ffff00000008c7e8:	d503201f 	nop
ffff00000008c7ec:	d503201f 	nop
ffff00000008c7f0:	d503201f 	nop
ffff00000008c7f4:	d503201f 	nop
ffff00000008c7f8:	d503201f 	nop
ffff00000008c7fc:	d503201f 	nop

ffff00000008c800 <vector>:
ffff00000008c800:	140001e1 	b	ffff00000008cf84 <sync_invalid_el1t>
ffff00000008c804:	d503201f 	nop
ffff00000008c808:	d503201f 	nop
ffff00000008c80c:	d503201f 	nop
ffff00000008c810:	d503201f 	nop
ffff00000008c814:	d503201f 	nop
ffff00000008c818:	d503201f 	nop
ffff00000008c81c:	d503201f 	nop
ffff00000008c820:	d503201f 	nop
ffff00000008c824:	d503201f 	nop
ffff00000008c828:	d503201f 	nop
ffff00000008c82c:	d503201f 	nop
ffff00000008c830:	d503201f 	nop
ffff00000008c834:	d503201f 	nop
ffff00000008c838:	d503201f 	nop
ffff00000008c83c:	d503201f 	nop
ffff00000008c840:	d503201f 	nop
ffff00000008c844:	d503201f 	nop
ffff00000008c848:	d503201f 	nop
ffff00000008c84c:	d503201f 	nop
ffff00000008c850:	d503201f 	nop
ffff00000008c854:	d503201f 	nop
ffff00000008c858:	d503201f 	nop
ffff00000008c85c:	d503201f 	nop
ffff00000008c860:	d503201f 	nop
ffff00000008c864:	d503201f 	nop
ffff00000008c868:	d503201f 	nop
ffff00000008c86c:	d503201f 	nop
ffff00000008c870:	d503201f 	nop
ffff00000008c874:	d503201f 	nop
ffff00000008c878:	d503201f 	nop
ffff00000008c87c:	d503201f 	nop
ffff00000008c880:	140001eb 	b	ffff00000008d02c <irq_invalid_el1t>
ffff00000008c884:	d503201f 	nop
ffff00000008c888:	d503201f 	nop
ffff00000008c88c:	d503201f 	nop
ffff00000008c890:	d503201f 	nop
ffff00000008c894:	d503201f 	nop
ffff00000008c898:	d503201f 	nop
ffff00000008c89c:	d503201f 	nop
ffff00000008c8a0:	d503201f 	nop
ffff00000008c8a4:	d503201f 	nop
ffff00000008c8a8:	d503201f 	nop
ffff00000008c8ac:	d503201f 	nop
ffff00000008c8b0:	d503201f 	nop
ffff00000008c8b4:	d503201f 	nop
ffff00000008c8b8:	d503201f 	nop
ffff00000008c8bc:	d503201f 	nop
ffff00000008c8c0:	d503201f 	nop
ffff00000008c8c4:	d503201f 	nop
ffff00000008c8c8:	d503201f 	nop
ffff00000008c8cc:	d503201f 	nop
ffff00000008c8d0:	d503201f 	nop
ffff00000008c8d4:	d503201f 	nop
ffff00000008c8d8:	d503201f 	nop
ffff00000008c8dc:	d503201f 	nop
ffff00000008c8e0:	d503201f 	nop
ffff00000008c8e4:	d503201f 	nop
ffff00000008c8e8:	d503201f 	nop
ffff00000008c8ec:	d503201f 	nop
ffff00000008c8f0:	d503201f 	nop
ffff00000008c8f4:	d503201f 	nop
ffff00000008c8f8:	d503201f 	nop
ffff00000008c8fc:	d503201f 	nop
ffff00000008c900:	140001f5 	b	ffff00000008d0d4 <fiq_invalid_el1t>
ffff00000008c904:	d503201f 	nop
ffff00000008c908:	d503201f 	nop
ffff00000008c90c:	d503201f 	nop
ffff00000008c910:	d503201f 	nop
ffff00000008c914:	d503201f 	nop
ffff00000008c918:	d503201f 	nop
ffff00000008c91c:	d503201f 	nop
ffff00000008c920:	d503201f 	nop
ffff00000008c924:	d503201f 	nop
ffff00000008c928:	d503201f 	nop
ffff00000008c92c:	d503201f 	nop
ffff00000008c930:	d503201f 	nop
ffff00000008c934:	d503201f 	nop
ffff00000008c938:	d503201f 	nop
ffff00000008c93c:	d503201f 	nop
ffff00000008c940:	d503201f 	nop
ffff00000008c944:	d503201f 	nop
ffff00000008c948:	d503201f 	nop
ffff00000008c94c:	d503201f 	nop
ffff00000008c950:	d503201f 	nop
ffff00000008c954:	d503201f 	nop
ffff00000008c958:	d503201f 	nop
ffff00000008c95c:	d503201f 	nop
ffff00000008c960:	d503201f 	nop
ffff00000008c964:	d503201f 	nop
ffff00000008c968:	d503201f 	nop
ffff00000008c96c:	d503201f 	nop
ffff00000008c970:	d503201f 	nop
ffff00000008c974:	d503201f 	nop
ffff00000008c978:	d503201f 	nop
ffff00000008c97c:	d503201f 	nop
ffff00000008c980:	140001ff 	b	ffff00000008d17c <error_invalid_el1t>
ffff00000008c984:	d503201f 	nop
ffff00000008c988:	d503201f 	nop
ffff00000008c98c:	d503201f 	nop
ffff00000008c990:	d503201f 	nop
ffff00000008c994:	d503201f 	nop
ffff00000008c998:	d503201f 	nop
ffff00000008c99c:	d503201f 	nop
ffff00000008c9a0:	d503201f 	nop
ffff00000008c9a4:	d503201f 	nop
ffff00000008c9a8:	d503201f 	nop
ffff00000008c9ac:	d503201f 	nop
ffff00000008c9b0:	d503201f 	nop
ffff00000008c9b4:	d503201f 	nop
ffff00000008c9b8:	d503201f 	nop
ffff00000008c9bc:	d503201f 	nop
ffff00000008c9c0:	d503201f 	nop
ffff00000008c9c4:	d503201f 	nop
ffff00000008c9c8:	d503201f 	nop
ffff00000008c9cc:	d503201f 	nop
ffff00000008c9d0:	d503201f 	nop
ffff00000008c9d4:	d503201f 	nop
ffff00000008c9d8:	d503201f 	nop
ffff00000008c9dc:	d503201f 	nop
ffff00000008c9e0:	d503201f 	nop
ffff00000008c9e4:	d503201f 	nop
ffff00000008c9e8:	d503201f 	nop
ffff00000008c9ec:	d503201f 	nop
ffff00000008c9f0:	d503201f 	nop
ffff00000008c9f4:	d503201f 	nop
ffff00000008c9f8:	d503201f 	nop
ffff00000008c9fc:	d503201f 	nop
ffff00000008ca00:	14000209 	b	ffff00000008d224 <sync_invalid_el1h>
ffff00000008ca04:	d503201f 	nop
ffff00000008ca08:	d503201f 	nop
ffff00000008ca0c:	d503201f 	nop
ffff00000008ca10:	d503201f 	nop
ffff00000008ca14:	d503201f 	nop
ffff00000008ca18:	d503201f 	nop
ffff00000008ca1c:	d503201f 	nop
ffff00000008ca20:	d503201f 	nop
ffff00000008ca24:	d503201f 	nop
ffff00000008ca28:	d503201f 	nop
ffff00000008ca2c:	d503201f 	nop
ffff00000008ca30:	d503201f 	nop
ffff00000008ca34:	d503201f 	nop
ffff00000008ca38:	d503201f 	nop
ffff00000008ca3c:	d503201f 	nop
ffff00000008ca40:	d503201f 	nop
ffff00000008ca44:	d503201f 	nop
ffff00000008ca48:	d503201f 	nop
ffff00000008ca4c:	d503201f 	nop
ffff00000008ca50:	d503201f 	nop
ffff00000008ca54:	d503201f 	nop
ffff00000008ca58:	d503201f 	nop
ffff00000008ca5c:	d503201f 	nop
ffff00000008ca60:	d503201f 	nop
ffff00000008ca64:	d503201f 	nop
ffff00000008ca68:	d503201f 	nop
ffff00000008ca6c:	d503201f 	nop
ffff00000008ca70:	d503201f 	nop
ffff00000008ca74:	d503201f 	nop
ffff00000008ca78:	d503201f 	nop
ffff00000008ca7c:	d503201f 	nop
ffff00000008ca80:	14000213 	b	ffff00000008d2cc <general_irq_handler>
ffff00000008ca84:	d503201f 	nop
ffff00000008ca88:	d503201f 	nop
ffff00000008ca8c:	d503201f 	nop
ffff00000008ca90:	d503201f 	nop
ffff00000008ca94:	d503201f 	nop
ffff00000008ca98:	d503201f 	nop
ffff00000008ca9c:	d503201f 	nop
ffff00000008caa0:	d503201f 	nop
ffff00000008caa4:	d503201f 	nop
ffff00000008caa8:	d503201f 	nop
ffff00000008caac:	d503201f 	nop
ffff00000008cab0:	d503201f 	nop
ffff00000008cab4:	d503201f 	nop
ffff00000008cab8:	d503201f 	nop
ffff00000008cabc:	d503201f 	nop
ffff00000008cac0:	d503201f 	nop
ffff00000008cac4:	d503201f 	nop
ffff00000008cac8:	d503201f 	nop
ffff00000008cacc:	d503201f 	nop
ffff00000008cad0:	d503201f 	nop
ffff00000008cad4:	d503201f 	nop
ffff00000008cad8:	d503201f 	nop
ffff00000008cadc:	d503201f 	nop
ffff00000008cae0:	d503201f 	nop
ffff00000008cae4:	d503201f 	nop
ffff00000008cae8:	d503201f 	nop
ffff00000008caec:	d503201f 	nop
ffff00000008caf0:	d503201f 	nop
ffff00000008caf4:	d503201f 	nop
ffff00000008caf8:	d503201f 	nop
ffff00000008cafc:	d503201f 	nop
ffff00000008cb00:	14000218 	b	ffff00000008d360 <fiq_invalid_el1h>
ffff00000008cb04:	d503201f 	nop
ffff00000008cb08:	d503201f 	nop
ffff00000008cb0c:	d503201f 	nop
ffff00000008cb10:	d503201f 	nop
ffff00000008cb14:	d503201f 	nop
ffff00000008cb18:	d503201f 	nop
ffff00000008cb1c:	d503201f 	nop
ffff00000008cb20:	d503201f 	nop
ffff00000008cb24:	d503201f 	nop
ffff00000008cb28:	d503201f 	nop
ffff00000008cb2c:	d503201f 	nop
ffff00000008cb30:	d503201f 	nop
ffff00000008cb34:	d503201f 	nop
ffff00000008cb38:	d503201f 	nop
ffff00000008cb3c:	d503201f 	nop
ffff00000008cb40:	d503201f 	nop
ffff00000008cb44:	d503201f 	nop
ffff00000008cb48:	d503201f 	nop
ffff00000008cb4c:	d503201f 	nop
ffff00000008cb50:	d503201f 	nop
ffff00000008cb54:	d503201f 	nop
ffff00000008cb58:	d503201f 	nop
ffff00000008cb5c:	d503201f 	nop
ffff00000008cb60:	d503201f 	nop
ffff00000008cb64:	d503201f 	nop
ffff00000008cb68:	d503201f 	nop
ffff00000008cb6c:	d503201f 	nop
ffff00000008cb70:	d503201f 	nop
ffff00000008cb74:	d503201f 	nop
ffff00000008cb78:	d503201f 	nop
ffff00000008cb7c:	d503201f 	nop
ffff00000008cb80:	14000222 	b	ffff00000008d408 <error_invalid_el1h>
ffff00000008cb84:	d503201f 	nop
ffff00000008cb88:	d503201f 	nop
ffff00000008cb8c:	d503201f 	nop
ffff00000008cb90:	d503201f 	nop
ffff00000008cb94:	d503201f 	nop
ffff00000008cb98:	d503201f 	nop
ffff00000008cb9c:	d503201f 	nop
ffff00000008cba0:	d503201f 	nop
ffff00000008cba4:	d503201f 	nop
ffff00000008cba8:	d503201f 	nop
ffff00000008cbac:	d503201f 	nop
ffff00000008cbb0:	d503201f 	nop
ffff00000008cbb4:	d503201f 	nop
ffff00000008cbb8:	d503201f 	nop
ffff00000008cbbc:	d503201f 	nop
ffff00000008cbc0:	d503201f 	nop
ffff00000008cbc4:	d503201f 	nop
ffff00000008cbc8:	d503201f 	nop
ffff00000008cbcc:	d503201f 	nop
ffff00000008cbd0:	d503201f 	nop
ffff00000008cbd4:	d503201f 	nop
ffff00000008cbd8:	d503201f 	nop
ffff00000008cbdc:	d503201f 	nop
ffff00000008cbe0:	d503201f 	nop
ffff00000008cbe4:	d503201f 	nop
ffff00000008cbe8:	d503201f 	nop
ffff00000008cbec:	d503201f 	nop
ffff00000008cbf0:	d503201f 	nop
ffff00000008cbf4:	d503201f 	nop
ffff00000008cbf8:	d503201f 	nop
ffff00000008cbfc:	d503201f 	nop
ffff00000008cc00:	1400022c 	b	ffff00000008d4b0 <sync_el0_64>
ffff00000008cc04:	d503201f 	nop
ffff00000008cc08:	d503201f 	nop
ffff00000008cc0c:	d503201f 	nop
ffff00000008cc10:	d503201f 	nop
ffff00000008cc14:	d503201f 	nop
ffff00000008cc18:	d503201f 	nop
ffff00000008cc1c:	d503201f 	nop
ffff00000008cc20:	d503201f 	nop
ffff00000008cc24:	d503201f 	nop
ffff00000008cc28:	d503201f 	nop
ffff00000008cc2c:	d503201f 	nop
ffff00000008cc30:	d503201f 	nop
ffff00000008cc34:	d503201f 	nop
ffff00000008cc38:	d503201f 	nop
ffff00000008cc3c:	d503201f 	nop
ffff00000008cc40:	d503201f 	nop
ffff00000008cc44:	d503201f 	nop
ffff00000008cc48:	d503201f 	nop
ffff00000008cc4c:	d503201f 	nop
ffff00000008cc50:	d503201f 	nop
ffff00000008cc54:	d503201f 	nop
ffff00000008cc58:	d503201f 	nop
ffff00000008cc5c:	d503201f 	nop
ffff00000008cc60:	d503201f 	nop
ffff00000008cc64:	d503201f 	nop
ffff00000008cc68:	d503201f 	nop
ffff00000008cc6c:	d503201f 	nop
ffff00000008cc70:	d503201f 	nop
ffff00000008cc74:	d503201f 	nop
ffff00000008cc78:	d503201f 	nop
ffff00000008cc7c:	d503201f 	nop
ffff00000008cc80:	14000193 	b	ffff00000008d2cc <general_irq_handler>
ffff00000008cc84:	d503201f 	nop
ffff00000008cc88:	d503201f 	nop
ffff00000008cc8c:	d503201f 	nop
ffff00000008cc90:	d503201f 	nop
ffff00000008cc94:	d503201f 	nop
ffff00000008cc98:	d503201f 	nop
ffff00000008cc9c:	d503201f 	nop
ffff00000008cca0:	d503201f 	nop
ffff00000008cca4:	d503201f 	nop
ffff00000008cca8:	d503201f 	nop
ffff00000008ccac:	d503201f 	nop
ffff00000008ccb0:	d503201f 	nop
ffff00000008ccb4:	d503201f 	nop
ffff00000008ccb8:	d503201f 	nop
ffff00000008ccbc:	d503201f 	nop
ffff00000008ccc0:	d503201f 	nop
ffff00000008ccc4:	d503201f 	nop
ffff00000008ccc8:	d503201f 	nop
ffff00000008cccc:	d503201f 	nop
ffff00000008ccd0:	d503201f 	nop
ffff00000008ccd4:	d503201f 	nop
ffff00000008ccd8:	d503201f 	nop
ffff00000008ccdc:	d503201f 	nop
ffff00000008cce0:	d503201f 	nop
ffff00000008cce4:	d503201f 	nop
ffff00000008cce8:	d503201f 	nop
ffff00000008ccec:	d503201f 	nop
ffff00000008ccf0:	d503201f 	nop
ffff00000008ccf4:	d503201f 	nop
ffff00000008ccf8:	d503201f 	nop
ffff00000008ccfc:	d503201f 	nop
ffff00000008cd00:	14000269 	b	ffff00000008d6a4 <fiq_invalid_el0_64>
ffff00000008cd04:	d503201f 	nop
ffff00000008cd08:	d503201f 	nop
ffff00000008cd0c:	d503201f 	nop
ffff00000008cd10:	d503201f 	nop
ffff00000008cd14:	d503201f 	nop
ffff00000008cd18:	d503201f 	nop
ffff00000008cd1c:	d503201f 	nop
ffff00000008cd20:	d503201f 	nop
ffff00000008cd24:	d503201f 	nop
ffff00000008cd28:	d503201f 	nop
ffff00000008cd2c:	d503201f 	nop
ffff00000008cd30:	d503201f 	nop
ffff00000008cd34:	d503201f 	nop
ffff00000008cd38:	d503201f 	nop
ffff00000008cd3c:	d503201f 	nop
ffff00000008cd40:	d503201f 	nop
ffff00000008cd44:	d503201f 	nop
ffff00000008cd48:	d503201f 	nop
ffff00000008cd4c:	d503201f 	nop
ffff00000008cd50:	d503201f 	nop
ffff00000008cd54:	d503201f 	nop
ffff00000008cd58:	d503201f 	nop
ffff00000008cd5c:	d503201f 	nop
ffff00000008cd60:	d503201f 	nop
ffff00000008cd64:	d503201f 	nop
ffff00000008cd68:	d503201f 	nop
ffff00000008cd6c:	d503201f 	nop
ffff00000008cd70:	d503201f 	nop
ffff00000008cd74:	d503201f 	nop
ffff00000008cd78:	d503201f 	nop
ffff00000008cd7c:	d503201f 	nop
ffff00000008cd80:	14000273 	b	ffff00000008d74c <error_invalid_el0_64>
ffff00000008cd84:	d503201f 	nop
ffff00000008cd88:	d503201f 	nop
ffff00000008cd8c:	d503201f 	nop
ffff00000008cd90:	d503201f 	nop
ffff00000008cd94:	d503201f 	nop
ffff00000008cd98:	d503201f 	nop
ffff00000008cd9c:	d503201f 	nop
ffff00000008cda0:	d503201f 	nop
ffff00000008cda4:	d503201f 	nop
ffff00000008cda8:	d503201f 	nop
ffff00000008cdac:	d503201f 	nop
ffff00000008cdb0:	d503201f 	nop
ffff00000008cdb4:	d503201f 	nop
ffff00000008cdb8:	d503201f 	nop
ffff00000008cdbc:	d503201f 	nop
ffff00000008cdc0:	d503201f 	nop
ffff00000008cdc4:	d503201f 	nop
ffff00000008cdc8:	d503201f 	nop
ffff00000008cdcc:	d503201f 	nop
ffff00000008cdd0:	d503201f 	nop
ffff00000008cdd4:	d503201f 	nop
ffff00000008cdd8:	d503201f 	nop
ffff00000008cddc:	d503201f 	nop
ffff00000008cde0:	d503201f 	nop
ffff00000008cde4:	d503201f 	nop
ffff00000008cde8:	d503201f 	nop
ffff00000008cdec:	d503201f 	nop
ffff00000008cdf0:	d503201f 	nop
ffff00000008cdf4:	d503201f 	nop
ffff00000008cdf8:	d503201f 	nop
ffff00000008cdfc:	d503201f 	nop
ffff00000008ce00:	1400027d 	b	ffff00000008d7f4 <sync_invalid_el0_32>
ffff00000008ce04:	d503201f 	nop
ffff00000008ce08:	d503201f 	nop
ffff00000008ce0c:	d503201f 	nop
ffff00000008ce10:	d503201f 	nop
ffff00000008ce14:	d503201f 	nop
ffff00000008ce18:	d503201f 	nop
ffff00000008ce1c:	d503201f 	nop
ffff00000008ce20:	d503201f 	nop
ffff00000008ce24:	d503201f 	nop
ffff00000008ce28:	d503201f 	nop
ffff00000008ce2c:	d503201f 	nop
ffff00000008ce30:	d503201f 	nop
ffff00000008ce34:	d503201f 	nop
ffff00000008ce38:	d503201f 	nop
ffff00000008ce3c:	d503201f 	nop
ffff00000008ce40:	d503201f 	nop
ffff00000008ce44:	d503201f 	nop
ffff00000008ce48:	d503201f 	nop
ffff00000008ce4c:	d503201f 	nop
ffff00000008ce50:	d503201f 	nop
ffff00000008ce54:	d503201f 	nop
ffff00000008ce58:	d503201f 	nop
ffff00000008ce5c:	d503201f 	nop
ffff00000008ce60:	d503201f 	nop
ffff00000008ce64:	d503201f 	nop
ffff00000008ce68:	d503201f 	nop
ffff00000008ce6c:	d503201f 	nop
ffff00000008ce70:	d503201f 	nop
ffff00000008ce74:	d503201f 	nop
ffff00000008ce78:	d503201f 	nop
ffff00000008ce7c:	d503201f 	nop
ffff00000008ce80:	14000287 	b	ffff00000008d89c <irq_invalid_el0_32>
ffff00000008ce84:	d503201f 	nop
ffff00000008ce88:	d503201f 	nop
ffff00000008ce8c:	d503201f 	nop
ffff00000008ce90:	d503201f 	nop
ffff00000008ce94:	d503201f 	nop
ffff00000008ce98:	d503201f 	nop
ffff00000008ce9c:	d503201f 	nop
ffff00000008cea0:	d503201f 	nop
ffff00000008cea4:	d503201f 	nop
ffff00000008cea8:	d503201f 	nop
ffff00000008ceac:	d503201f 	nop
ffff00000008ceb0:	d503201f 	nop
ffff00000008ceb4:	d503201f 	nop
ffff00000008ceb8:	d503201f 	nop
ffff00000008cebc:	d503201f 	nop
ffff00000008cec0:	d503201f 	nop
ffff00000008cec4:	d503201f 	nop
ffff00000008cec8:	d503201f 	nop
ffff00000008cecc:	d503201f 	nop
ffff00000008ced0:	d503201f 	nop
ffff00000008ced4:	d503201f 	nop
ffff00000008ced8:	d503201f 	nop
ffff00000008cedc:	d503201f 	nop
ffff00000008cee0:	d503201f 	nop
ffff00000008cee4:	d503201f 	nop
ffff00000008cee8:	d503201f 	nop
ffff00000008ceec:	d503201f 	nop
ffff00000008cef0:	d503201f 	nop
ffff00000008cef4:	d503201f 	nop
ffff00000008cef8:	d503201f 	nop
ffff00000008cefc:	d503201f 	nop
ffff00000008cf00:	14000291 	b	ffff00000008d944 <fiq_invalid_el0_32>
ffff00000008cf04:	d503201f 	nop
ffff00000008cf08:	d503201f 	nop
ffff00000008cf0c:	d503201f 	nop
ffff00000008cf10:	d503201f 	nop
ffff00000008cf14:	d503201f 	nop
ffff00000008cf18:	d503201f 	nop
ffff00000008cf1c:	d503201f 	nop
ffff00000008cf20:	d503201f 	nop
ffff00000008cf24:	d503201f 	nop
ffff00000008cf28:	d503201f 	nop
ffff00000008cf2c:	d503201f 	nop
ffff00000008cf30:	d503201f 	nop
ffff00000008cf34:	d503201f 	nop
ffff00000008cf38:	d503201f 	nop
ffff00000008cf3c:	d503201f 	nop
ffff00000008cf40:	d503201f 	nop
ffff00000008cf44:	d503201f 	nop
ffff00000008cf48:	d503201f 	nop
ffff00000008cf4c:	d503201f 	nop
ffff00000008cf50:	d503201f 	nop
ffff00000008cf54:	d503201f 	nop
ffff00000008cf58:	d503201f 	nop
ffff00000008cf5c:	d503201f 	nop
ffff00000008cf60:	d503201f 	nop
ffff00000008cf64:	d503201f 	nop
ffff00000008cf68:	d503201f 	nop
ffff00000008cf6c:	d503201f 	nop
ffff00000008cf70:	d503201f 	nop
ffff00000008cf74:	d503201f 	nop
ffff00000008cf78:	d503201f 	nop
ffff00000008cf7c:	d503201f 	nop
ffff00000008cf80:	1400029b 	b	ffff00000008d9ec <error_invalid_el0_32>

ffff00000008cf84 <sync_invalid_el1t>:
ffff00000008cf84:	d10483ff 	sub	sp, sp, #0x120
ffff00000008cf88:	a90007e0 	stp	x0, x1, [sp]
ffff00000008cf8c:	a9010fe2 	stp	x2, x3, [sp, #16]
ffff00000008cf90:	a90217e4 	stp	x4, x5, [sp, #32]
ffff00000008cf94:	a9031fe6 	stp	x6, x7, [sp, #48]
ffff00000008cf98:	a90427e8 	stp	x8, x9, [sp, #64]
ffff00000008cf9c:	a9052fea 	stp	x10, x11, [sp, #80]
ffff00000008cfa0:	a90637ec 	stp	x12, x13, [sp, #96]
ffff00000008cfa4:	a9073fee 	stp	x14, x15, [sp, #112]
ffff00000008cfa8:	a90847f0 	stp	x16, x17, [sp, #128]
ffff00000008cfac:	a9094ff2 	stp	x18, x19, [sp, #144]
ffff00000008cfb0:	a90a57f4 	stp	x20, x21, [sp, #160]
ffff00000008cfb4:	a90b5ff6 	stp	x22, x23, [sp, #176]
ffff00000008cfb8:	a90c67f8 	stp	x24, x25, [sp, #192]
ffff00000008cfbc:	a90d6ffa 	stp	x26, x27, [sp, #208]
ffff00000008cfc0:	a90e77fc 	stp	x28, x29, [sp, #224]
ffff00000008cfc4:	f9007bfe 	str	x30, [sp, #240]
ffff00000008cfc8:	d2800029 	mov	x9, #0x1                   	// #1
ffff00000008cfcc:	f9007fe9 	str	x9, [sp, #248]
ffff00000008cfd0:	d538400a 	mrs	x10, spsr_el1
ffff00000008cfd4:	f90083ea 	str	x10, [sp, #256]
ffff00000008cfd8:	d538402b 	mrs	x11, elr_el1
ffff00000008cfdc:	f90087eb 	str	x11, [sp, #264]
ffff00000008cfe0:	d538410c 	mrs	x12, sp_el0
ffff00000008cfe4:	f9008bec 	str	x12, [sp, #272]
ffff00000008cfe8:	d538d08e 	mrs	x14, tpidr_el1
ffff00000008cfec:	910003ef 	mov	x15, sp
ffff00000008cff0:	f90001cf 	str	x15, [x14]
ffff00000008cff4:	b94031d0 	ldr	w16, [x14, #48]
ffff00000008cff8:	7100061f 	cmp	w16, #0x1
ffff00000008cffc:	54000060 	b.eq	ffff00000008d008 <sync_invalid_el1t+0x84>  // b.none
ffff00000008d000:	f9008fe9 	str	x9, [sp, #280]
ffff00000008d004:	14000003 	b	ffff00000008d010 <sync_invalid_el1t+0x8c>
ffff00000008d008:	d2800031 	mov	x17, #0x1                   	// #1
ffff00000008d00c:	f9008ff1 	str	x17, [sp, #280]
ffff00000008d010:	d2800000 	mov	x0, #0x0                   	// #0
ffff00000008d014:	d5385201 	mrs	x1, esr_el1
ffff00000008d018:	d5384022 	mrs	x2, elr_el1
ffff00000008d01c:	d5384003 	mrs	x3, spsr_el1
ffff00000008d020:	d5386004 	mrs	x4, far_el1
ffff00000008d024:	97ffd93c 	bl	ffff000000083514 <default_handler>
ffff00000008d028:	1400029b 	b	ffff00000008da94 <err_hang>

ffff00000008d02c <irq_invalid_el1t>:
ffff00000008d02c:	d10483ff 	sub	sp, sp, #0x120
ffff00000008d030:	a90007e0 	stp	x0, x1, [sp]
ffff00000008d034:	a9010fe2 	stp	x2, x3, [sp, #16]
ffff00000008d038:	a90217e4 	stp	x4, x5, [sp, #32]
ffff00000008d03c:	a9031fe6 	stp	x6, x7, [sp, #48]
ffff00000008d040:	a90427e8 	stp	x8, x9, [sp, #64]
ffff00000008d044:	a9052fea 	stp	x10, x11, [sp, #80]
ffff00000008d048:	a90637ec 	stp	x12, x13, [sp, #96]
ffff00000008d04c:	a9073fee 	stp	x14, x15, [sp, #112]
ffff00000008d050:	a90847f0 	stp	x16, x17, [sp, #128]
ffff00000008d054:	a9094ff2 	stp	x18, x19, [sp, #144]
ffff00000008d058:	a90a57f4 	stp	x20, x21, [sp, #160]
ffff00000008d05c:	a90b5ff6 	stp	x22, x23, [sp, #176]
ffff00000008d060:	a90c67f8 	stp	x24, x25, [sp, #192]
ffff00000008d064:	a90d6ffa 	stp	x26, x27, [sp, #208]
ffff00000008d068:	a90e77fc 	stp	x28, x29, [sp, #224]
ffff00000008d06c:	f9007bfe 	str	x30, [sp, #240]
ffff00000008d070:	d2800029 	mov	x9, #0x1                   	// #1
ffff00000008d074:	f9007fe9 	str	x9, [sp, #248]
ffff00000008d078:	d538400a 	mrs	x10, spsr_el1
ffff00000008d07c:	f90083ea 	str	x10, [sp, #256]
ffff00000008d080:	d538402b 	mrs	x11, elr_el1
ffff00000008d084:	f90087eb 	str	x11, [sp, #264]
ffff00000008d088:	d538410c 	mrs	x12, sp_el0
ffff00000008d08c:	f9008bec 	str	x12, [sp, #272]
ffff00000008d090:	d538d08e 	mrs	x14, tpidr_el1
ffff00000008d094:	910003ef 	mov	x15, sp
ffff00000008d098:	f90001cf 	str	x15, [x14]
ffff00000008d09c:	b94031d0 	ldr	w16, [x14, #48]
ffff00000008d0a0:	7100061f 	cmp	w16, #0x1
ffff00000008d0a4:	54000060 	b.eq	ffff00000008d0b0 <irq_invalid_el1t+0x84>  // b.none
ffff00000008d0a8:	f9008fe9 	str	x9, [sp, #280]
ffff00000008d0ac:	14000003 	b	ffff00000008d0b8 <irq_invalid_el1t+0x8c>
ffff00000008d0b0:	d2800031 	mov	x17, #0x1                   	// #1
ffff00000008d0b4:	f9008ff1 	str	x17, [sp, #280]
ffff00000008d0b8:	d2800020 	mov	x0, #0x1                   	// #1
ffff00000008d0bc:	d5385201 	mrs	x1, esr_el1
ffff00000008d0c0:	d5384022 	mrs	x2, elr_el1
ffff00000008d0c4:	d5384003 	mrs	x3, spsr_el1
ffff00000008d0c8:	d5386004 	mrs	x4, far_el1
ffff00000008d0cc:	97ffd912 	bl	ffff000000083514 <default_handler>
ffff00000008d0d0:	14000271 	b	ffff00000008da94 <err_hang>

ffff00000008d0d4 <fiq_invalid_el1t>:
ffff00000008d0d4:	d10483ff 	sub	sp, sp, #0x120
ffff00000008d0d8:	a90007e0 	stp	x0, x1, [sp]
ffff00000008d0dc:	a9010fe2 	stp	x2, x3, [sp, #16]
ffff00000008d0e0:	a90217e4 	stp	x4, x5, [sp, #32]
ffff00000008d0e4:	a9031fe6 	stp	x6, x7, [sp, #48]
ffff00000008d0e8:	a90427e8 	stp	x8, x9, [sp, #64]
ffff00000008d0ec:	a9052fea 	stp	x10, x11, [sp, #80]
ffff00000008d0f0:	a90637ec 	stp	x12, x13, [sp, #96]
ffff00000008d0f4:	a9073fee 	stp	x14, x15, [sp, #112]
ffff00000008d0f8:	a90847f0 	stp	x16, x17, [sp, #128]
ffff00000008d0fc:	a9094ff2 	stp	x18, x19, [sp, #144]
ffff00000008d100:	a90a57f4 	stp	x20, x21, [sp, #160]
ffff00000008d104:	a90b5ff6 	stp	x22, x23, [sp, #176]
ffff00000008d108:	a90c67f8 	stp	x24, x25, [sp, #192]
ffff00000008d10c:	a90d6ffa 	stp	x26, x27, [sp, #208]
ffff00000008d110:	a90e77fc 	stp	x28, x29, [sp, #224]
ffff00000008d114:	f9007bfe 	str	x30, [sp, #240]
ffff00000008d118:	d2800029 	mov	x9, #0x1                   	// #1
ffff00000008d11c:	f9007fe9 	str	x9, [sp, #248]
ffff00000008d120:	d538400a 	mrs	x10, spsr_el1
ffff00000008d124:	f90083ea 	str	x10, [sp, #256]
ffff00000008d128:	d538402b 	mrs	x11, elr_el1
ffff00000008d12c:	f90087eb 	str	x11, [sp, #264]
ffff00000008d130:	d538410c 	mrs	x12, sp_el0
ffff00000008d134:	f9008bec 	str	x12, [sp, #272]
ffff00000008d138:	d538d08e 	mrs	x14, tpidr_el1
ffff00000008d13c:	910003ef 	mov	x15, sp
ffff00000008d140:	f90001cf 	str	x15, [x14]
ffff00000008d144:	b94031d0 	ldr	w16, [x14, #48]
ffff00000008d148:	7100061f 	cmp	w16, #0x1
ffff00000008d14c:	54000060 	b.eq	ffff00000008d158 <fiq_invalid_el1t+0x84>  // b.none
ffff00000008d150:	f9008fe9 	str	x9, [sp, #280]
ffff00000008d154:	14000003 	b	ffff00000008d160 <fiq_invalid_el1t+0x8c>
ffff00000008d158:	d2800031 	mov	x17, #0x1                   	// #1
ffff00000008d15c:	f9008ff1 	str	x17, [sp, #280]
ffff00000008d160:	d2800040 	mov	x0, #0x2                   	// #2
ffff00000008d164:	d5385201 	mrs	x1, esr_el1
ffff00000008d168:	d5384022 	mrs	x2, elr_el1
ffff00000008d16c:	d5384003 	mrs	x3, spsr_el1
ffff00000008d170:	d5386004 	mrs	x4, far_el1
ffff00000008d174:	97ffd8e8 	bl	ffff000000083514 <default_handler>
ffff00000008d178:	14000247 	b	ffff00000008da94 <err_hang>

ffff00000008d17c <error_invalid_el1t>:
ffff00000008d17c:	d10483ff 	sub	sp, sp, #0x120
ffff00000008d180:	a90007e0 	stp	x0, x1, [sp]
ffff00000008d184:	a9010fe2 	stp	x2, x3, [sp, #16]
ffff00000008d188:	a90217e4 	stp	x4, x5, [sp, #32]
ffff00000008d18c:	a9031fe6 	stp	x6, x7, [sp, #48]
ffff00000008d190:	a90427e8 	stp	x8, x9, [sp, #64]
ffff00000008d194:	a9052fea 	stp	x10, x11, [sp, #80]
ffff00000008d198:	a90637ec 	stp	x12, x13, [sp, #96]
ffff00000008d19c:	a9073fee 	stp	x14, x15, [sp, #112]
ffff00000008d1a0:	a90847f0 	stp	x16, x17, [sp, #128]
ffff00000008d1a4:	a9094ff2 	stp	x18, x19, [sp, #144]
ffff00000008d1a8:	a90a57f4 	stp	x20, x21, [sp, #160]
ffff00000008d1ac:	a90b5ff6 	stp	x22, x23, [sp, #176]
ffff00000008d1b0:	a90c67f8 	stp	x24, x25, [sp, #192]
ffff00000008d1b4:	a90d6ffa 	stp	x26, x27, [sp, #208]
ffff00000008d1b8:	a90e77fc 	stp	x28, x29, [sp, #224]
ffff00000008d1bc:	f9007bfe 	str	x30, [sp, #240]
ffff00000008d1c0:	d2800029 	mov	x9, #0x1                   	// #1
ffff00000008d1c4:	f9007fe9 	str	x9, [sp, #248]
ffff00000008d1c8:	d538400a 	mrs	x10, spsr_el1
ffff00000008d1cc:	f90083ea 	str	x10, [sp, #256]
ffff00000008d1d0:	d538402b 	mrs	x11, elr_el1
ffff00000008d1d4:	f90087eb 	str	x11, [sp, #264]
ffff00000008d1d8:	d538410c 	mrs	x12, sp_el0
ffff00000008d1dc:	f9008bec 	str	x12, [sp, #272]
ffff00000008d1e0:	d538d08e 	mrs	x14, tpidr_el1
ffff00000008d1e4:	910003ef 	mov	x15, sp
ffff00000008d1e8:	f90001cf 	str	x15, [x14]
ffff00000008d1ec:	b94031d0 	ldr	w16, [x14, #48]
ffff00000008d1f0:	7100061f 	cmp	w16, #0x1
ffff00000008d1f4:	54000060 	b.eq	ffff00000008d200 <error_invalid_el1t+0x84>  // b.none
ffff00000008d1f8:	f9008fe9 	str	x9, [sp, #280]
ffff00000008d1fc:	14000003 	b	ffff00000008d208 <error_invalid_el1t+0x8c>
ffff00000008d200:	d2800031 	mov	x17, #0x1                   	// #1
ffff00000008d204:	f9008ff1 	str	x17, [sp, #280]
ffff00000008d208:	d2800060 	mov	x0, #0x3                   	// #3
ffff00000008d20c:	d5385201 	mrs	x1, esr_el1
ffff00000008d210:	d5384022 	mrs	x2, elr_el1
ffff00000008d214:	d5384003 	mrs	x3, spsr_el1
ffff00000008d218:	d5386004 	mrs	x4, far_el1
ffff00000008d21c:	97ffd8be 	bl	ffff000000083514 <default_handler>
ffff00000008d220:	1400021d 	b	ffff00000008da94 <err_hang>

ffff00000008d224 <sync_invalid_el1h>:
ffff00000008d224:	d10483ff 	sub	sp, sp, #0x120
ffff00000008d228:	a90007e0 	stp	x0, x1, [sp]
ffff00000008d22c:	a9010fe2 	stp	x2, x3, [sp, #16]
ffff00000008d230:	a90217e4 	stp	x4, x5, [sp, #32]
ffff00000008d234:	a9031fe6 	stp	x6, x7, [sp, #48]
ffff00000008d238:	a90427e8 	stp	x8, x9, [sp, #64]
ffff00000008d23c:	a9052fea 	stp	x10, x11, [sp, #80]
ffff00000008d240:	a90637ec 	stp	x12, x13, [sp, #96]
ffff00000008d244:	a9073fee 	stp	x14, x15, [sp, #112]
ffff00000008d248:	a90847f0 	stp	x16, x17, [sp, #128]
ffff00000008d24c:	a9094ff2 	stp	x18, x19, [sp, #144]
ffff00000008d250:	a90a57f4 	stp	x20, x21, [sp, #160]
ffff00000008d254:	a90b5ff6 	stp	x22, x23, [sp, #176]
ffff00000008d258:	a90c67f8 	stp	x24, x25, [sp, #192]
ffff00000008d25c:	a90d6ffa 	stp	x26, x27, [sp, #208]
ffff00000008d260:	a90e77fc 	stp	x28, x29, [sp, #224]
ffff00000008d264:	f9007bfe 	str	x30, [sp, #240]
ffff00000008d268:	d2800029 	mov	x9, #0x1                   	// #1
ffff00000008d26c:	f9007fe9 	str	x9, [sp, #248]
ffff00000008d270:	d538400a 	mrs	x10, spsr_el1
ffff00000008d274:	f90083ea 	str	x10, [sp, #256]
ffff00000008d278:	d538402b 	mrs	x11, elr_el1
ffff00000008d27c:	f90087eb 	str	x11, [sp, #264]
ffff00000008d280:	d538410c 	mrs	x12, sp_el0
ffff00000008d284:	f9008bec 	str	x12, [sp, #272]
ffff00000008d288:	d538d08e 	mrs	x14, tpidr_el1
ffff00000008d28c:	910003ef 	mov	x15, sp
ffff00000008d290:	f90001cf 	str	x15, [x14]
ffff00000008d294:	b94031d0 	ldr	w16, [x14, #48]
ffff00000008d298:	7100061f 	cmp	w16, #0x1
ffff00000008d29c:	54000060 	b.eq	ffff00000008d2a8 <sync_invalid_el1h+0x84>  // b.none
ffff00000008d2a0:	f9008fe9 	str	x9, [sp, #280]
ffff00000008d2a4:	14000003 	b	ffff00000008d2b0 <sync_invalid_el1h+0x8c>
ffff00000008d2a8:	d2800031 	mov	x17, #0x1                   	// #1
ffff00000008d2ac:	f9008ff1 	str	x17, [sp, #280]
ffff00000008d2b0:	d2800080 	mov	x0, #0x4                   	// #4
ffff00000008d2b4:	d5385201 	mrs	x1, esr_el1
ffff00000008d2b8:	d5384022 	mrs	x2, elr_el1
ffff00000008d2bc:	d5384003 	mrs	x3, spsr_el1
ffff00000008d2c0:	d5386004 	mrs	x4, far_el1
ffff00000008d2c4:	97ffd894 	bl	ffff000000083514 <default_handler>
ffff00000008d2c8:	140001f3 	b	ffff00000008da94 <err_hang>

ffff00000008d2cc <general_irq_handler>:
ffff00000008d2cc:	d10483ff 	sub	sp, sp, #0x120
ffff00000008d2d0:	a90007e0 	stp	x0, x1, [sp]
ffff00000008d2d4:	a9010fe2 	stp	x2, x3, [sp, #16]
ffff00000008d2d8:	a90217e4 	stp	x4, x5, [sp, #32]
ffff00000008d2dc:	a9031fe6 	stp	x6, x7, [sp, #48]
ffff00000008d2e0:	a90427e8 	stp	x8, x9, [sp, #64]
ffff00000008d2e4:	a9052fea 	stp	x10, x11, [sp, #80]
ffff00000008d2e8:	a90637ec 	stp	x12, x13, [sp, #96]
ffff00000008d2ec:	a9073fee 	stp	x14, x15, [sp, #112]
ffff00000008d2f0:	a90847f0 	stp	x16, x17, [sp, #128]
ffff00000008d2f4:	a9094ff2 	stp	x18, x19, [sp, #144]
ffff00000008d2f8:	a90a57f4 	stp	x20, x21, [sp, #160]
ffff00000008d2fc:	a90b5ff6 	stp	x22, x23, [sp, #176]
ffff00000008d300:	a90c67f8 	stp	x24, x25, [sp, #192]
ffff00000008d304:	a90d6ffa 	stp	x26, x27, [sp, #208]
ffff00000008d308:	a90e77fc 	stp	x28, x29, [sp, #224]
ffff00000008d30c:	f9007bfe 	str	x30, [sp, #240]
ffff00000008d310:	d2800029 	mov	x9, #0x1                   	// #1
ffff00000008d314:	f9007fe9 	str	x9, [sp, #248]
ffff00000008d318:	d538400a 	mrs	x10, spsr_el1
ffff00000008d31c:	f90083ea 	str	x10, [sp, #256]
ffff00000008d320:	d538402b 	mrs	x11, elr_el1
ffff00000008d324:	f90087eb 	str	x11, [sp, #264]
ffff00000008d328:	d538410c 	mrs	x12, sp_el0
ffff00000008d32c:	f9008bec 	str	x12, [sp, #272]
ffff00000008d330:	d538d08e 	mrs	x14, tpidr_el1
ffff00000008d334:	910003ef 	mov	x15, sp
ffff00000008d338:	f90001cf 	str	x15, [x14]
ffff00000008d33c:	b94031d0 	ldr	w16, [x14, #48]
ffff00000008d340:	7100061f 	cmp	w16, #0x1
ffff00000008d344:	54000060 	b.eq	ffff00000008d350 <general_irq_handler+0x84>  // b.none
ffff00000008d348:	f9008fe9 	str	x9, [sp, #280]
ffff00000008d34c:	14000003 	b	ffff00000008d358 <general_irq_handler+0x8c>
ffff00000008d350:	d2800031 	mov	x17, #0x1                   	// #1
ffff00000008d354:	f9008ff1 	str	x17, [sp, #280]
ffff00000008d358:	97ffd726 	bl	ffff000000082ff0 <handle_el1_irq>
ffff00000008d35c:	97fffb29 	bl	ffff00000008c000 <load_all_preempt>

ffff00000008d360 <fiq_invalid_el1h>:
ffff00000008d360:	d10483ff 	sub	sp, sp, #0x120
ffff00000008d364:	a90007e0 	stp	x0, x1, [sp]
ffff00000008d368:	a9010fe2 	stp	x2, x3, [sp, #16]
ffff00000008d36c:	a90217e4 	stp	x4, x5, [sp, #32]
ffff00000008d370:	a9031fe6 	stp	x6, x7, [sp, #48]
ffff00000008d374:	a90427e8 	stp	x8, x9, [sp, #64]
ffff00000008d378:	a9052fea 	stp	x10, x11, [sp, #80]
ffff00000008d37c:	a90637ec 	stp	x12, x13, [sp, #96]
ffff00000008d380:	a9073fee 	stp	x14, x15, [sp, #112]
ffff00000008d384:	a90847f0 	stp	x16, x17, [sp, #128]
ffff00000008d388:	a9094ff2 	stp	x18, x19, [sp, #144]
ffff00000008d38c:	a90a57f4 	stp	x20, x21, [sp, #160]
ffff00000008d390:	a90b5ff6 	stp	x22, x23, [sp, #176]
ffff00000008d394:	a90c67f8 	stp	x24, x25, [sp, #192]
ffff00000008d398:	a90d6ffa 	stp	x26, x27, [sp, #208]
ffff00000008d39c:	a90e77fc 	stp	x28, x29, [sp, #224]
ffff00000008d3a0:	f9007bfe 	str	x30, [sp, #240]
ffff00000008d3a4:	d2800029 	mov	x9, #0x1                   	// #1
ffff00000008d3a8:	f9007fe9 	str	x9, [sp, #248]
ffff00000008d3ac:	d538400a 	mrs	x10, spsr_el1
ffff00000008d3b0:	f90083ea 	str	x10, [sp, #256]
ffff00000008d3b4:	d538402b 	mrs	x11, elr_el1
ffff00000008d3b8:	f90087eb 	str	x11, [sp, #264]
ffff00000008d3bc:	d538410c 	mrs	x12, sp_el0
ffff00000008d3c0:	f9008bec 	str	x12, [sp, #272]
ffff00000008d3c4:	d538d08e 	mrs	x14, tpidr_el1
ffff00000008d3c8:	910003ef 	mov	x15, sp
ffff00000008d3cc:	f90001cf 	str	x15, [x14]
ffff00000008d3d0:	b94031d0 	ldr	w16, [x14, #48]
ffff00000008d3d4:	7100061f 	cmp	w16, #0x1
ffff00000008d3d8:	54000060 	b.eq	ffff00000008d3e4 <fiq_invalid_el1h+0x84>  // b.none
ffff00000008d3dc:	f9008fe9 	str	x9, [sp, #280]
ffff00000008d3e0:	14000003 	b	ffff00000008d3ec <fiq_invalid_el1h+0x8c>
ffff00000008d3e4:	d2800031 	mov	x17, #0x1                   	// #1
ffff00000008d3e8:	f9008ff1 	str	x17, [sp, #280]
ffff00000008d3ec:	d28000c0 	mov	x0, #0x6                   	// #6
ffff00000008d3f0:	d5385201 	mrs	x1, esr_el1
ffff00000008d3f4:	d5384022 	mrs	x2, elr_el1
ffff00000008d3f8:	d5384003 	mrs	x3, spsr_el1
ffff00000008d3fc:	d5386004 	mrs	x4, far_el1
ffff00000008d400:	97ffd845 	bl	ffff000000083514 <default_handler>
ffff00000008d404:	140001a4 	b	ffff00000008da94 <err_hang>

ffff00000008d408 <error_invalid_el1h>:
ffff00000008d408:	d10483ff 	sub	sp, sp, #0x120
ffff00000008d40c:	a90007e0 	stp	x0, x1, [sp]
ffff00000008d410:	a9010fe2 	stp	x2, x3, [sp, #16]
ffff00000008d414:	a90217e4 	stp	x4, x5, [sp, #32]
ffff00000008d418:	a9031fe6 	stp	x6, x7, [sp, #48]
ffff00000008d41c:	a90427e8 	stp	x8, x9, [sp, #64]
ffff00000008d420:	a9052fea 	stp	x10, x11, [sp, #80]
ffff00000008d424:	a90637ec 	stp	x12, x13, [sp, #96]
ffff00000008d428:	a9073fee 	stp	x14, x15, [sp, #112]
ffff00000008d42c:	a90847f0 	stp	x16, x17, [sp, #128]
ffff00000008d430:	a9094ff2 	stp	x18, x19, [sp, #144]
ffff00000008d434:	a90a57f4 	stp	x20, x21, [sp, #160]
ffff00000008d438:	a90b5ff6 	stp	x22, x23, [sp, #176]
ffff00000008d43c:	a90c67f8 	stp	x24, x25, [sp, #192]
ffff00000008d440:	a90d6ffa 	stp	x26, x27, [sp, #208]
ffff00000008d444:	a90e77fc 	stp	x28, x29, [sp, #224]
ffff00000008d448:	f9007bfe 	str	x30, [sp, #240]
ffff00000008d44c:	d2800029 	mov	x9, #0x1                   	// #1
ffff00000008d450:	f9007fe9 	str	x9, [sp, #248]
ffff00000008d454:	d538400a 	mrs	x10, spsr_el1
ffff00000008d458:	f90083ea 	str	x10, [sp, #256]
ffff00000008d45c:	d538402b 	mrs	x11, elr_el1
ffff00000008d460:	f90087eb 	str	x11, [sp, #264]
ffff00000008d464:	d538410c 	mrs	x12, sp_el0
ffff00000008d468:	f9008bec 	str	x12, [sp, #272]
ffff00000008d46c:	d538d08e 	mrs	x14, tpidr_el1
ffff00000008d470:	910003ef 	mov	x15, sp
ffff00000008d474:	f90001cf 	str	x15, [x14]
ffff00000008d478:	b94031d0 	ldr	w16, [x14, #48]
ffff00000008d47c:	7100061f 	cmp	w16, #0x1
ffff00000008d480:	54000060 	b.eq	ffff00000008d48c <error_invalid_el1h+0x84>  // b.none
ffff00000008d484:	f9008fe9 	str	x9, [sp, #280]
ffff00000008d488:	14000003 	b	ffff00000008d494 <error_invalid_el1h+0x8c>
ffff00000008d48c:	d2800031 	mov	x17, #0x1                   	// #1
ffff00000008d490:	f9008ff1 	str	x17, [sp, #280]
ffff00000008d494:	d28000e0 	mov	x0, #0x7                   	// #7
ffff00000008d498:	d5385201 	mrs	x1, esr_el1
ffff00000008d49c:	d5384022 	mrs	x2, elr_el1
ffff00000008d4a0:	d5384003 	mrs	x3, spsr_el1
ffff00000008d4a4:	d5386004 	mrs	x4, far_el1
ffff00000008d4a8:	97ffd81b 	bl	ffff000000083514 <default_handler>
ffff00000008d4ac:	1400017a 	b	ffff00000008da94 <err_hang>

ffff00000008d4b0 <sync_el0_64>:
ffff00000008d4b0:	d5385209 	mrs	x9, esr_el1
ffff00000008d4b4:	d35afd29 	lsr	x9, x9, #26
ffff00000008d4b8:	f100553f 	cmp	x9, #0x15
ffff00000008d4bc:	540004e1 	b.ne	ffff00000008d558 <other_el0_sync>  // b.any
ffff00000008d4c0:	d10483ff 	sub	sp, sp, #0x120
ffff00000008d4c4:	a90007e0 	stp	x0, x1, [sp]
ffff00000008d4c8:	a9010fe2 	stp	x2, x3, [sp, #16]
ffff00000008d4cc:	a90217e4 	stp	x4, x5, [sp, #32]
ffff00000008d4d0:	a9031fe6 	stp	x6, x7, [sp, #48]
ffff00000008d4d4:	a90427e8 	stp	x8, x9, [sp, #64]
ffff00000008d4d8:	a9052fea 	stp	x10, x11, [sp, #80]
ffff00000008d4dc:	a90637ec 	stp	x12, x13, [sp, #96]
ffff00000008d4e0:	a9073fee 	stp	x14, x15, [sp, #112]
ffff00000008d4e4:	a90847f0 	stp	x16, x17, [sp, #128]
ffff00000008d4e8:	a9094ff2 	stp	x18, x19, [sp, #144]
ffff00000008d4ec:	a90a57f4 	stp	x20, x21, [sp, #160]
ffff00000008d4f0:	a90b5ff6 	stp	x22, x23, [sp, #176]
ffff00000008d4f4:	a90c67f8 	stp	x24, x25, [sp, #192]
ffff00000008d4f8:	a90d6ffa 	stp	x26, x27, [sp, #208]
ffff00000008d4fc:	a90e77fc 	stp	x28, x29, [sp, #224]
ffff00000008d500:	f9007bfe 	str	x30, [sp, #240]
ffff00000008d504:	d2800029 	mov	x9, #0x1                   	// #1
ffff00000008d508:	f9007fe9 	str	x9, [sp, #248]
ffff00000008d50c:	d538400a 	mrs	x10, spsr_el1
ffff00000008d510:	f90083ea 	str	x10, [sp, #256]
ffff00000008d514:	d538402b 	mrs	x11, elr_el1
ffff00000008d518:	f90087eb 	str	x11, [sp, #264]
ffff00000008d51c:	d538410c 	mrs	x12, sp_el0
ffff00000008d520:	f9008bec 	str	x12, [sp, #272]
ffff00000008d524:	d538d08e 	mrs	x14, tpidr_el1
ffff00000008d528:	910003ef 	mov	x15, sp
ffff00000008d52c:	f90001cf 	str	x15, [x14]
ffff00000008d530:	b94031d0 	ldr	w16, [x14, #48]
ffff00000008d534:	7100061f 	cmp	w16, #0x1
ffff00000008d538:	54000060 	b.eq	ffff00000008d544 <sync_el0_64+0x94>  // b.none
ffff00000008d53c:	f9008fe9 	str	x9, [sp, #280]
ffff00000008d540:	14000003 	b	ffff00000008d54c <sync_el0_64+0x9c>
ffff00000008d544:	d2800031 	mov	x17, #0x1                   	// #1
ffff00000008d548:	f9008ff1 	str	x17, [sp, #280]
ffff00000008d54c:	910003e0 	mov	x0, sp
ffff00000008d550:	97ffead6 	bl	ffff0000000880a8 <syscall_handler>
ffff00000008d554:	97fffaab 	bl	ffff00000008c000 <load_all_preempt>

ffff00000008d558 <other_el0_sync>:
ffff00000008d558:	d10483ff 	sub	sp, sp, #0x120
ffff00000008d55c:	a90007e0 	stp	x0, x1, [sp]
ffff00000008d560:	a9010fe2 	stp	x2, x3, [sp, #16]
ffff00000008d564:	a90217e4 	stp	x4, x5, [sp, #32]
ffff00000008d568:	a9031fe6 	stp	x6, x7, [sp, #48]
ffff00000008d56c:	a90427e8 	stp	x8, x9, [sp, #64]
ffff00000008d570:	a9052fea 	stp	x10, x11, [sp, #80]
ffff00000008d574:	a90637ec 	stp	x12, x13, [sp, #96]
ffff00000008d578:	a9073fee 	stp	x14, x15, [sp, #112]
ffff00000008d57c:	a90847f0 	stp	x16, x17, [sp, #128]
ffff00000008d580:	a9094ff2 	stp	x18, x19, [sp, #144]
ffff00000008d584:	a90a57f4 	stp	x20, x21, [sp, #160]
ffff00000008d588:	a90b5ff6 	stp	x22, x23, [sp, #176]
ffff00000008d58c:	a90c67f8 	stp	x24, x25, [sp, #192]
ffff00000008d590:	a90d6ffa 	stp	x26, x27, [sp, #208]
ffff00000008d594:	a90e77fc 	stp	x28, x29, [sp, #224]
ffff00000008d598:	f9007bfe 	str	x30, [sp, #240]
ffff00000008d59c:	d2800029 	mov	x9, #0x1                   	// #1
ffff00000008d5a0:	f9007fe9 	str	x9, [sp, #248]
ffff00000008d5a4:	d538400a 	mrs	x10, spsr_el1
ffff00000008d5a8:	f90083ea 	str	x10, [sp, #256]
ffff00000008d5ac:	d538402b 	mrs	x11, elr_el1
ffff00000008d5b0:	f90087eb 	str	x11, [sp, #264]
ffff00000008d5b4:	d538410c 	mrs	x12, sp_el0
ffff00000008d5b8:	f9008bec 	str	x12, [sp, #272]
ffff00000008d5bc:	d538d08e 	mrs	x14, tpidr_el1
ffff00000008d5c0:	910003ef 	mov	x15, sp
ffff00000008d5c4:	f90001cf 	str	x15, [x14]
ffff00000008d5c8:	b94031d0 	ldr	w16, [x14, #48]
ffff00000008d5cc:	7100061f 	cmp	w16, #0x1
ffff00000008d5d0:	54000060 	b.eq	ffff00000008d5dc <other_el0_sync+0x84>  // b.none
ffff00000008d5d4:	f9008fe9 	str	x9, [sp, #280]
ffff00000008d5d8:	14000003 	b	ffff00000008d5e4 <other_el0_sync+0x8c>
ffff00000008d5dc:	d2800031 	mov	x17, #0x1                   	// #1
ffff00000008d5e0:	f9008ff1 	str	x17, [sp, #280]
ffff00000008d5e4:	d2800000 	mov	x0, #0x0                   	// #0
ffff00000008d5e8:	d5385201 	mrs	x1, esr_el1
ffff00000008d5ec:	d5384022 	mrs	x2, elr_el1
ffff00000008d5f0:	d5384003 	mrs	x3, spsr_el1
ffff00000008d5f4:	97ffd6f3 	bl	ffff0000000831c0 <lower_sync_handler>
ffff00000008d5f8:	97fffa82 	bl	ffff00000008c000 <load_all_preempt>

ffff00000008d5fc <irq_invalid_el0_64>:
ffff00000008d5fc:	d10483ff 	sub	sp, sp, #0x120
ffff00000008d600:	a90007e0 	stp	x0, x1, [sp]
ffff00000008d604:	a9010fe2 	stp	x2, x3, [sp, #16]
ffff00000008d608:	a90217e4 	stp	x4, x5, [sp, #32]
ffff00000008d60c:	a9031fe6 	stp	x6, x7, [sp, #48]
ffff00000008d610:	a90427e8 	stp	x8, x9, [sp, #64]
ffff00000008d614:	a9052fea 	stp	x10, x11, [sp, #80]
ffff00000008d618:	a90637ec 	stp	x12, x13, [sp, #96]
ffff00000008d61c:	a9073fee 	stp	x14, x15, [sp, #112]
ffff00000008d620:	a90847f0 	stp	x16, x17, [sp, #128]
ffff00000008d624:	a9094ff2 	stp	x18, x19, [sp, #144]
ffff00000008d628:	a90a57f4 	stp	x20, x21, [sp, #160]
ffff00000008d62c:	a90b5ff6 	stp	x22, x23, [sp, #176]
ffff00000008d630:	a90c67f8 	stp	x24, x25, [sp, #192]
ffff00000008d634:	a90d6ffa 	stp	x26, x27, [sp, #208]
ffff00000008d638:	a90e77fc 	stp	x28, x29, [sp, #224]
ffff00000008d63c:	f9007bfe 	str	x30, [sp, #240]
ffff00000008d640:	d2800029 	mov	x9, #0x1                   	// #1
ffff00000008d644:	f9007fe9 	str	x9, [sp, #248]
ffff00000008d648:	d538400a 	mrs	x10, spsr_el1
ffff00000008d64c:	f90083ea 	str	x10, [sp, #256]
ffff00000008d650:	d538402b 	mrs	x11, elr_el1
ffff00000008d654:	f90087eb 	str	x11, [sp, #264]
ffff00000008d658:	d538410c 	mrs	x12, sp_el0
ffff00000008d65c:	f9008bec 	str	x12, [sp, #272]
ffff00000008d660:	d538d08e 	mrs	x14, tpidr_el1
ffff00000008d664:	910003ef 	mov	x15, sp
ffff00000008d668:	f90001cf 	str	x15, [x14]
ffff00000008d66c:	b94031d0 	ldr	w16, [x14, #48]
ffff00000008d670:	7100061f 	cmp	w16, #0x1
ffff00000008d674:	54000060 	b.eq	ffff00000008d680 <irq_invalid_el0_64+0x84>  // b.none
ffff00000008d678:	f9008fe9 	str	x9, [sp, #280]
ffff00000008d67c:	14000003 	b	ffff00000008d688 <irq_invalid_el0_64+0x8c>
ffff00000008d680:	d2800031 	mov	x17, #0x1                   	// #1
ffff00000008d684:	f9008ff1 	str	x17, [sp, #280]
ffff00000008d688:	d2800120 	mov	x0, #0x9                   	// #9
ffff00000008d68c:	d5385201 	mrs	x1, esr_el1
ffff00000008d690:	d5384022 	mrs	x2, elr_el1
ffff00000008d694:	d5384003 	mrs	x3, spsr_el1
ffff00000008d698:	d5386004 	mrs	x4, far_el1
ffff00000008d69c:	97ffd79e 	bl	ffff000000083514 <default_handler>
ffff00000008d6a0:	140000fd 	b	ffff00000008da94 <err_hang>

ffff00000008d6a4 <fiq_invalid_el0_64>:
ffff00000008d6a4:	d10483ff 	sub	sp, sp, #0x120
ffff00000008d6a8:	a90007e0 	stp	x0, x1, [sp]
ffff00000008d6ac:	a9010fe2 	stp	x2, x3, [sp, #16]
ffff00000008d6b0:	a90217e4 	stp	x4, x5, [sp, #32]
ffff00000008d6b4:	a9031fe6 	stp	x6, x7, [sp, #48]
ffff00000008d6b8:	a90427e8 	stp	x8, x9, [sp, #64]
ffff00000008d6bc:	a9052fea 	stp	x10, x11, [sp, #80]
ffff00000008d6c0:	a90637ec 	stp	x12, x13, [sp, #96]
ffff00000008d6c4:	a9073fee 	stp	x14, x15, [sp, #112]
ffff00000008d6c8:	a90847f0 	stp	x16, x17, [sp, #128]
ffff00000008d6cc:	a9094ff2 	stp	x18, x19, [sp, #144]
ffff00000008d6d0:	a90a57f4 	stp	x20, x21, [sp, #160]
ffff00000008d6d4:	a90b5ff6 	stp	x22, x23, [sp, #176]
ffff00000008d6d8:	a90c67f8 	stp	x24, x25, [sp, #192]
ffff00000008d6dc:	a90d6ffa 	stp	x26, x27, [sp, #208]
ffff00000008d6e0:	a90e77fc 	stp	x28, x29, [sp, #224]
ffff00000008d6e4:	f9007bfe 	str	x30, [sp, #240]
ffff00000008d6e8:	d2800029 	mov	x9, #0x1                   	// #1
ffff00000008d6ec:	f9007fe9 	str	x9, [sp, #248]
ffff00000008d6f0:	d538400a 	mrs	x10, spsr_el1
ffff00000008d6f4:	f90083ea 	str	x10, [sp, #256]
ffff00000008d6f8:	d538402b 	mrs	x11, elr_el1
ffff00000008d6fc:	f90087eb 	str	x11, [sp, #264]
ffff00000008d700:	d538410c 	mrs	x12, sp_el0
ffff00000008d704:	f9008bec 	str	x12, [sp, #272]
ffff00000008d708:	d538d08e 	mrs	x14, tpidr_el1
ffff00000008d70c:	910003ef 	mov	x15, sp
ffff00000008d710:	f90001cf 	str	x15, [x14]
ffff00000008d714:	b94031d0 	ldr	w16, [x14, #48]
ffff00000008d718:	7100061f 	cmp	w16, #0x1
ffff00000008d71c:	54000060 	b.eq	ffff00000008d728 <fiq_invalid_el0_64+0x84>  // b.none
ffff00000008d720:	f9008fe9 	str	x9, [sp, #280]
ffff00000008d724:	14000003 	b	ffff00000008d730 <fiq_invalid_el0_64+0x8c>
ffff00000008d728:	d2800031 	mov	x17, #0x1                   	// #1
ffff00000008d72c:	f9008ff1 	str	x17, [sp, #280]
ffff00000008d730:	d2800140 	mov	x0, #0xa                   	// #10
ffff00000008d734:	d5385201 	mrs	x1, esr_el1
ffff00000008d738:	d5384022 	mrs	x2, elr_el1
ffff00000008d73c:	d5384003 	mrs	x3, spsr_el1
ffff00000008d740:	d5386004 	mrs	x4, far_el1
ffff00000008d744:	97ffd774 	bl	ffff000000083514 <default_handler>
ffff00000008d748:	140000d3 	b	ffff00000008da94 <err_hang>

ffff00000008d74c <error_invalid_el0_64>:
ffff00000008d74c:	d10483ff 	sub	sp, sp, #0x120
ffff00000008d750:	a90007e0 	stp	x0, x1, [sp]
ffff00000008d754:	a9010fe2 	stp	x2, x3, [sp, #16]
ffff00000008d758:	a90217e4 	stp	x4, x5, [sp, #32]
ffff00000008d75c:	a9031fe6 	stp	x6, x7, [sp, #48]
ffff00000008d760:	a90427e8 	stp	x8, x9, [sp, #64]
ffff00000008d764:	a9052fea 	stp	x10, x11, [sp, #80]
ffff00000008d768:	a90637ec 	stp	x12, x13, [sp, #96]
ffff00000008d76c:	a9073fee 	stp	x14, x15, [sp, #112]
ffff00000008d770:	a90847f0 	stp	x16, x17, [sp, #128]
ffff00000008d774:	a9094ff2 	stp	x18, x19, [sp, #144]
ffff00000008d778:	a90a57f4 	stp	x20, x21, [sp, #160]
ffff00000008d77c:	a90b5ff6 	stp	x22, x23, [sp, #176]
ffff00000008d780:	a90c67f8 	stp	x24, x25, [sp, #192]
ffff00000008d784:	a90d6ffa 	stp	x26, x27, [sp, #208]
ffff00000008d788:	a90e77fc 	stp	x28, x29, [sp, #224]
ffff00000008d78c:	f9007bfe 	str	x30, [sp, #240]
ffff00000008d790:	d2800029 	mov	x9, #0x1                   	// #1
ffff00000008d794:	f9007fe9 	str	x9, [sp, #248]
ffff00000008d798:	d538400a 	mrs	x10, spsr_el1
ffff00000008d79c:	f90083ea 	str	x10, [sp, #256]
ffff00000008d7a0:	d538402b 	mrs	x11, elr_el1
ffff00000008d7a4:	f90087eb 	str	x11, [sp, #264]
ffff00000008d7a8:	d538410c 	mrs	x12, sp_el0
ffff00000008d7ac:	f9008bec 	str	x12, [sp, #272]
ffff00000008d7b0:	d538d08e 	mrs	x14, tpidr_el1
ffff00000008d7b4:	910003ef 	mov	x15, sp
ffff00000008d7b8:	f90001cf 	str	x15, [x14]
ffff00000008d7bc:	b94031d0 	ldr	w16, [x14, #48]
ffff00000008d7c0:	7100061f 	cmp	w16, #0x1
ffff00000008d7c4:	54000060 	b.eq	ffff00000008d7d0 <error_invalid_el0_64+0x84>  // b.none
ffff00000008d7c8:	f9008fe9 	str	x9, [sp, #280]
ffff00000008d7cc:	14000003 	b	ffff00000008d7d8 <error_invalid_el0_64+0x8c>
ffff00000008d7d0:	d2800031 	mov	x17, #0x1                   	// #1
ffff00000008d7d4:	f9008ff1 	str	x17, [sp, #280]
ffff00000008d7d8:	d2800160 	mov	x0, #0xb                   	// #11
ffff00000008d7dc:	d5385201 	mrs	x1, esr_el1
ffff00000008d7e0:	d5384022 	mrs	x2, elr_el1
ffff00000008d7e4:	d5384003 	mrs	x3, spsr_el1
ffff00000008d7e8:	d5386004 	mrs	x4, far_el1
ffff00000008d7ec:	97ffd74a 	bl	ffff000000083514 <default_handler>
ffff00000008d7f0:	140000a9 	b	ffff00000008da94 <err_hang>

ffff00000008d7f4 <sync_invalid_el0_32>:
ffff00000008d7f4:	d10483ff 	sub	sp, sp, #0x120
ffff00000008d7f8:	a90007e0 	stp	x0, x1, [sp]
ffff00000008d7fc:	a9010fe2 	stp	x2, x3, [sp, #16]
ffff00000008d800:	a90217e4 	stp	x4, x5, [sp, #32]
ffff00000008d804:	a9031fe6 	stp	x6, x7, [sp, #48]
ffff00000008d808:	a90427e8 	stp	x8, x9, [sp, #64]
ffff00000008d80c:	a9052fea 	stp	x10, x11, [sp, #80]
ffff00000008d810:	a90637ec 	stp	x12, x13, [sp, #96]
ffff00000008d814:	a9073fee 	stp	x14, x15, [sp, #112]
ffff00000008d818:	a90847f0 	stp	x16, x17, [sp, #128]
ffff00000008d81c:	a9094ff2 	stp	x18, x19, [sp, #144]
ffff00000008d820:	a90a57f4 	stp	x20, x21, [sp, #160]
ffff00000008d824:	a90b5ff6 	stp	x22, x23, [sp, #176]
ffff00000008d828:	a90c67f8 	stp	x24, x25, [sp, #192]
ffff00000008d82c:	a90d6ffa 	stp	x26, x27, [sp, #208]
ffff00000008d830:	a90e77fc 	stp	x28, x29, [sp, #224]
ffff00000008d834:	f9007bfe 	str	x30, [sp, #240]
ffff00000008d838:	d2800029 	mov	x9, #0x1                   	// #1
ffff00000008d83c:	f9007fe9 	str	x9, [sp, #248]
ffff00000008d840:	d538400a 	mrs	x10, spsr_el1
ffff00000008d844:	f90083ea 	str	x10, [sp, #256]
ffff00000008d848:	d538402b 	mrs	x11, elr_el1
ffff00000008d84c:	f90087eb 	str	x11, [sp, #264]
ffff00000008d850:	d538410c 	mrs	x12, sp_el0
ffff00000008d854:	f9008bec 	str	x12, [sp, #272]
ffff00000008d858:	d538d08e 	mrs	x14, tpidr_el1
ffff00000008d85c:	910003ef 	mov	x15, sp
ffff00000008d860:	f90001cf 	str	x15, [x14]
ffff00000008d864:	b94031d0 	ldr	w16, [x14, #48]
ffff00000008d868:	7100061f 	cmp	w16, #0x1
ffff00000008d86c:	54000060 	b.eq	ffff00000008d878 <sync_invalid_el0_32+0x84>  // b.none
ffff00000008d870:	f9008fe9 	str	x9, [sp, #280]
ffff00000008d874:	14000003 	b	ffff00000008d880 <sync_invalid_el0_32+0x8c>
ffff00000008d878:	d2800031 	mov	x17, #0x1                   	// #1
ffff00000008d87c:	f9008ff1 	str	x17, [sp, #280]
ffff00000008d880:	d2800180 	mov	x0, #0xc                   	// #12
ffff00000008d884:	d5385201 	mrs	x1, esr_el1
ffff00000008d888:	d5384022 	mrs	x2, elr_el1
ffff00000008d88c:	d5384003 	mrs	x3, spsr_el1
ffff00000008d890:	d5386004 	mrs	x4, far_el1
ffff00000008d894:	97ffd720 	bl	ffff000000083514 <default_handler>
ffff00000008d898:	1400007f 	b	ffff00000008da94 <err_hang>

ffff00000008d89c <irq_invalid_el0_32>:
ffff00000008d89c:	d10483ff 	sub	sp, sp, #0x120
ffff00000008d8a0:	a90007e0 	stp	x0, x1, [sp]
ffff00000008d8a4:	a9010fe2 	stp	x2, x3, [sp, #16]
ffff00000008d8a8:	a90217e4 	stp	x4, x5, [sp, #32]
ffff00000008d8ac:	a9031fe6 	stp	x6, x7, [sp, #48]
ffff00000008d8b0:	a90427e8 	stp	x8, x9, [sp, #64]
ffff00000008d8b4:	a9052fea 	stp	x10, x11, [sp, #80]
ffff00000008d8b8:	a90637ec 	stp	x12, x13, [sp, #96]
ffff00000008d8bc:	a9073fee 	stp	x14, x15, [sp, #112]
ffff00000008d8c0:	a90847f0 	stp	x16, x17, [sp, #128]
ffff00000008d8c4:	a9094ff2 	stp	x18, x19, [sp, #144]
ffff00000008d8c8:	a90a57f4 	stp	x20, x21, [sp, #160]
ffff00000008d8cc:	a90b5ff6 	stp	x22, x23, [sp, #176]
ffff00000008d8d0:	a90c67f8 	stp	x24, x25, [sp, #192]
ffff00000008d8d4:	a90d6ffa 	stp	x26, x27, [sp, #208]
ffff00000008d8d8:	a90e77fc 	stp	x28, x29, [sp, #224]
ffff00000008d8dc:	f9007bfe 	str	x30, [sp, #240]
ffff00000008d8e0:	d2800029 	mov	x9, #0x1                   	// #1
ffff00000008d8e4:	f9007fe9 	str	x9, [sp, #248]
ffff00000008d8e8:	d538400a 	mrs	x10, spsr_el1
ffff00000008d8ec:	f90083ea 	str	x10, [sp, #256]
ffff00000008d8f0:	d538402b 	mrs	x11, elr_el1
ffff00000008d8f4:	f90087eb 	str	x11, [sp, #264]
ffff00000008d8f8:	d538410c 	mrs	x12, sp_el0
ffff00000008d8fc:	f9008bec 	str	x12, [sp, #272]
ffff00000008d900:	d538d08e 	mrs	x14, tpidr_el1
ffff00000008d904:	910003ef 	mov	x15, sp
ffff00000008d908:	f90001cf 	str	x15, [x14]
ffff00000008d90c:	b94031d0 	ldr	w16, [x14, #48]
ffff00000008d910:	7100061f 	cmp	w16, #0x1
ffff00000008d914:	54000060 	b.eq	ffff00000008d920 <irq_invalid_el0_32+0x84>  // b.none
ffff00000008d918:	f9008fe9 	str	x9, [sp, #280]
ffff00000008d91c:	14000003 	b	ffff00000008d928 <irq_invalid_el0_32+0x8c>
ffff00000008d920:	d2800031 	mov	x17, #0x1                   	// #1
ffff00000008d924:	f9008ff1 	str	x17, [sp, #280]
ffff00000008d928:	d28001a0 	mov	x0, #0xd                   	// #13
ffff00000008d92c:	d5385201 	mrs	x1, esr_el1
ffff00000008d930:	d5384022 	mrs	x2, elr_el1
ffff00000008d934:	d5384003 	mrs	x3, spsr_el1
ffff00000008d938:	d5386004 	mrs	x4, far_el1
ffff00000008d93c:	97ffd6f6 	bl	ffff000000083514 <default_handler>
ffff00000008d940:	14000055 	b	ffff00000008da94 <err_hang>

ffff00000008d944 <fiq_invalid_el0_32>:
ffff00000008d944:	d10483ff 	sub	sp, sp, #0x120
ffff00000008d948:	a90007e0 	stp	x0, x1, [sp]
ffff00000008d94c:	a9010fe2 	stp	x2, x3, [sp, #16]
ffff00000008d950:	a90217e4 	stp	x4, x5, [sp, #32]
ffff00000008d954:	a9031fe6 	stp	x6, x7, [sp, #48]
ffff00000008d958:	a90427e8 	stp	x8, x9, [sp, #64]
ffff00000008d95c:	a9052fea 	stp	x10, x11, [sp, #80]
ffff00000008d960:	a90637ec 	stp	x12, x13, [sp, #96]
ffff00000008d964:	a9073fee 	stp	x14, x15, [sp, #112]
ffff00000008d968:	a90847f0 	stp	x16, x17, [sp, #128]
ffff00000008d96c:	a9094ff2 	stp	x18, x19, [sp, #144]
ffff00000008d970:	a90a57f4 	stp	x20, x21, [sp, #160]
ffff00000008d974:	a90b5ff6 	stp	x22, x23, [sp, #176]
ffff00000008d978:	a90c67f8 	stp	x24, x25, [sp, #192]
ffff00000008d97c:	a90d6ffa 	stp	x26, x27, [sp, #208]
ffff00000008d980:	a90e77fc 	stp	x28, x29, [sp, #224]
ffff00000008d984:	f9007bfe 	str	x30, [sp, #240]
ffff00000008d988:	d2800029 	mov	x9, #0x1                   	// #1
ffff00000008d98c:	f9007fe9 	str	x9, [sp, #248]
ffff00000008d990:	d538400a 	mrs	x10, spsr_el1
ffff00000008d994:	f90083ea 	str	x10, [sp, #256]
ffff00000008d998:	d538402b 	mrs	x11, elr_el1
ffff00000008d99c:	f90087eb 	str	x11, [sp, #264]
ffff00000008d9a0:	d538410c 	mrs	x12, sp_el0
ffff00000008d9a4:	f9008bec 	str	x12, [sp, #272]
ffff00000008d9a8:	d538d08e 	mrs	x14, tpidr_el1
ffff00000008d9ac:	910003ef 	mov	x15, sp
ffff00000008d9b0:	f90001cf 	str	x15, [x14]
ffff00000008d9b4:	b94031d0 	ldr	w16, [x14, #48]
ffff00000008d9b8:	7100061f 	cmp	w16, #0x1
ffff00000008d9bc:	54000060 	b.eq	ffff00000008d9c8 <fiq_invalid_el0_32+0x84>  // b.none
ffff00000008d9c0:	f9008fe9 	str	x9, [sp, #280]
ffff00000008d9c4:	14000003 	b	ffff00000008d9d0 <fiq_invalid_el0_32+0x8c>
ffff00000008d9c8:	d2800031 	mov	x17, #0x1                   	// #1
ffff00000008d9cc:	f9008ff1 	str	x17, [sp, #280]
ffff00000008d9d0:	d28001c0 	mov	x0, #0xe                   	// #14
ffff00000008d9d4:	d5385201 	mrs	x1, esr_el1
ffff00000008d9d8:	d5384022 	mrs	x2, elr_el1
ffff00000008d9dc:	d5384003 	mrs	x3, spsr_el1
ffff00000008d9e0:	d5386004 	mrs	x4, far_el1
ffff00000008d9e4:	97ffd6cc 	bl	ffff000000083514 <default_handler>
ffff00000008d9e8:	1400002b 	b	ffff00000008da94 <err_hang>

ffff00000008d9ec <error_invalid_el0_32>:
ffff00000008d9ec:	d10483ff 	sub	sp, sp, #0x120
ffff00000008d9f0:	a90007e0 	stp	x0, x1, [sp]
ffff00000008d9f4:	a9010fe2 	stp	x2, x3, [sp, #16]
ffff00000008d9f8:	a90217e4 	stp	x4, x5, [sp, #32]
ffff00000008d9fc:	a9031fe6 	stp	x6, x7, [sp, #48]
ffff00000008da00:	a90427e8 	stp	x8, x9, [sp, #64]
ffff00000008da04:	a9052fea 	stp	x10, x11, [sp, #80]
ffff00000008da08:	a90637ec 	stp	x12, x13, [sp, #96]
ffff00000008da0c:	a9073fee 	stp	x14, x15, [sp, #112]
ffff00000008da10:	a90847f0 	stp	x16, x17, [sp, #128]
ffff00000008da14:	a9094ff2 	stp	x18, x19, [sp, #144]
ffff00000008da18:	a90a57f4 	stp	x20, x21, [sp, #160]
ffff00000008da1c:	a90b5ff6 	stp	x22, x23, [sp, #176]
ffff00000008da20:	a90c67f8 	stp	x24, x25, [sp, #192]
ffff00000008da24:	a90d6ffa 	stp	x26, x27, [sp, #208]
ffff00000008da28:	a90e77fc 	stp	x28, x29, [sp, #224]
ffff00000008da2c:	f9007bfe 	str	x30, [sp, #240]
ffff00000008da30:	d2800029 	mov	x9, #0x1                   	// #1
ffff00000008da34:	f9007fe9 	str	x9, [sp, #248]
ffff00000008da38:	d538400a 	mrs	x10, spsr_el1
ffff00000008da3c:	f90083ea 	str	x10, [sp, #256]
ffff00000008da40:	d538402b 	mrs	x11, elr_el1
ffff00000008da44:	f90087eb 	str	x11, [sp, #264]
ffff00000008da48:	d538410c 	mrs	x12, sp_el0
ffff00000008da4c:	f9008bec 	str	x12, [sp, #272]
ffff00000008da50:	d538d08e 	mrs	x14, tpidr_el1
ffff00000008da54:	910003ef 	mov	x15, sp
ffff00000008da58:	f90001cf 	str	x15, [x14]
ffff00000008da5c:	b94031d0 	ldr	w16, [x14, #48]
ffff00000008da60:	7100061f 	cmp	w16, #0x1
ffff00000008da64:	54000060 	b.eq	ffff00000008da70 <error_invalid_el0_32+0x84>  // b.none
ffff00000008da68:	f9008fe9 	str	x9, [sp, #280]
ffff00000008da6c:	14000003 	b	ffff00000008da78 <error_invalid_el0_32+0x8c>
ffff00000008da70:	d2800031 	mov	x17, #0x1                   	// #1
ffff00000008da74:	f9008ff1 	str	x17, [sp, #280]
ffff00000008da78:	d28001e0 	mov	x0, #0xf                   	// #15
ffff00000008da7c:	d5385201 	mrs	x1, esr_el1
ffff00000008da80:	d5384022 	mrs	x2, elr_el1
ffff00000008da84:	d5384003 	mrs	x3, spsr_el1
ffff00000008da88:	d5386004 	mrs	x4, far_el1
ffff00000008da8c:	97ffd6a2 	bl	ffff000000083514 <default_handler>
ffff00000008da90:	14000001 	b	ffff00000008da94 <err_hang>

ffff00000008da94 <err_hang>:
ffff00000008da94:	d503205f 	wfe
ffff00000008da98:	17ffffff 	b	ffff00000008da94 <err_hang>

ffff00000008da9c <switch_to>:
ffff00000008da9c:	b4000d80 	cbz	x0, ffff00000008dc4c <panic_switch_null>
ffff00000008daa0:	b4000d61 	cbz	x1, ffff00000008dc4c <panic_switch_null>
ffff00000008daa4:	f9400029 	ldr	x9, [x1]
ffff00000008daa8:	b4000d49 	cbz	x9, ffff00000008dc50 <panic_switch_invalid_sp>
ffff00000008daac:	9100013f 	mov	sp, x9
ffff00000008dab0:	d518d081 	msr	tpidr_el1, x1
ffff00000008dab4:	d65f03c0 	ret

ffff00000008dab8 <cxtsw_complete_first>:
ffff00000008dab8:	b4000ca0 	cbz	x0, ffff00000008dc4c <panic_switch_null>
ffff00000008dabc:	f9400009 	ldr	x9, [x0]
ffff00000008dac0:	b4000c89 	cbz	x9, ffff00000008dc50 <panic_switch_invalid_sp>
ffff00000008dac4:	9100013f 	mov	sp, x9
ffff00000008dac8:	d518d080 	msr	tpidr_el1, x0
ffff00000008dacc:	a94007e0 	ldp	x0, x1, [sp]
ffff00000008dad0:	a9410fe2 	ldp	x2, x3, [sp, #16]
ffff00000008dad4:	a94217e4 	ldp	x4, x5, [sp, #32]
ffff00000008dad8:	a9431fe6 	ldp	x6, x7, [sp, #48]
ffff00000008dadc:	a94427e8 	ldp	x8, x9, [sp, #64]
ffff00000008dae0:	a9452fea 	ldp	x10, x11, [sp, #80]
ffff00000008dae4:	a94637ec 	ldp	x12, x13, [sp, #96]
ffff00000008dae8:	a9473fee 	ldp	x14, x15, [sp, #112]
ffff00000008daec:	a94847f0 	ldp	x16, x17, [sp, #128]
ffff00000008daf0:	a9494ff2 	ldp	x18, x19, [sp, #144]
ffff00000008daf4:	a94a57f4 	ldp	x20, x21, [sp, #160]
ffff00000008daf8:	a94b5ff6 	ldp	x22, x23, [sp, #176]
ffff00000008dafc:	a94c67f8 	ldp	x24, x25, [sp, #192]
ffff00000008db00:	a94d6ffa 	ldp	x26, x27, [sp, #208]
ffff00000008db04:	a94e77fc 	ldp	x28, x29, [sp, #224]
ffff00000008db08:	a94f0bfe 	ldp	x30, x2, [sp, #240]
ffff00000008db0c:	f94083e3 	ldr	x3, [sp, #256]
ffff00000008db10:	d5184003 	msr	spsr_el1, x3
ffff00000008db14:	f94087e4 	ldr	x4, [sp, #264]
ffff00000008db18:	d5184024 	msr	elr_el1, x4
ffff00000008db1c:	f9408be5 	ldr	x5, [sp, #272]
ffff00000008db20:	d5184105 	msr	sp_el0, x5
ffff00000008db24:	f9408fe6 	ldr	x6, [sp, #280]
ffff00000008db28:	910483ff 	add	sp, sp, #0x120
ffff00000008db2c:	b4000046 	cbz	x6, ffff00000008db34 <cxtsw_complete_first+0x7c>
ffff00000008db30:	d69f03e0 	eret
ffff00000008db34:	d65f03c0 	ret

ffff00000008db38 <cxtsw_complete>:
ffff00000008db38:	b40008a0 	cbz	x0, ffff00000008dc4c <panic_switch_null>
ffff00000008db3c:	b4000881 	cbz	x1, ffff00000008dc4c <panic_switch_null>
ffff00000008db40:	d10483ff 	sub	sp, sp, #0x120
ffff00000008db44:	a90007e0 	stp	x0, x1, [sp]
ffff00000008db48:	a9010fe2 	stp	x2, x3, [sp, #16]
ffff00000008db4c:	a90217e4 	stp	x4, x5, [sp, #32]
ffff00000008db50:	a9031fe6 	stp	x6, x7, [sp, #48]
ffff00000008db54:	a90427e8 	stp	x8, x9, [sp, #64]
ffff00000008db58:	a9052fea 	stp	x10, x11, [sp, #80]
ffff00000008db5c:	a90637ec 	stp	x12, x13, [sp, #96]
ffff00000008db60:	a9073fee 	stp	x14, x15, [sp, #112]
ffff00000008db64:	a90847f0 	stp	x16, x17, [sp, #128]
ffff00000008db68:	a9094ff2 	stp	x18, x19, [sp, #144]
ffff00000008db6c:	a90a57f4 	stp	x20, x21, [sp, #160]
ffff00000008db70:	a90b5ff6 	stp	x22, x23, [sp, #176]
ffff00000008db74:	a90c67f8 	stp	x24, x25, [sp, #192]
ffff00000008db78:	a90d6ffa 	stp	x26, x27, [sp, #208]
ffff00000008db7c:	a90e77fc 	stp	x28, x29, [sp, #224]
ffff00000008db80:	f9007bfe 	str	x30, [sp, #240]
ffff00000008db84:	d2800009 	mov	x9, #0x0                   	// #0
ffff00000008db88:	f9007fe9 	str	x9, [sp, #248]
ffff00000008db8c:	d538400a 	mrs	x10, spsr_el1
ffff00000008db90:	f90083ea 	str	x10, [sp, #256]
ffff00000008db94:	d538402b 	mrs	x11, elr_el1
ffff00000008db98:	f90087eb 	str	x11, [sp, #264]
ffff00000008db9c:	d538410c 	mrs	x12, sp_el0
ffff00000008dba0:	f9008bec 	str	x12, [sp, #272]
ffff00000008dba4:	b940300d 	ldr	w13, [x0, #48]
ffff00000008dba8:	710005bf 	cmp	w13, #0x1
ffff00000008dbac:	54000060 	b.eq	ffff00000008dbb8 <cxtsw_complete+0x80>  // b.none
ffff00000008dbb0:	f9008fe9 	str	x9, [sp, #280]
ffff00000008dbb4:	14000003 	b	ffff00000008dbc0 <cxtsw_complete+0x88>
ffff00000008dbb8:	d280002e 	mov	x14, #0x1                   	// #1
ffff00000008dbbc:	f9008fee 	str	x14, [sp, #280]
ffff00000008dbc0:	910003e9 	mov	x9, sp
ffff00000008dbc4:	f9000009 	str	x9, [x0]
ffff00000008dbc8:	f9400029 	ldr	x9, [x1]
ffff00000008dbcc:	b4000429 	cbz	x9, ffff00000008dc50 <panic_switch_invalid_sp>
ffff00000008dbd0:	9100013f 	mov	sp, x9
ffff00000008dbd4:	d518d081 	msr	tpidr_el1, x1
ffff00000008dbd8:	a94007e0 	ldp	x0, x1, [sp]
ffff00000008dbdc:	a9410fe2 	ldp	x2, x3, [sp, #16]
ffff00000008dbe0:	a94217e4 	ldp	x4, x5, [sp, #32]
ffff00000008dbe4:	a9431fe6 	ldp	x6, x7, [sp, #48]
ffff00000008dbe8:	a94427e8 	ldp	x8, x9, [sp, #64]
ffff00000008dbec:	a9452fea 	ldp	x10, x11, [sp, #80]
ffff00000008dbf0:	a94637ec 	ldp	x12, x13, [sp, #96]
ffff00000008dbf4:	a9473fee 	ldp	x14, x15, [sp, #112]
ffff00000008dbf8:	a94847f0 	ldp	x16, x17, [sp, #128]
ffff00000008dbfc:	a9494ff2 	ldp	x18, x19, [sp, #144]
ffff00000008dc00:	a94a57f4 	ldp	x20, x21, [sp, #160]
ffff00000008dc04:	a94b5ff6 	ldp	x22, x23, [sp, #176]
ffff00000008dc08:	a94c67f8 	ldp	x24, x25, [sp, #192]
ffff00000008dc0c:	a94d6ffa 	ldp	x26, x27, [sp, #208]
ffff00000008dc10:	a94e77fc 	ldp	x28, x29, [sp, #224]
ffff00000008dc14:	a94f0bfe 	ldp	x30, x2, [sp, #240]
ffff00000008dc18:	f94083e3 	ldr	x3, [sp, #256]
ffff00000008dc1c:	d5184003 	msr	spsr_el1, x3
ffff00000008dc20:	f94087e4 	ldr	x4, [sp, #264]
ffff00000008dc24:	d5184024 	msr	elr_el1, x4
ffff00000008dc28:	f9408be5 	ldr	x5, [sp, #272]
ffff00000008dc2c:	d5184105 	msr	sp_el0, x5
ffff00000008dc30:	f9408fe6 	ldr	x6, [sp, #280]
ffff00000008dc34:	910483ff 	add	sp, sp, #0x120
ffff00000008dc38:	b4000046 	cbz	x6, ffff00000008dc40 <cxtsw_complete+0x108>
ffff00000008dc3c:	d69f03e0 	eret
ffff00000008dc40:	d65f03c0 	ret

ffff00000008dc44 <get_current>:
ffff00000008dc44:	d538d080 	mrs	x0, tpidr_el1
ffff00000008dc48:	d65f03c0 	ret

ffff00000008dc4c <panic_switch_null>:
ffff00000008dc4c:	97ffec21 	bl	ffff000000088cd0 <panic_null_thread>

ffff00000008dc50 <panic_switch_invalid_sp>:
ffff00000008dc50:	97ffec19 	bl	ffff000000088cb4 <panic_invalid_sp>
ffff00000008dc54:	00000000 	udf	#0

ffff00000008dc58 <core_timer_enable_s>:
ffff00000008dc58:	d2800060 	mov	x0, #0x3                   	// #3
ffff00000008dc5c:	d51be220 	msr	cntp_ctl_el0, x0
ffff00000008dc60:	d53be000 	mrs	x0, cntfrq_el0
ffff00000008dc64:	d51be200 	msr	cntp_tval_el0, x0
ffff00000008dc68:	d2800040 	mov	x0, #0x2                   	// #2
ffff00000008dc6c:	580001a1 	ldr	x1, ffff00000008dca0 <core_timer_handler_s+0x18>
ffff00000008dc70:	b9000020 	str	w0, [x1]
ffff00000008dc74:	d28068a0 	mov	x0, #0x345                 	// #837
ffff00000008dc78:	d5184000 	msr	spsr_el1, x0
ffff00000008dc7c:	d50342ff 	msr	daifclr, #0x2
ffff00000008dc80:	d518403e 	msr	elr_el1, x30
ffff00000008dc84:	d69f03e0 	eret

ffff00000008dc88 <core_timer_handler_s>:
ffff00000008dc88:	d53be000 	mrs	x0, cntfrq_el0
ffff00000008dc8c:	8b000000 	add	x0, x0, x0
ffff00000008dc90:	d51be200 	msr	cntp_tval_el0, x0
ffff00000008dc94:	d28068a0 	mov	x0, #0x345                 	// #837
ffff00000008dc98:	d5184000 	msr	spsr_el1, x0
ffff00000008dc9c:	d518403e 	msr	elr_el1, x30
ffff00000008dca0:	40000040 	.inst	0x40000040 ; undefined
ffff00000008dca4:	00000000 	udf	#0

Disassembly of section .rodata:

ffff00000008dca8 <pool_sizes>:
ffff00000008dca8:	00000010 	udf	#16
ffff00000008dcac:	00000020 	udf	#32
ffff00000008dcb0:	00000030 	udf	#48
ffff00000008dcb4:	00000060 	udf	#96
ffff00000008dcb8:	00000400 	udf	#1024
ffff00000008dcbc:	00000000 	udf	#0

ffff00000008dcc0 <pool_slots>:
ffff00000008dcc0:	00000100 	udf	#256
ffff00000008dcc4:	00000080 	udf	#128
ffff00000008dcc8:	00000055 	udf	#85
ffff00000008dccc:	0000002a 	udf	#42
ffff00000008dcd0:	00000004 	udf	#4
ffff00000008dcd4:	00000000 	udf	#0
ffff00000008dcd8:	6152202c 	.inst	0x6152202c ; undefined
ffff00000008dcdc:	2065676e 	.inst	0x2065676e ; undefined
ffff00000008dce0:	7020666f 	adr	x15, ffff0000000ce9af <__heap_start+0x389af>
ffff00000008dce4:	73656761 	.inst	0x73656761 ; undefined
ffff00000008dce8:	005b203a 	.inst	0x005b203a ; undefined
ffff00000008dcec:	00000000 	udf	#0
ffff00000008dcf0:	0000202c 	udf	#8236
ffff00000008dcf4:	00000000 	udf	#0
ffff00000008dcf8:	0000005d 	udf	#93
ffff00000008dcfc:	00000000 	udf	#0
ffff00000008dd00:	3d3d0a0d 	str	b13, [x16, #3906]
ffff00000008dd04:	6c41203d 	ldnp	d29, d8, [x1, #16]
ffff00000008dd08:	61636f6c 	.inst	0x61636f6c ; undefined
ffff00000008dd0c:	20646574 	.inst	0x20646574 ; undefined
ffff00000008dd10:	65646f4e 	fnmls	z14.h, p3/m, z26.h, z4.h
ffff00000008dd14:	3d3d2073 	str	b19, [x3, #3912]
ffff00000008dd18:	0000003d 	udf	#61
ffff00000008dd1c:	00000000 	udf	#0
ffff00000008dd20:	20200a0d 	.inst	0x20200a0d ; undefined
ffff00000008dd24:	6f4e2020 	umlal2	v0.4s, v1.8h, v14.h[0]
ffff00000008dd28:	00206564 	.inst	0x00206564 ; NYI
ffff00000008dd2c:	00000000 	udf	#0
ffff00000008dd30:	6150203a 	.inst	0x6150203a ; undefined
ffff00000008dd34:	49206567 	.inst	0x49206567 ; undefined
ffff00000008dd38:	7865646e 	.inst	0x7865646e ; undefined
ffff00000008dd3c:	00005b20 	udf	#23328
ffff00000008dd40:	4f202c5d 	.inst	0x4f202c5d ; undefined
ffff00000008dd44:	72656472 	.inst	0x72656472 ; undefined
ffff00000008dd48:	00000020 	udf	#32
ffff00000008dd4c:	00000000 	udf	#0
ffff00000008dd50:	20200a0d 	.inst	0x20200a0d ; undefined
ffff00000008dd54:	6f462020 	umlal2	v0.4s, v1.8h, v6.h[0]
ffff00000008dd58:	20646e75 	.inst	0x20646e75 ; undefined
ffff00000008dd5c:	636f6c62 	.inst	0x636f6c62 ; undefined
ffff00000008dd60:	6f66206b 	umlal2	v11.4s, v3.8h, v6.h[2]
ffff00000008dd64:	64612072 	fmul	z18.h, z3.h, z1.h[4]
ffff00000008dd68:	00207264 	.inst	0x00207264 ; NYI
ffff00000008dd6c:	00000000 	udf	#0
ffff00000008dd70:	203e3d20 	.inst	0x203e3d20 ; undefined
ffff00000008dd74:	65646f6e 	fnmls	z14.h, p3/m, z27.h, z4.h
ffff00000008dd78:	646e6920 	.inst	0x646e6920 ; undefined
ffff00000008dd7c:	00207865 	.inst	0x00207865 ; NYI
ffff00000008dd80:	726f202c 	.inst	0x726f202c ; undefined
ffff00000008dd84:	20726564 	.inst	0x20726564 ; undefined
	...
ffff00000008dd90:	6170202c 	.inst	0x6170202c ; undefined
ffff00000008dd94:	69206567 	stgp	x7, x25, [x11, #-1024]
ffff00000008dd98:	7865646e 	.inst	0x7865646e ; undefined
ffff00000008dd9c:	00000020 	udf	#32
ffff00000008dda0:	7473202c 	.inst	0x7473202c ; undefined
ffff00000008dda4:	20657461 	.inst	0x20657461 ; undefined
	...
ffff00000008ddb0:	53554e55 	.inst	0x53554e55 ; undefined
ffff00000008ddb4:	454c4241 	saddwb	z1.h, z18.h, z12.b
	...
ffff00000008ddc0:	45534552 	saddwt	z18.h, z10.h, z19.b
ffff00000008ddc4:	44455652 	smlslt	z18.h, z18.b, z5.b
	...
ffff00000008ddd0:	44455355 	smlslb	z21.h, z26.b, z5.b
ffff00000008ddd4:	00000000 	udf	#0
ffff00000008ddd8:	45455246 	ssubwb	z6.h, z18.h, z5.b
ffff00000008dddc:	00000000 	udf	#0
ffff00000008dde0:	494c5053 	.inst	0x494c5053 ; undefined
ffff00000008dde4:	00000054 	udf	#84
ffff00000008dde8:	4e4b4e55 	.inst	0x4e4b4e55 ; undefined
ffff00000008ddec:	004e574f 	.inst	0x004e574f ; undefined
ffff00000008ddf0:	455b0a0d 	uaddlb	z13.h, z16.b, z27.b
ffff00000008ddf4:	524f5252 	.inst	0x524f5252 ; undefined
ffff00000008ddf8:	6441205d 	fcmla	z29.h, p0/m, z2.h, z1.h, #90
ffff00000008ddfc:	73657264 	.inst	0x73657264 ; undefined
ffff00000008de00:	73692073 	.inst	0x73692073 ; undefined
ffff00000008de04:	746f6e20 	.inst	0x746f6e20 ; undefined
ffff00000008de08:	74697720 	.inst	0x74697720 ; undefined
ffff00000008de0c:	206e6968 	.inst	0x206e6968 ; undefined
ffff00000008de10:	65646f6e 	fnmls	z14.h, p3/m, z27.h, z4.h
ffff00000008de14:	6e617220 	uabdl2	v0.4s, v17.8h, v1.8h
ffff00000008de18:	002e6567 	.inst	0x002e6567 ; NYI
ffff00000008de1c:	00000000 	udf	#0
ffff00000008de20:	455b0a0d 	uaddlb	z13.h, z16.b, z27.b
ffff00000008de24:	524f5252 	.inst	0x524f5252 ; undefined
ffff00000008de28:	6f43205d 	umlal2	v29.4s, v2.8h, v3.h[0]
ffff00000008de2c:	20646c75 	.inst	0x20646c75 ; undefined
ffff00000008de30:	20746f6e 	.inst	0x20746f6e ; undefined
ffff00000008de34:	646e6966 	.inst	0x646e6966 ; undefined
ffff00000008de38:	796e6120 	ldrh	w0, [x9, #5936]
ffff00000008de3c:	74616d20 	.inst	0x74616d20 ; undefined
ffff00000008de40:	6e696863 	.inst	0x6e696863 ; undefined
ffff00000008de44:	6f6e2067 	umlal2	v7.4s, v3.8h, v14.h[2]
ffff00000008de48:	66206564 	.inst	0x66206564 ; undefined
ffff00000008de4c:	6120726f 	.inst	0x6120726f ; undefined
ffff00000008de50:	20726464 	.inst	0x20726464 ; undefined
ffff00000008de54:	00000000 	udf	#0
ffff00000008de58:	455b0a0d 	uaddlb	z13.h, z16.b, z27.b
ffff00000008de5c:	524f5252 	.inst	0x524f5252 ; undefined
ffff00000008de60:	6441205d 	fcmla	z29.h, p0/m, z2.h, z1.h, #90
ffff00000008de64:	73657264 	.inst	0x73657264 ; undefined
ffff00000008de68:	6f6e2073 	umlal2	v19.4s, v3.8h, v14.h[2]
ffff00000008de6c:	616d2074 	.inst	0x616d2074 ; undefined
ffff00000008de70:	65686374 	fnmls	z20.h, p0/m, z27.h, z8.h
ffff00000008de74:	6f742064 	umlal2	v4.4s, v3.8h, v4.h[3]
ffff00000008de78:	796e6120 	ldrh	w0, [x9, #5936]
ffff00000008de7c:	646f6e20 	.inst	0x646f6e20 ; undefined
ffff00000008de80:	74612065 	.inst	0x74612065 ; undefined
ffff00000008de84:	64726f20 	.inst	0x64726f20 ; undefined
ffff00000008de88:	00207265 	.inst	0x00207265 ; NYI
ffff00000008de8c:	00000000 	udf	#0
ffff00000008de90:	61500a0d 	.inst	0x61500a0d ; undefined
ffff00000008de94:	74206874 	.inst	0x74206874 ; undefined
ffff00000008de98:	6461206f 	fmul	z15.h, z3.h, z1.h[4]
ffff00000008de9c:	73657264 	.inst	0x73657264 ; undefined
ffff00000008dea0:	00002073 	udf	#8307
ffff00000008dea4:	00000000 	udf	#0
ffff00000008dea8:	20746120 	.inst	0x20746120 ; undefined
ffff00000008deac:	67726174 	.inst	0x67726174 ; undefined
ffff00000008deb0:	6f207465 	uqshl	v5.4s, v3.4s, #0
ffff00000008deb4:	72656472 	.inst	0x72656472 ; undefined
ffff00000008deb8:	00000020 	udf	#32
ffff00000008debc:	00000000 	udf	#0
ffff00000008dec0:	0000003a 	udf	#58
ffff00000008dec4:	00000000 	udf	#0
ffff00000008dec8:	20200a0d 	.inst	0x20200a0d ; undefined
ffff00000008decc:	65646f4e 	fnmls	z14.h, p3/m, z26.h, z4.h
ffff00000008ded0:	00000020 	udf	#32
ffff00000008ded4:	00000000 	udf	#0
ffff00000008ded8:	6441202c 	fcmla	z12.h, p0/m, z1.h, z1.h, #90
ffff00000008dedc:	203a7264 	.inst	0x203a7264 ; undefined
	...
ffff00000008dee8:	724f202c 	.inst	0x724f202c ; undefined
ffff00000008deec:	20726564 	.inst	0x20726564 ; undefined
	...
ffff00000008def8:	7453202c 	.inst	0x7453202c ; undefined
ffff00000008defc:	3a657461 	.inst	0x3a657461 ; undefined
ffff00000008df00:	00000020 	udf	#32
ffff00000008df04:	00000000 	udf	#0
ffff00000008df08:	455b0a0d 	uaddlb	z13.h, z16.b, z27.b
ffff00000008df0c:	524f5252 	.inst	0x524f5252 ; undefined
ffff00000008df10:	7865205d 	ldeorlh	w5, w29, [x2]
ffff00000008df14:	64656563 	.inst	0x64656563 ; undefined
ffff00000008df18:	58414d20 	ldr	x0, ffff0000001108bc <__heap_start+0x7a8bc>
ffff00000008df1c:	44524f5f 	umlalt	z31.h, z26.b, z18.b
ffff00000008df20:	00005245 	udf	#21061
ffff00000008df24:	00000000 	udf	#0
ffff00000008df28:	3d3d0a0d 	str	b13, [x16, #3906]
ffff00000008df2c:	7246203d 	.inst	0x7246203d ; undefined
ffff00000008df30:	42206565 	.inst	0x42206565 ; undefined
ffff00000008df34:	6b636f6c 	.inst	0x6b636f6c ; undefined
ffff00000008df38:	74612073 	.inst	0x74612073 ; undefined
ffff00000008df3c:	64724f20 	.inst	0x64724f20 ; undefined
ffff00000008df40:	00207265 	.inst	0x00207265 ; NYI
ffff00000008df44:	00000000 	udf	#0
ffff00000008df48:	3d3d3d20 	str	b0, [x9, #3919]
ffff00000008df4c:	00000000 	udf	#0
ffff00000008df50:	20200a0d 	.inst	0x20200a0d ; undefined
ffff00000008df54:	74532020 	.inst	0x74532020 ; undefined
ffff00000008df58:	20747261 	.inst	0x20747261 ; undefined
ffff00000008df5c:	65676150 	fnmls	z16.h, p0/m, z10.h, z7.h
ffff00000008df60:	646e4920 	.inst	0x646e4920 ; undefined
ffff00000008df64:	4c207865 	.inst	0x4c207865 ; undefined
ffff00000008df68:	3a747369 	.inst	0x3a747369 ; undefined
ffff00000008df6c:	00005b20 	udf	#23328
ffff00000008df70:	20200a0d 	.inst	0x20200a0d ; undefined
ffff00000008df74:	00002020 	udf	#8224
ffff00000008df78:	20200a0d 	.inst	0x20200a0d ; undefined
ffff00000008df7c:	6f542020 	umlal2	v0.4s, v1.8h, v4.h[1]
ffff00000008df80:	206c6174 	.inst	0x206c6174 ; undefined
ffff00000008df84:	65657246 	fnmls	z6.h, p4/m, z18.h, z5.h
ffff00000008df88:	6f6c4220 	mls	v0.8h, v17.8h, v12.h[2]
ffff00000008df8c:	3a736b63 	.inst	0x3a736b63 ; undefined
ffff00000008df90:	00000020 	udf	#32
ffff00000008df94:	00000000 	udf	#0
ffff00000008df98:	625b0a0d 	.inst	0x625b0a0d ; undefined
ffff00000008df9c:	79646475 	ldrh	w21, [x3, #4658]
ffff00000008dfa0:	6e49205d 	.inst	0x6e49205d ; undefined
ffff00000008dfa4:	62207469 	.inst	0x62207469 ; undefined
ffff00000008dfa8:	79646475 	ldrh	w21, [x3, #4658]
ffff00000008dfac:	65727420 	fnmls	z0.h, p5/m, z1.h, z18.h
ffff00000008dfb0:	00000065 	udf	#101
ffff00000008dfb4:	00000000 	udf	#0
ffff00000008dfb8:	625b0a0d 	.inst	0x625b0a0d ; undefined
ffff00000008dfbc:	79646475 	ldrh	w21, [x3, #4658]
ffff00000008dfc0:	6c41205d 	ldnp	d29, d8, [x2, #16]
ffff00000008dfc4:	61636f6c 	.inst	0x61636f6c ; undefined
ffff00000008dfc8:	20646574 	.inst	0x20646574 ; undefined
ffff00000008dfcc:	636f6c62 	.inst	0x636f6c62 ; undefined
ffff00000008dfd0:	7461206b 	.inst	0x7461206b ; undefined
ffff00000008dfd4:	00000020 	udf	#32
ffff00000008dfd8:	20200a0d 	.inst	0x20200a0d ; undefined
ffff00000008dfdc:	455b2020 	.inst	0x455b2020 ; undefined
ffff00000008dfe0:	524f5252 	.inst	0x524f5252 ; undefined
ffff00000008dfe4:	7562205d 	.inst	0x7562205d ; undefined
ffff00000008dfe8:	20796464 	.inst	0x20796464 ; undefined
ffff00000008dfec:	6f6c6c61 	.inst	0x6f6c6c61 ; undefined
ffff00000008dff0:	65203a63 	.inst	0x65203a63 ; undefined
ffff00000008dff4:	65656378 	fnmls	z24.h, p0/m, z27.h, z5.h
ffff00000008dff8:	414d2064 	.inst	0x414d2064 ; undefined
ffff00000008dffc:	524f5f58 	.inst	0x524f5f58 ; undefined
ffff00000008e000:	20524544 	.inst	0x20524544 ; undefined
ffff00000008e004:	0020283a 	.inst	0x0020283a ; NYI
ffff00000008e008:	20200a0d 	.inst	0x20200a0d ; undefined
ffff00000008e00c:	455b2020 	.inst	0x455b2020 ; undefined
ffff00000008e010:	524f5252 	.inst	0x524f5252 ; undefined
ffff00000008e014:	7562205d 	.inst	0x7562205d ; undefined
ffff00000008e018:	20746464 	.inst	0x20746464 ; undefined
ffff00000008e01c:	6f6c6c61 	.inst	0x6f6c6c61 ; undefined
ffff00000008e020:	6e203a63 	usqadd	v3.16b, v19.16b
ffff00000008e024:	6e65206f 	usubl2	v15.4s, v3.8h, v5.8h
ffff00000008e028:	6867756f 	.inst	0x6867756f ; undefined
ffff00000008e02c:	6d656d20 	ldp	d0, d27, [x9, #-432]
ffff00000008e030:	2079726f 	.inst	0x2079726f ; undefined
ffff00000008e034:	63617073 	.inst	0x63617073 ; undefined
ffff00000008e038:	00000065 	udf	#101
ffff00000008e03c:	00000000 	udf	#0
ffff00000008e040:	20200a0d 	.inst	0x20200a0d ; undefined
ffff00000008e044:	455b2020 	.inst	0x455b2020 ; undefined
ffff00000008e048:	524f5252 	.inst	0x524f5252 ; undefined
ffff00000008e04c:	7562205d 	.inst	0x7562205d ; undefined
ffff00000008e050:	20796464 	.inst	0x20796464 ; undefined
ffff00000008e054:	65657266 	fnmls	z6.h, p4/m, z19.h, z5.h
ffff00000008e058:	69616620 	ldpsw	x0, x25, [x17, #-248]
ffff00000008e05c:	3a64656c 	.inst	0x3a64656c ; undefined
ffff00000008e060:	766e6920 	.inst	0x766e6920 ; undefined
ffff00000008e064:	64696c61 	.inst	0x64696c61 ; undefined
ffff00000008e068:	696f7020 	ldpsw	x0, x28, [x1, #-136]
ffff00000008e06c:	7265746e 	.inst	0x7265746e ; undefined
	...
ffff00000008e078:	20200a0d 	.inst	0x20200a0d ; undefined
ffff00000008e07c:	455b2020 	.inst	0x455b2020 ; undefined
ffff00000008e080:	524f5252 	.inst	0x524f5252 ; undefined
ffff00000008e084:	7562205d 	.inst	0x7562205d ; undefined
ffff00000008e088:	20796464 	.inst	0x20796464 ; undefined
ffff00000008e08c:	65657266 	fnmls	z6.h, p4/m, z19.h, z5.h
ffff00000008e090:	69616620 	ldpsw	x0, x25, [x17, #-248]
ffff00000008e094:	3a64656c 	.inst	0x3a64656c ; undefined
ffff00000008e098:	766e6920 	.inst	0x766e6920 ; undefined
ffff00000008e09c:	64696c61 	.inst	0x64696c61 ; undefined
ffff00000008e0a0:	20726f20 	.inst	0x20726f20 ; undefined
ffff00000008e0a4:	6e6b6e75 	umin	v21.8h, v19.8h, v11.8h
ffff00000008e0a8:	206e776f 	.inst	0x206e776f ; undefined
ffff00000008e0ac:	65676170 	fnmls	z16.h, p0/m, z11.h, z7.h
ffff00000008e0b0:	64726f20 	.inst	0x64726f20 ; undefined
ffff00000008e0b4:	00007265 	udf	#29285
ffff00000008e0b8:	20200a0d 	.inst	0x20200a0d ; undefined
ffff00000008e0bc:	455b2020 	.inst	0x455b2020 ; undefined
ffff00000008e0c0:	524f5252 	.inst	0x524f5252 ; undefined
ffff00000008e0c4:	7562205d 	.inst	0x7562205d ; undefined
ffff00000008e0c8:	20796464 	.inst	0x20796464 ; undefined
ffff00000008e0cc:	65657266 	fnmls	z6.h, p4/m, z19.h, z5.h
ffff00000008e0d0:	69616620 	ldpsw	x0, x25, [x17, #-248]
ffff00000008e0d4:	3a64656c 	.inst	0x3a64656c ; undefined
ffff00000008e0d8:	64646120 	.inst	0x64646120 ; undefined
ffff00000008e0dc:	73736572 	.inst	0x73736572 ; undefined
ffff00000008e0e0:	746f6e20 	.inst	0x746f6e20 ; undefined
ffff00000008e0e4:	756f6620 	.inst	0x756f6620 ; undefined
ffff00000008e0e8:	6920646e 	stgp	x14, x25, [x3, #-1024]
ffff00000008e0ec:	7274206e 	.inst	0x7274206e ; undefined
ffff00000008e0f0:	202c6565 	.inst	0x202c6565 ; undefined
ffff00000008e0f4:	72646461 	.inst	0x72646461 ; undefined
ffff00000008e0f8:	00203d20 	.inst	0x00203d20 ; NYI
ffff00000008e0fc:	00000000 	udf	#0
ffff00000008e100:	625b0a0d 	.inst	0x625b0a0d ; undefined
ffff00000008e104:	79646475 	ldrh	w21, [x3, #4658]
ffff00000008e108:	7246205d 	.inst	0x7246205d ; undefined
ffff00000008e10c:	6e696565 	umax	v5.8h, v11.8h, v9.8h
ffff00000008e110:	64612067 	fmul	z7.h, z3.h, z1.h[4]
ffff00000008e114:	00207264 	.inst	0x00207264 ; NYI
ffff00000008e118:	20746120 	.inst	0x20746120 ; undefined
ffff00000008e11c:	6564726f 	fnmls	z15.h, p4/m, z19.h, z4.h
ffff00000008e120:	00002072 	udf	#8306
ffff00000008e124:	00000000 	udf	#0

ffff00000008e128 <pool_sizes>:
ffff00000008e128:	00000010 	udf	#16
ffff00000008e12c:	00000020 	udf	#32
ffff00000008e130:	00000030 	udf	#48
ffff00000008e134:	00000060 	udf	#96
ffff00000008e138:	00000400 	udf	#1024
ffff00000008e13c:	00000000 	udf	#0

ffff00000008e140 <pool_slots>:
ffff00000008e140:	00000100 	udf	#256
ffff00000008e144:	00000080 	udf	#128
ffff00000008e148:	00000055 	udf	#85
ffff00000008e14c:	0000002a 	udf	#42
ffff00000008e150:	00000004 	udf	#4
ffff00000008e154:	00000000 	udf	#0
ffff00000008e158:	37303730 	tbnz	w16, #6, ffff00000008e83c <pool_slots+0x1b4>
ffff00000008e15c:	00003130 	udf	#12592
ffff00000008e160:	72450a0d 	.inst	0x72450a0d ; undefined
ffff00000008e164:	3a726f72 	.inst	0x3a726f72 ; undefined
ffff00000008e168:	766e4920 	.inst	0x766e4920 ; undefined
ffff00000008e16c:	64696c61 	.inst	0x64696c61 ; undefined
ffff00000008e170:	69706320 	ldpsw	x0, x24, [x25, #-128]
ffff00000008e174:	616d206f 	.inst	0x616d206f ; undefined
ffff00000008e178:	00636967 	.inst	0x00636967 ; undefined
ffff00000008e17c:	00000000 	udf	#0
ffff00000008e180:	65680a0d 	fmla	z13.h, p2/m, z16.h, z8.h
ffff00000008e184:	72656461 	.inst	0x72656461 ; undefined
ffff00000008e188:	5f633e2d 	.inst	0x5f633e2d ; undefined
ffff00000008e18c:	6967616d 	ldpsw	x13, x24, [x11, #-200]
ffff00000008e190:	003d2063 	.inst	0x003d2063 ; NYI
ffff00000008e194:	00000000 	udf	#0
ffff00000008e198:	49415254 	.inst	0x49415254 ; undefined
ffff00000008e19c:	2152454c 	.inst	0x2152454c ; undefined
ffff00000008e1a0:	00002121 	udf	#8481
ffff00000008e1a4:	00000000 	udf	#0
ffff00000008e1a8:	00000a0d 	udf	#2573
ffff00000008e1ac:	00000000 	udf	#0
ffff00000008e1b0:	2a2a0a0d 	orn	w13, w16, w10, lsl #2
ffff00000008e1b4:	202a2a2a 	.inst	0x202a2a2a ; undefined
ffff00000008e1b8:	746e6f43 	.inst	0x746e6f43 ; undefined
ffff00000008e1bc:	73746e65 	.inst	0x73746e65 ; undefined
ffff00000008e1c0:	20666f20 	.inst	0x20666f20 ; undefined
ffff00000008e1c4:	656c6966 	fnmls	z6.h, p2/m, z11.h, z12.h
ffff00000008e1c8:	0000203a 	udf	#8250
ffff00000008e1cc:	00000000 	udf	#0
ffff00000008e1d0:	2a2a2a20 	orn	w0, w17, w10, lsl #10
ffff00000008e1d4:	0a0d2a2a 	and	w10, w17, w13, lsl #10
	...
ffff00000008e1e0:	2d2d0a0d 	stp	s13, s2, [x16, #-152]
ffff00000008e1e4:	2d2d2d2d 	stp	s13, s11, [x9, #-152]
ffff00000008e1e8:	2d2d2d2d 	stp	s13, s11, [x9, #-152]
ffff00000008e1ec:	2d2d2d2d 	stp	s13, s11, [x9, #-152]
ffff00000008e1f0:	7375202d 	.inst	0x7375202d ; undefined
ffff00000008e1f4:	705f7265 	adr	x5, ffff00000014d043 <__heap_start+0xb7043>
ffff00000008e1f8:	74656761 	.inst	0x74656761 ; undefined
ffff00000008e1fc:	656c6261 	fnmls	z1.h, p0/m, z19.h, z12.h
ffff00000008e200:	7465735f 	.inst	0x7465735f ; undefined
ffff00000008e204:	202c7075 	.inst	0x202c7075 ; undefined
ffff00000008e208:	7070616d 	adr	x13, ffff00000016ee37 <__heap_start+0xd8e37>
ffff00000008e20c:	20676e69 	.inst	0x20676e69 ; undefined
ffff00000008e210:	65646f63 	fnmls	z3.h, p3/m, z27.h, z4.h
ffff00000008e214:	63657320 	.inst	0x63657320 ; undefined
ffff00000008e218:	6e6f6974 	.inst	0x6e6f6974 ; undefined
ffff00000008e21c:	2d2d2d20 	stp	s0, s11, [x9, #-152]
ffff00000008e220:	2d2d2d2d 	stp	s13, s11, [x9, #-152]
ffff00000008e224:	2d2d2d2d 	stp	s13, s11, [x9, #-152]
ffff00000008e228:	2d2d2d2d 	stp	s13, s11, [x9, #-152]
ffff00000008e22c:	2d2d2d2d 	stp	s13, s11, [x9, #-152]
ffff00000008e230:	0000002d 	udf	#45
ffff00000008e234:	00000000 	udf	#0
ffff00000008e238:	20200a0d 	.inst	0x20200a0d ; undefined
ffff00000008e23c:	6f662020 	umlal2	v0.4s, v1.8h, v6.h[2]
ffff00000008e240:	6f6c2072 	umlal2	v18.4s, v3.8h, v12.h[2]
ffff00000008e244:	0020706f 	.inst	0x0020706f ; NYI
ffff00000008e248:	2d2d0a0d 	stp	s13, s2, [x16, #-152]
ffff00000008e24c:	2d2d2d2d 	stp	s13, s11, [x9, #-152]
ffff00000008e250:	2d2d2d2d 	stp	s13, s11, [x9, #-152]
ffff00000008e254:	2d2d2d2d 	stp	s13, s11, [x9, #-152]
ffff00000008e258:	7375202d 	.inst	0x7375202d ; undefined
ffff00000008e25c:	705f7265 	adr	x5, ffff00000014d0ab <__heap_start+0xb70ab>
ffff00000008e260:	74656761 	.inst	0x74656761 ; undefined
ffff00000008e264:	656c6261 	fnmls	z1.h, p0/m, z19.h, z12.h
ffff00000008e268:	7465735f 	.inst	0x7465735f ; undefined
ffff00000008e26c:	202c7075 	.inst	0x202c7075 ; undefined
ffff00000008e270:	7070616d 	adr	x13, ffff00000016ee9f <__heap_start+0xd8e9f>
ffff00000008e274:	20676e69 	.inst	0x20676e69 ; undefined
ffff00000008e278:	63617473 	.inst	0x63617473 ; undefined
ffff00000008e27c:	6573206b 	fmls	z11.h, p0/m, z3.h, z19.h
ffff00000008e280:	6f697463 	uqshl	v3.2d, v3.2d, #41
ffff00000008e284:	2d2d206e 	stp	s14, s8, [x3, #-152]
ffff00000008e288:	2d2d2d2d 	stp	s13, s11, [x9, #-152]
ffff00000008e28c:	2d2d2d2d 	stp	s13, s11, [x9, #-152]
ffff00000008e290:	2d2d2d2d 	stp	s13, s11, [x9, #-152]
ffff00000008e294:	2d2d2d2d 	stp	s13, s11, [x9, #-152]
ffff00000008e298:	00002d2d 	udf	#11565
ffff00000008e29c:	00000000 	udf	#0
ffff00000008e2a0:	6f4c0a0d 	mla	v13.8h, v16.8h, v12.h[4]
ffff00000008e2a4:	64656461 	.inst	0x64656461 ; undefined
ffff00000008e2a8:	65737520 	fnmls	z0.h, p5/m, z9.h, z19.h
ffff00000008e2ac:	72702072 	.inst	0x72702072 ; undefined
ffff00000008e2b0:	6172676f 	.inst	0x6172676f ; undefined
ffff00000008e2b4:	00203a6d 	.inst	0x00203a6d ; NYI
ffff00000008e2b8:	7461202c 	.inst	0x7461202c ; undefined
ffff00000008e2bc:	00000020 	udf	#32
ffff00000008e2c0:	6966202c 	ldpsw	x12, x8, [x1, #-208]
ffff00000008e2c4:	735f656c 	.inst	0x735f656c ; undefined
ffff00000008e2c8:	28657a69 	ldnp	w9, w30, [x19, #-216]
ffff00000008e2cc:	64206e69 	.inst	0x64206e69 ; undefined
ffff00000008e2d0:	3d296365 	str	b5, [x27, #2648]
ffff00000008e2d4:	00002020 	udf	#8224
ffff00000008e2d8:	6974202c 	ldpsw	x12, x8, [x1, #-96]
ffff00000008e2dc:	203d2064 	.inst	0x203d2064 ; undefined
	...
ffff00000008e2e8:	7520202c 	.inst	0x7520202c ; undefined
ffff00000008e2ec:	5f726573 	.inst	0x5f726573 ; undefined
ffff00000008e2f0:	3d207073 	str	b19, [x3, #2076]
ffff00000008e2f4:	00000020 	udf	#32
ffff00000008e2f8:	73550a0d 	.inst	0x73550a0d ; undefined
ffff00000008e2fc:	70207265 	adr	x5, ffff0000000cf14b <__heap_start+0x3914b>
ffff00000008e300:	72676f72 	.inst	0x72676f72 ; undefined
ffff00000008e304:	6e206d61 	umin	v1.16b, v11.16b, v0.16b
ffff00000008e308:	6620746f 	.inst	0x6620746f ; undefined
ffff00000008e30c:	646e756f 	.inst	0x646e756f ; undefined
ffff00000008e310:	0000002e 	udf	#46
ffff00000008e314:	00000000 	udf	#0
ffff00000008e318:	736f6863 	.inst	0x736f6863 ; undefined
ffff00000008e31c:	00006e65 	udf	#28261
ffff00000008e320:	756e696c 	.inst	0x756e696c ; undefined
ffff00000008e324:	6e692c78 	uqsub	v24.8h, v3.8h, v9.8h
ffff00000008e328:	64727469 	.inst	0x64727469 ; undefined
ffff00000008e32c:	6174732d 	.inst	0x6174732d ; undefined
ffff00000008e330:	00007472 	udf	#29810
ffff00000008e334:	00000000 	udf	#0
ffff00000008e338:	20200a0d 	.inst	0x20200a0d ; undefined
ffff00000008e33c:	645b2020 	fcmla	z0.h, p0/m, z1.h, z27.h, #90
ffff00000008e340:	205d6274 	.inst	0x205d6274 ; undefined
ffff00000008e344:	6e756f46 	umin	v6.8h, v26.8h, v21.8h
ffff00000008e348:	6e692064 	usubl2	v4.4s, v3.8h, v9.8h
ffff00000008e34c:	64727469 	.inst	0x64727469 ; undefined
ffff00000008e350:	6174735f 	.inst	0x6174735f ; undefined
ffff00000008e354:	3d207472 	str	b18, [x3, #2077]
ffff00000008e358:	00000020 	udf	#32
ffff00000008e35c:	00000000 	udf	#0
ffff00000008e360:	756e696c 	.inst	0x756e696c ; undefined
ffff00000008e364:	6e692c78 	uqsub	v24.8h, v3.8h, v9.8h
ffff00000008e368:	64727469 	.inst	0x64727469 ; undefined
ffff00000008e36c:	646e652d 	.inst	0x646e652d ; undefined
	...
ffff00000008e378:	20200a0d 	.inst	0x20200a0d ; undefined
ffff00000008e37c:	645b2020 	fcmla	z0.h, p0/m, z1.h, z27.h, #90
ffff00000008e380:	205d6274 	.inst	0x205d6274 ; undefined
ffff00000008e384:	6e756f46 	umin	v6.8h, v26.8h, v21.8h
ffff00000008e388:	6e692064 	usubl2	v4.4s, v3.8h, v9.8h
ffff00000008e38c:	64727469 	.inst	0x64727469 ; undefined
ffff00000008e390:	646e655f 	.inst	0x646e655f ; undefined
ffff00000008e394:	00203d20 	.inst	0x00203d20 ; NYI

ffff00000008e398 <pool_sizes>:
ffff00000008e398:	00000010 	udf	#16
ffff00000008e39c:	00000020 	udf	#32
ffff00000008e3a0:	00000030 	udf	#48
ffff00000008e3a4:	00000060 	udf	#96
ffff00000008e3a8:	00000400 	udf	#1024
ffff00000008e3ac:	00000000 	udf	#0

ffff00000008e3b0 <pool_slots>:
ffff00000008e3b0:	00000100 	udf	#256
ffff00000008e3b4:	00000080 	udf	#128
ffff00000008e3b8:	00000055 	udf	#85
ffff00000008e3bc:	0000002a 	udf	#42
ffff00000008e3c0:	00000004 	udf	#4
ffff00000008e3c4:	00000000 	udf	#0
ffff00000008e3c8:	645b0a0d 	fcmla	z13.h, p2/m, z16.h, z27.h, #0
ffff00000008e3cc:	205d6274 	.inst	0x205d6274 ; undefined
ffff00000008e3d0:	73726150 	.inst	0x73726150 ; undefined
ffff00000008e3d4:	20676e69 	.inst	0x20676e69 ; undefined
ffff00000008e3d8:	2e425444 	.inst	0x2e425444 ; undefined
ffff00000008e3dc:	00002e2e 	udf	#11822
ffff00000008e3e0:	20200a0d 	.inst	0x20200a0d ; undefined
ffff00000008e3e4:	645b2020 	fcmla	z0.h, p0/m, z1.h, z27.h, #90
ffff00000008e3e8:	205d6274 	.inst	0x205d6274 ; undefined
ffff00000008e3ec:	6e72656b 	umax	v11.8h, v11.8h, v18.8h
ffff00000008e3f0:	72206c65 	ands	w5, w3, #0xfffffff
ffff00000008e3f4:	69656365 	ldpsw	x5, x24, [x27, #-216]
ffff00000008e3f8:	20646576 	.inst	0x20646576 ; undefined
ffff00000008e3fc:	5f627464 	sqshl	d4, d3, #34
ffff00000008e400:	20727470 	.inst	0x20727470 ; undefined
ffff00000008e404:	0000203d 	udf	#8253
ffff00000008e408:	20200a0d 	.inst	0x20200a0d ; undefined
ffff00000008e40c:	645b2020 	fcmla	z0.h, p0/m, z1.h, z27.h, #90
ffff00000008e410:	205d6274 	.inst	0x205d6274 ; undefined
ffff00000008e414:	4f525245 	.inst	0x4f525245 ; undefined
ffff00000008e418:	49203a52 	.inst	0x49203a52 ; undefined
ffff00000008e41c:	6c61766e 	ldnp	d14, d29, [x19, #-496]
ffff00000008e420:	44206469 	.inst	0x44206469 ; undefined
ffff00000008e424:	00004254 	udf	#16980
ffff00000008e428:	20200a0d 	.inst	0x20200a0d ; undefined
ffff00000008e42c:	20202020 	.inst	0x20202020 ; undefined
ffff00000008e430:	20202020 	.inst	0x20202020 ; undefined
ffff00000008e434:	33746466 	.inst	0x33746466 ; undefined
ffff00000008e438:	6f745f32 	.inst	0x6f745f32 ; undefined
ffff00000008e43c:	7570635f 	.inst	0x7570635f ; undefined
ffff00000008e440:	74646628 	.inst	0x74646628 ; undefined
ffff00000008e444:	616d3e2d 	.inst	0x616d3e2d ; undefined
ffff00000008e448:	3d636967 	ldr	b7, [x11, #2266]
ffff00000008e44c:	00000000 	udf	#0
ffff00000008e450:	20200a0d 	.inst	0x20200a0d ; undefined
ffff00000008e454:	645b2020 	fcmla	z0.h, p0/m, z1.h, z27.h, #90
ffff00000008e458:	205d6274 	.inst	0x205d6274 ; undefined
ffff00000008e45c:	20646e45 	.inst	0x20646e45 ; undefined
ffff00000008e460:	6420666f 	.inst	0x6420666f ; undefined
ffff00000008e464:	73206274 	.inst	0x73206274 ; undefined
ffff00000008e468:	63757274 	.inst	0x63757274 ; undefined
ffff00000008e46c:	65727574 	fnmls	z20.h, p5/m, z11.h, z18.h
	...
ffff00000008e478:	20200a0d 	.inst	0x20200a0d ; undefined
ffff00000008e47c:	645b2020 	fcmla	z0.h, p0/m, z1.h, z27.h, #90
ffff00000008e480:	205d6274 	.inst	0x205d6274 ; undefined
ffff00000008e484:	4f525245 	.inst	0x4f525245 ; undefined
ffff00000008e488:	54203a52 	bc.cs	ffff0000000cebd0 <__heap_start+0x38bd0>  // bc.hs, bc.nlast
ffff00000008e48c:	6e656b6f 	.inst	0x6e656b6f ; undefined
ffff00000008e490:	746f6e20 	.inst	0x746f6e20 ; undefined
ffff00000008e494:	74616d20 	.inst	0x74616d20 ; undefined
ffff00000008e498:	64656863 	.inst	0x64656863 ; undefined
ffff00000008e49c:	00000000 	udf	#0

ffff00000008e4a0 <pool_sizes>:
ffff00000008e4a0:	00000010 	udf	#16
ffff00000008e4a4:	00000020 	udf	#32
ffff00000008e4a8:	00000030 	udf	#48
ffff00000008e4ac:	00000060 	udf	#96
ffff00000008e4b0:	00000400 	udf	#1024
ffff00000008e4b4:	00000000 	udf	#0

ffff00000008e4b8 <pool_slots>:
ffff00000008e4b8:	00000100 	udf	#256
ffff00000008e4bc:	00000080 	udf	#128
ffff00000008e4c0:	00000055 	udf	#85
ffff00000008e4c4:	0000002a 	udf	#42
ffff00000008e4c8:	00000004 	udf	#4
ffff00000008e4cc:	00000000 	udf	#0
ffff00000008e4d0:	635b0a0d 	.inst	0x635b0a0d ; undefined
ffff00000008e4d4:	6b6e7568 	.inst	0x6b6e7568 ; undefined
ffff00000008e4d8:	6e69205d 	usubl2	v29.4s, v2.8h, v9.8h
ffff00000008e4dc:	61697469 	.inst	0x61697469 ; undefined
ffff00000008e4e0:	2e2e2e6c 	uqsub	v12.8b, v19.8b, v14.8b
ffff00000008e4e4:	00000020 	udf	#32
ffff00000008e4e8:	455b0a0d 	uaddlb	z13.h, z16.b, z27.b
ffff00000008e4ec:	524f5252 	.inst	0x524f5252 ; undefined
ffff00000008e4f0:	6863205d 	.inst	0x6863205d ; undefined
ffff00000008e4f4:	206b6e75 	.inst	0x206b6e75 ; undefined
ffff00000008e4f8:	74696e69 	.inst	0x74696e69 ; undefined
ffff00000008e4fc:	7562203a 	.inst	0x7562203a ; undefined
ffff00000008e500:	5f796464 	.inst	0x5f796464 ; undefined
ffff00000008e504:	6f6c6c61 	.inst	0x6f6c6c61 ; undefined
ffff00000008e508:	61662063 	.inst	0x61662063 ; undefined
ffff00000008e50c:	64656c69 	.inst	0x64656c69 ; undefined
	...
ffff00000008e518:	455b0a0d 	uaddlb	z13.h, z16.b, z27.b
ffff00000008e51c:	524f5252 	.inst	0x524f5252 ; undefined
ffff00000008e520:	6863205d 	.inst	0x6863205d ; undefined
ffff00000008e524:	206b6e75 	.inst	0x206b6e75 ; undefined
ffff00000008e528:	6f6c6c61 	.inst	0x6f6c6c61 ; undefined
ffff00000008e52c:	69203a63 	stgp	x3, x14, [x19, #-1024]
ffff00000008e530:	6c61766e 	ldnp	d14, d29, [x19, #-496]
ffff00000008e534:	73206469 	.inst	0x73206469 ; undefined
ffff00000008e538:	2c657a69 	ldnp	s9, s30, [x19, #-216]
ffff00000008e53c:	656c7020 	fnmls	z0.h, p4/m, z1.h, z12.h
ffff00000008e540:	20657361 	.inst	0x20657361 ; undefined
ffff00000008e544:	20657375 	.inst	0x20657375 ; undefined
ffff00000008e548:	64647562 	.inst	0x64647562 ; undefined
ffff00000008e54c:	79732079 	ldrh	w25, [x3, #6544]
ffff00000008e550:	6d657473 	ldp	d19, d29, [x3, #-432]
ffff00000008e554:	00000000 	udf	#0
ffff00000008e558:	635b0a0d 	.inst	0x635b0a0d ; undefined
ffff00000008e55c:	6b6e7568 	.inst	0x6b6e7568 ; undefined
ffff00000008e560:	6c61205d 	ldnp	d29, d8, [x2, #-496]
ffff00000008e564:	61636f6c 	.inst	0x61636f6c ; undefined
ffff00000008e568:	2c646574 	ldnp	s20, s25, [x11, #-224]
ffff00000008e56c:	64646120 	.inst	0x64646120 ; undefined
ffff00000008e570:	00003d72 	udf	#15730
ffff00000008e574:	00000000 	udf	#0
ffff00000008e578:	6973202c 	ldpsw	x12, x8, [x1, #-104]
ffff00000008e57c:	003d657a 	.inst	0x003d657a ; NYI
ffff00000008e580:	455b0a0d 	uaddlb	z13.h, z16.b, z27.b
ffff00000008e584:	524f5252 	.inst	0x524f5252 ; undefined
ffff00000008e588:	6863205d 	.inst	0x6863205d ; undefined
ffff00000008e58c:	206b6e75 	.inst	0x206b6e75 ; undefined
ffff00000008e590:	6f6c6c61 	.inst	0x6f6c6c61 ; undefined
ffff00000008e594:	62203a63 	.inst	0x62203a63 ; undefined
ffff00000008e598:	79646475 	ldrh	w21, [x3, #4658]
ffff00000008e59c:	6c6c615f 	ldnp	d31, d24, [x10, #-320]
ffff00000008e5a0:	6620636f 	.inst	0x6620636f ; undefined
ffff00000008e5a4:	656c6961 	fnmls	z1.h, p2/m, z11.h, z12.h
ffff00000008e5a8:	00000064 	udf	#100
ffff00000008e5ac:	00000000 	udf	#0
ffff00000008e5b0:	455b0a0d 	uaddlb	z13.h, z16.b, z27.b
ffff00000008e5b4:	524f5252 	.inst	0x524f5252 ; undefined
ffff00000008e5b8:	6863205d 	.inst	0x6863205d ; undefined
ffff00000008e5bc:	206b6e75 	.inst	0x206b6e75 ; undefined
ffff00000008e5c0:	6f6c6c61 	.inst	0x6f6c6c61 ; undefined
ffff00000008e5c4:	64203a63 	.inst	0x64203a63 ; undefined
ffff00000008e5c8:	6d616e79 	ldp	d25, d27, [x19, #-496]
ffff00000008e5cc:	61206369 	.inst	0x61206369 ; undefined
ffff00000008e5d0:	636f6c6c 	.inst	0x636f6c6c ; undefined
ffff00000008e5d4:	726f7461 	.inst	0x726f7461 ; undefined
ffff00000008e5d8:	6c756620 	ldnp	d0, d25, [x17, #-176]
ffff00000008e5dc:	4d28206c 	.inst	0x4d28206c ; undefined
ffff00000008e5e0:	505f5841 	adr	x1, ffff00000014d0ea <__heap_start+0xb70ea>
ffff00000008e5e4:	5f454741 	.inst	0x5f454741 ; undefined
ffff00000008e5e8:	4e554f43 	.inst	0x4e554f43 ; undefined
ffff00000008e5ec:	00002954 	udf	#10580
ffff00000008e5f0:	635b0a0d 	.inst	0x635b0a0d ; undefined
ffff00000008e5f4:	6b6e7568 	.inst	0x6b6e7568 ; undefined
ffff00000008e5f8:	7266205d 	.inst	0x7266205d ; undefined
ffff00000008e5fc:	6e696565 	umax	v5.8h, v11.8h, v9.8h
ffff00000008e600:	61202c67 	.inst	0x61202c67 ; undefined
ffff00000008e604:	3d726464 	ldr	b4, [x3, #3225]
	...
ffff00000008e610:	635b0a0d 	.inst	0x635b0a0d ; undefined
ffff00000008e614:	6b6e7568 	.inst	0x6b6e7568 ; undefined
ffff00000008e618:	6843205d 	.inst	0x6843205d ; undefined
ffff00000008e61c:	206b6e75 	.inst	0x206b6e75 ; undefined
ffff00000008e620:	6c6f6f50 	ldnp	d16, d27, [x26, #-272]
ffff00000008e624:	00003a73 	udf	#14963
ffff00000008e628:	20200a0d 	.inst	0x20200a0d ; undefined
ffff00000008e62c:	6f702020 	umlal2	v0.4s, v1.8h, v0.h[3]
ffff00000008e630:	00006c6f 	udf	#27759
ffff00000008e634:	00000000 	udf	#0
ffff00000008e638:	69732820 	ldpsw	x0, x10, [x1, #-104]
ffff00000008e63c:	203a657a 	.inst	0x203a657a ; undefined
	...
ffff00000008e648:	203a2942 	.inst	0x203a2942 ; undefined
ffff00000008e64c:	00000000 	udf	#0
ffff00000008e650:	6e692820 	.inst	0x6e692820 ; undefined
ffff00000008e654:	00297469 	.inst	0x00297469 ; NYI
ffff00000008e658:	203e2d20 	.inst	0x203e2d20 ; undefined
ffff00000008e65c:	00000000 	udf	#0
ffff00000008e660:	4c4c554e 	.inst	0x4c4c554e ; undefined
ffff00000008e664:	00000000 	udf	#0
ffff00000008e668:	00000a0d 	udf	#2573
ffff00000008e66c:	00000000 	udf	#0

ffff00000008e670 <pool_sizes>:
ffff00000008e670:	00000010 	udf	#16
ffff00000008e674:	00000020 	udf	#32
ffff00000008e678:	00000030 	udf	#48
ffff00000008e67c:	00000060 	udf	#96
ffff00000008e680:	00000400 	udf	#1024
ffff00000008e684:	00000000 	udf	#0

ffff00000008e688 <pool_slots>:
ffff00000008e688:	00000100 	udf	#256
ffff00000008e68c:	00000080 	udf	#128
ffff00000008e690:	00000055 	udf	#85
ffff00000008e694:	0000002a 	udf	#42
ffff00000008e698:	00000004 	udf	#4
ffff00000008e69c:	00000000 	udf	#0
ffff00000008e6a0:	434e5953 	.inst	0x434e5953 ; undefined
ffff00000008e6a4:	564e495f 	.inst	0x564e495f ; undefined
ffff00000008e6a8:	44494c41 	umlalt	z1.h, z2.b, z9.b
ffff00000008e6ac:	314c455f 	cmn	w10, #0x311, lsl #12
ffff00000008e6b0:	00000074 	udf	#116
ffff00000008e6b4:	00000000 	udf	#0
ffff00000008e6b8:	5f515249 	.inst	0x5f515249 ; undefined
ffff00000008e6bc:	41564e49 	.inst	0x41564e49 ; undefined
ffff00000008e6c0:	5f44494c 	.inst	0x5f44494c ; undefined
ffff00000008e6c4:	74314c45 	.inst	0x74314c45 ; undefined
	...
ffff00000008e6d0:	5f514946 	.inst	0x5f514946 ; undefined
ffff00000008e6d4:	41564e49 	.inst	0x41564e49 ; undefined
ffff00000008e6d8:	5f44494c 	.inst	0x5f44494c ; undefined
ffff00000008e6dc:	74314c45 	.inst	0x74314c45 ; undefined
	...
ffff00000008e6e8:	4f525245 	.inst	0x4f525245 ; undefined
ffff00000008e6ec:	4e495f52 	.inst	0x4e495f52 ; undefined
ffff00000008e6f0:	494c4156 	.inst	0x494c4156 ; undefined
ffff00000008e6f4:	4c455f44 	.inst	0x4c455f44 ; undefined
ffff00000008e6f8:	00005431 	udf	#21553
ffff00000008e6fc:	00000000 	udf	#0
ffff00000008e700:	434e5953 	.inst	0x434e5953 ; undefined
ffff00000008e704:	564e495f 	.inst	0x564e495f ; undefined
ffff00000008e708:	44494c41 	umlalt	z1.h, z2.b, z9.b
ffff00000008e70c:	314c455f 	cmn	w10, #0x311, lsl #12
ffff00000008e710:	00000068 	udf	#104
ffff00000008e714:	00000000 	udf	#0
ffff00000008e718:	5f515249 	.inst	0x5f515249 ; undefined
ffff00000008e71c:	41564e49 	.inst	0x41564e49 ; undefined
ffff00000008e720:	5f44494c 	.inst	0x5f44494c ; undefined
ffff00000008e724:	68314c45 	.inst	0x68314c45 ; undefined
	...
ffff00000008e730:	5f514946 	.inst	0x5f514946 ; undefined
ffff00000008e734:	41564e49 	.inst	0x41564e49 ; undefined
ffff00000008e738:	5f44494c 	.inst	0x5f44494c ; undefined
ffff00000008e73c:	68314c45 	.inst	0x68314c45 ; undefined
	...
ffff00000008e748:	4f525245 	.inst	0x4f525245 ; undefined
ffff00000008e74c:	4e495f52 	.inst	0x4e495f52 ; undefined
ffff00000008e750:	494c4156 	.inst	0x494c4156 ; undefined
ffff00000008e754:	4c455f44 	.inst	0x4c455f44 ; undefined
ffff00000008e758:	00006831 	udf	#26673
ffff00000008e75c:	00000000 	udf	#0
ffff00000008e760:	434e5953 	.inst	0x434e5953 ; undefined
ffff00000008e764:	564e495f 	.inst	0x564e495f ; undefined
ffff00000008e768:	44494c41 	umlalt	z1.h, z2.b, z9.b
ffff00000008e76c:	304c455f 	adr	xzr, ffff000000127015 <__heap_start+0x91015>
ffff00000008e770:	0034365f 	.inst	0x0034365f ; NYI
ffff00000008e774:	00000000 	udf	#0
ffff00000008e778:	5f515249 	.inst	0x5f515249 ; undefined
ffff00000008e77c:	41564e49 	.inst	0x41564e49 ; undefined
ffff00000008e780:	5f44494c 	.inst	0x5f44494c ; undefined
ffff00000008e784:	5f304c45 	.inst	0x5f304c45 ; undefined
ffff00000008e788:	00003436 	udf	#13366
ffff00000008e78c:	00000000 	udf	#0
ffff00000008e790:	5f514946 	.inst	0x5f514946 ; undefined
ffff00000008e794:	41564e49 	.inst	0x41564e49 ; undefined
ffff00000008e798:	5f44494c 	.inst	0x5f44494c ; undefined
ffff00000008e79c:	5f304c45 	.inst	0x5f304c45 ; undefined
ffff00000008e7a0:	00003436 	udf	#13366
ffff00000008e7a4:	00000000 	udf	#0
ffff00000008e7a8:	4f525245 	.inst	0x4f525245 ; undefined
ffff00000008e7ac:	4e495f52 	.inst	0x4e495f52 ; undefined
ffff00000008e7b0:	494c4156 	.inst	0x494c4156 ; undefined
ffff00000008e7b4:	4c455f44 	.inst	0x4c455f44 ; undefined
ffff00000008e7b8:	34365f30 	cbz	w16, ffff0000000fb39c <__heap_start+0x6539c>
ffff00000008e7bc:	00000000 	udf	#0
ffff00000008e7c0:	434e5953 	.inst	0x434e5953 ; undefined
ffff00000008e7c4:	564e495f 	.inst	0x564e495f ; undefined
ffff00000008e7c8:	44494c41 	umlalt	z1.h, z2.b, z9.b
ffff00000008e7cc:	304c455f 	adr	xzr, ffff000000127075 <__heap_start+0x91075>
ffff00000008e7d0:	0032335f 	.inst	0x0032335f ; NYI
ffff00000008e7d4:	00000000 	udf	#0
ffff00000008e7d8:	5f515249 	.inst	0x5f515249 ; undefined
ffff00000008e7dc:	41564e49 	.inst	0x41564e49 ; undefined
ffff00000008e7e0:	5f44494c 	.inst	0x5f44494c ; undefined
ffff00000008e7e4:	5f304c45 	.inst	0x5f304c45 ; undefined
ffff00000008e7e8:	00003233 	udf	#12851
ffff00000008e7ec:	00000000 	udf	#0
ffff00000008e7f0:	5f514946 	.inst	0x5f514946 ; undefined
ffff00000008e7f4:	41564e49 	.inst	0x41564e49 ; undefined
ffff00000008e7f8:	5f44494c 	.inst	0x5f44494c ; undefined
ffff00000008e7fc:	5f304c45 	.inst	0x5f304c45 ; undefined
ffff00000008e800:	00003233 	udf	#12851
ffff00000008e804:	00000000 	udf	#0
ffff00000008e808:	4f525245 	.inst	0x4f525245 ; undefined
ffff00000008e80c:	4e495f52 	.inst	0x4e495f52 ; undefined
ffff00000008e810:	494c4156 	.inst	0x494c4156 ; undefined
ffff00000008e814:	4c455f44 	.inst	0x4c455f44 ; undefined
ffff00000008e818:	32335f30 	orr	w16, w25, #0xffffe01f
ffff00000008e81c:	00000000 	udf	#0
ffff00000008e820:	555b0a0d 	.inst	0x555b0a0d ; undefined
ffff00000008e824:	20545241 	.inst	0x20545241 ; undefined
ffff00000008e828:	4f525245 	.inst	0x4f525245 ; undefined
ffff00000008e82c:	6f205d52 	.inst	0x6f205d52 ; undefined
ffff00000008e830:	72656874 	.inst	0x72656874 ; undefined
ffff00000008e834:	51524920 	sub	w0, w9, #0x492, lsl #12
ffff00000008e838:	0000003a 	udf	#58
ffff00000008e83c:	00000000 	udf	#0
ffff00000008e840:	495b0a0d 	.inst	0x495b0a0d ; undefined
ffff00000008e844:	45205152 	.inst	0x45205152 ; undefined
ffff00000008e848:	524f5252 	.inst	0x524f5252 ; undefined
ffff00000008e84c:	746f205d 	.inst	0x746f205d ; undefined
ffff00000008e850:	20726568 	.inst	0x20726568 ; undefined
ffff00000008e854:	65726f63 	fnmls	z3.h, p3/m, z27.h, z18.h
ffff00000008e858:	51524920 	sub	w0, w9, #0x492, lsl #12
ffff00000008e85c:	0000003a 	udf	#58
ffff00000008e860:	2d2d0a0d 	stp	s13, s2, [x16, #-152]
ffff00000008e864:	2d2d2d2d 	stp	s13, s11, [x9, #-152]
ffff00000008e868:	65202d2d 	.inst	0x65202d2d ; undefined
ffff00000008e86c:	7265746e 	.inst	0x7265746e ; undefined
ffff00000008e870:	776f6c20 	.inst	0x776f6c20 ; undefined
ffff00000008e874:	735f7265 	.inst	0x735f7265 ; undefined
ffff00000008e878:	5f636e79 	.inst	0x5f636e79 ; undefined
ffff00000008e87c:	646e6168 	.inst	0x646e6168 ; undefined
ffff00000008e880:	2072656c 	.inst	0x2072656c ; undefined
ffff00000008e884:	2d2d2d2d 	stp	s13, s11, [x9, #-152]
ffff00000008e888:	2d2d2d2d 	stp	s13, s11, [x9, #-152]
ffff00000008e88c:	00000020 	udf	#32
ffff00000008e890:	79740a0d 	ldrh	w13, [x16, #6660]
ffff00000008e894:	3d206570 	str	b16, [x11, #2073]
ffff00000008e898:	00000020 	udf	#32
ffff00000008e89c:	00000000 	udf	#0
ffff00000008e8a0:	7865203b 	ldeorlh	w5, w27, [x1]
ffff00000008e8a4:	74706563 	.inst	0x74706563 ; undefined
ffff00000008e8a8:	206e6f69 	.inst	0x206e6f69 ; undefined
ffff00000008e8ac:	65707974 	fnmls	z20.h, p6/m, z11.h, z16.h
ffff00000008e8b0:	00203d20 	.inst	0x00203d20 ; NYI
ffff00000008e8b4:	00000000 	udf	#0
ffff00000008e8b8:	6e6b6e55 	umin	v21.8h, v18.8h, v11.8h
ffff00000008e8bc:	006e776f 	.inst	0x006e776f ; undefined
ffff00000008e8c0:	70617254 	adr	x20, ffff00000015170b <__heap_start+0xbb70b>
ffff00000008e8c4:	20646570 	.inst	0x20646570 ; undefined
ffff00000008e8c8:	2f494657 	.inst	0x2f494657 ; undefined
ffff00000008e8cc:	00454657 	.inst	0x00454657 ; undefined
ffff00000008e8d0:	70617254 	adr	x20, ffff00000015171b <__heap_start+0xbb71b>
ffff00000008e8d4:	20646570 	.inst	0x20646570 ; undefined
ffff00000008e8d8:	2052434d 	.inst	0x2052434d ; undefined
ffff00000008e8dc:	4d20726f 	st4	{v15.h-v18.h}[6], [x19]
ffff00000008e8e0:	61204352 	.inst	0x61204352 ; undefined
ffff00000008e8e4:	73656363 	.inst	0x73656363 ; undefined
ffff00000008e8e8:	69772073 	ldpsw	x19, x8, [x3, #-72]
ffff00000008e8ec:	28206874 	stnp	w20, w26, [x3, #-256]
ffff00000008e8f0:	72706f63 	.inst	0x72706f63 ; undefined
ffff00000008e8f4:	3d3d636f 	str	b15, [x27, #3928]
ffff00000008e8f8:	31316230 	adds	w16, w17, #0xc58
ffff00000008e8fc:	20293131 	.inst	0x20293131 ; undefined
ffff00000008e900:	72414128 	.inst	0x72414128 ; undefined
ffff00000008e904:	32336863 	orr	w3, w3, #0xffffe0ff
ffff00000008e908:	00000029 	udf	#41
ffff00000008e90c:	00000000 	udf	#0
ffff00000008e910:	656c6c49 	fnmls	z9.h, p3/m, z2.h, z12.h
ffff00000008e914:	206c6167 	.inst	0x206c6167 ; undefined
ffff00000008e918:	63657865 	.inst	0x63657865 ; undefined
ffff00000008e91c:	6f697475 	uqshl	v21.2d, v3.2d, #41
ffff00000008e920:	0000006e 	udf	#110
ffff00000008e924:	00000000 	udf	#0
ffff00000008e928:	74737953 	.inst	0x74737953 ; undefined
ffff00000008e92c:	63206d65 	.inst	0x63206d65 ; undefined
ffff00000008e930:	006c6c61 	.inst	0x006c6c61 ; undefined
ffff00000008e934:	00000000 	udf	#0
ffff00000008e938:	74736e49 	.inst	0x74736e49 ; undefined
ffff00000008e93c:	74637572 	.inst	0x74637572 ; undefined
ffff00000008e940:	206e6f69 	.inst	0x206e6f69 ; undefined
ffff00000008e944:	726f6261 	.inst	0x726f6261 ; undefined
ffff00000008e948:	6c202c74 	stnp	d20, d11, [x3, #-512]
ffff00000008e94c:	7265776f 	.inst	0x7265776f ; undefined
ffff00000008e950:	004c4520 	.inst	0x004c4520 ; undefined
ffff00000008e954:	00000000 	udf	#0
ffff00000008e958:	74736e49 	.inst	0x74736e49 ; undefined
ffff00000008e95c:	74637572 	.inst	0x74637572 ; undefined
ffff00000008e960:	206e6f69 	.inst	0x206e6f69 ; undefined
ffff00000008e964:	726f6261 	.inst	0x726f6261 ; undefined
ffff00000008e968:	73202c74 	.inst	0x73202c74 ; undefined
ffff00000008e96c:	20656d61 	.inst	0x20656d61 ; undefined
ffff00000008e970:	00004c45 	udf	#19525
ffff00000008e974:	00000000 	udf	#0
ffff00000008e978:	74736e49 	.inst	0x74736e49 ; undefined
ffff00000008e97c:	74637572 	.inst	0x74637572 ; undefined
ffff00000008e980:	206e6f69 	.inst	0x206e6f69 ; undefined
ffff00000008e984:	67696c61 	.inst	0x67696c61 ; undefined
ffff00000008e988:	6e656d6e 	umin	v14.8h, v11.8h, v5.8h
ffff00000008e98c:	61662074 	.inst	0x61662074 ; undefined
ffff00000008e990:	00746c75 	.inst	0x00746c75 ; undefined
ffff00000008e994:	00000000 	udf	#0
ffff00000008e998:	61746144 	.inst	0x61746144 ; undefined
ffff00000008e99c:	6f626120 	umlsl2	v0.4s, v9.8h, v2.h[2]
ffff00000008e9a0:	202c7472 	.inst	0x202c7472 ; undefined
ffff00000008e9a4:	65776f6c 	fnmls	z12.h, p3/m, z27.h, z23.h
ffff00000008e9a8:	4c452072 	.inst	0x4c452072 ; undefined
ffff00000008e9ac:	00000000 	udf	#0
ffff00000008e9b0:	61746144 	.inst	0x61746144 ; undefined
ffff00000008e9b4:	6f626120 	umlsl2	v0.4s, v9.8h, v2.h[2]
ffff00000008e9b8:	202c7472 	.inst	0x202c7472 ; undefined
ffff00000008e9bc:	656d6173 	fnmls	z19.h, p0/m, z11.h, z13.h
ffff00000008e9c0:	004c4520 	.inst	0x004c4520 ; undefined
ffff00000008e9c4:	00000000 	udf	#0
ffff00000008e9c8:	63617453 	.inst	0x63617453 ; undefined
ffff00000008e9cc:	6c61206b 	ldnp	d11, d8, [x3, #-496]
ffff00000008e9d0:	6d6e6769 	ldp	d9, d25, [x27, #-288]
ffff00000008e9d4:	20746e65 	.inst	0x20746e65 ; undefined
ffff00000008e9d8:	6c756166 	ldnp	d6, d24, [x11, #-176]
ffff00000008e9dc:	00000074 	udf	#116
ffff00000008e9e0:	616f6c46 	.inst	0x616f6c46 ; undefined
ffff00000008e9e4:	676e6974 	.inst	0x676e6974 ; undefined
ffff00000008e9e8:	696f7020 	ldpsw	x0, x28, [x1, #-136]
ffff00000008e9ec:	0000746e 	udf	#29806
ffff00000008e9f0:	6163203b 	.inst	0x6163203b ; undefined
ffff00000008e9f4:	20657375 	.inst	0x20657375 ; undefined
ffff00000008e9f8:	0000203d 	udf	#8253
ffff00000008e9fc:	00000000 	udf	#0
ffff00000008ea00:	0000202c 	udf	#8236
ffff00000008ea04:	00000000 	udf	#0
ffff00000008ea08:	72646441 	.inst	0x72646441 ; undefined
ffff00000008ea0c:	20737365 	.inst	0x20737365 ; undefined
ffff00000008ea10:	657a6973 	fnmls	z19.h, p2/m, z11.h, z26.h
ffff00000008ea14:	75616620 	.inst	0x75616620 ; undefined
ffff00000008ea18:	0000746c 	udf	#29804
ffff00000008ea1c:	00000000 	udf	#0
ffff00000008ea20:	6e617254 	uabdl2	v20.4s, v18.8h, v1.8h
ffff00000008ea24:	74616c73 	.inst	0x74616c73 ; undefined
ffff00000008ea28:	206e6f69 	.inst	0x206e6f69 ; undefined
ffff00000008ea2c:	6c756166 	ldnp	d6, d24, [x11, #-176]
ffff00000008ea30:	00000074 	udf	#116
ffff00000008ea34:	00000000 	udf	#0
ffff00000008ea38:	65636341 	fnmls	z1.h, p0/m, z26.h, z3.h
ffff00000008ea3c:	66207373 	.inst	0x66207373 ; undefined
ffff00000008ea40:	2067616c 	.inst	0x2067616c ; undefined
ffff00000008ea44:	6c756166 	ldnp	d6, d24, [x11, #-176]
ffff00000008ea48:	00000074 	udf	#116
ffff00000008ea4c:	00000000 	udf	#0
ffff00000008ea50:	6d726550 	ldp	d16, d25, [x10, #-224]
ffff00000008ea54:	69737369 	ldpsw	x9, x28, [x27, #-104]
ffff00000008ea58:	66206e6f 	.inst	0x66206e6f ; undefined
ffff00000008ea5c:	746c7561 	.inst	0x746c7561 ; undefined
	...
ffff00000008ea68:	20746120 	.inst	0x20746120 ; undefined
ffff00000008ea6c:	6576656c 	fnmls	z12.h, p1/m, z11.h, z22.h
ffff00000008ea70:	0030206c 	.inst	0x0030206c ; NYI
ffff00000008ea74:	00000000 	udf	#0
ffff00000008ea78:	20746120 	.inst	0x20746120 ; undefined
ffff00000008ea7c:	6576656c 	fnmls	z12.h, p1/m, z11.h, z22.h
ffff00000008ea80:	0031206c 	.inst	0x0031206c ; NYI
ffff00000008ea84:	00000000 	udf	#0
ffff00000008ea88:	20746120 	.inst	0x20746120 ; undefined
ffff00000008ea8c:	6576656c 	fnmls	z12.h, p1/m, z11.h, z22.h
ffff00000008ea90:	0032206c 	.inst	0x0032206c ; NYI
ffff00000008ea94:	00000000 	udf	#0
ffff00000008ea98:	20746120 	.inst	0x20746120 ; undefined
ffff00000008ea9c:	6576656c 	fnmls	z12.h, p1/m, z11.h, z22.h
ffff00000008eaa0:	0033206c 	.inst	0x0033206c ; NYI
ffff00000008eaa4:	00000000 	udf	#0
ffff00000008eaa8:	53450a0d 	.inst	0x53450a0d ; undefined
ffff00000008eaac:	4c455f52 	.inst	0x4c455f52 ; undefined
ffff00000008eab0:	00002031 	udf	#8241
ffff00000008eab4:	00000000 	udf	#0
ffff00000008eab8:	4c450a0d 	.inst	0x4c450a0d ; undefined
ffff00000008eabc:	4c455f52 	.inst	0x4c455f52 ; undefined
ffff00000008eac0:	00002031 	udf	#8241
ffff00000008eac4:	00000000 	udf	#0
ffff00000008eac8:	50530a0d 	adr	x13, ffff000000134c0a <__heap_start+0x9ec0a>
ffff00000008eacc:	455f5253 	ssubwb	z19.h, z18.h, z31.b
ffff00000008ead0:	0020314c 	.inst	0x0020314c ; NYI
ffff00000008ead4:	00000000 	udf	#0
ffff00000008ead8:	2d2d0a0d 	stp	s13, s2, [x16, #-152]
ffff00000008eadc:	2d2d2d2d 	stp	s13, s11, [x9, #-152]
ffff00000008eae0:	65202d2d 	.inst	0x65202d2d ; undefined
ffff00000008eae4:	7265746e 	.inst	0x7265746e ; undefined
ffff00000008eae8:	66656420 	.inst	0x66656420 ; undefined
ffff00000008eaec:	746c7561 	.inst	0x746c7561 ; undefined
ffff00000008eaf0:	6e61685f 	fcvtxn2	v31.4s, v2.2d
ffff00000008eaf4:	72656c64 	.inst	0x72656c64 ; undefined
ffff00000008eaf8:	2d2d2d20 	stp	s0, s11, [x9, #-152]
ffff00000008eafc:	2d2d2d2d 	stp	s13, s11, [x9, #-152]
ffff00000008eb00:	0000202d 	udf	#8237
ffff00000008eb04:	00000000 	udf	#0
ffff00000008eb08:	524c4520 	.inst	0x524c4520 ; undefined
ffff00000008eb0c:	314c455f 	cmn	w10, #0x311, lsl #12
ffff00000008eb10:	00000020 	udf	#32
ffff00000008eb14:	00000000 	udf	#0
ffff00000008eb18:	52414620 	.inst	0x52414620 ; undefined
ffff00000008eb1c:	314c455f 	cmn	w10, #0x311, lsl #12
ffff00000008eb20:	00000020 	udf	#32
ffff00000008eb24:	00000000 	udf	#0
ffff00000008eb28:	455b0a0d 	uaddlb	z13.h, z16.b, z27.b
ffff00000008eb2c:	524f5252 	.inst	0x524f5252 ; undefined
ffff00000008eb30:	6f4e205d 	umlal2	v29.4s, v2.8h, v14.h[0]
ffff00000008eb34:	65726620 	fnmls	z0.h, p1/m, z17.h, z18.h
ffff00000008eb38:	61742065 	.inst	0x61742065 ; undefined
ffff00000008eb3c:	73206b73 	.inst	0x73206b73 ; undefined
ffff00000008eb40:	00746f6c 	.inst	0x00746f6c ; undefined
ffff00000008eb44:	00000000 	udf	#0

ffff00000008eb48 <pool_sizes>:
ffff00000008eb48:	00000010 	udf	#16
ffff00000008eb4c:	00000020 	udf	#32
ffff00000008eb50:	00000030 	udf	#48
ffff00000008eb54:	00000060 	udf	#96
ffff00000008eb58:	00000400 	udf	#1024
ffff00000008eb5c:	00000000 	udf	#0

ffff00000008eb60 <pool_slots>:
ffff00000008eb60:	00000100 	udf	#256
ffff00000008eb64:	00000080 	udf	#128
ffff00000008eb68:	00000055 	udf	#85
ffff00000008eb6c:	0000002a 	udf	#42
ffff00000008eb70:	00000004 	udf	#4
ffff00000008eb74:	00000000 	udf	#0
ffff00000008eb78:	00000a0d 	udf	#2573
ffff00000008eb7c:	00000000 	udf	#0
ffff00000008eb80:	72616f42 	.inst	0x72616f42 ; undefined
ffff00000008eb84:	65722064 	fmls	z4.h, p0/m, z3.h, z18.h
ffff00000008eb88:	69736976 	ldpsw	x22, x26, [x11, #-104]
ffff00000008eb8c:	203a6e6f 	.inst	0x203a6e6f ; undefined
	...
ffff00000008eb98:	204d5241 	.inst	0x204d5241 ; undefined
ffff00000008eb9c:	6f6d656d 	sqshlu	v13.2d, v11.2d, #45
ffff00000008eba0:	62207972 	.inst	0x62207972 ; undefined
ffff00000008eba4:	20657361 	.inst	0x20657361 ; undefined
ffff00000008eba8:	72646461 	.inst	0x72646461 ; undefined
ffff00000008ebac:	20737365 	.inst	0x20737365 ; undefined
ffff00000008ebb0:	0000203a 	udf	#8250
ffff00000008ebb4:	00000000 	udf	#0
ffff00000008ebb8:	204d5241 	.inst	0x204d5241 ; undefined
ffff00000008ebbc:	6f6d656d 	sqshlu	v13.2d, v11.2d, #45
ffff00000008ebc0:	73207972 	.inst	0x73207972 ; undefined
ffff00000008ebc4:	20657a69 	.inst	0x20657a69 ; undefined
ffff00000008ebc8:	0000203a 	udf	#8250
ffff00000008ebcc:	00000000 	udf	#0
ffff00000008ebd0:	614d0a0d 	.inst	0x614d0a0d ; undefined
ffff00000008ebd4:	6f626c69 	.inst	0x6f626c69 ; undefined
ffff00000008ebd8:	61632078 	.inst	0x61632078 ; undefined
ffff00000008ebdc:	66206c6c 	.inst	0x66206c6c ; undefined
ffff00000008ebe0:	656c6961 	fnmls	z1.h, p2/m, z11.h, z12.h
ffff00000008ebe4:	00002e64 	udf	#11876
ffff00000008ebe8:	6d5b0a0d 	ldp	d13, d2, [x16, #432]
ffff00000008ebec:	626c6961 	.inst	0x626c6961 ; undefined
ffff00000008ebf0:	205d786f 	.inst	0x205d786f ; undefined
ffff00000008ebf4:	4f525245 	.inst	0x4f525245 ; undefined
ffff00000008ebf8:	46203a52 	.inst	0x46203a52 ; undefined
ffff00000008ebfc:	656c6961 	fnmls	z1.h, p2/m, z11.h, z12.h
ffff00000008ec00:	6f742064 	umlal2	v4.4s, v3.8h, v4.h[3]
ffff00000008ec04:	74656720 	.inst	0x74656720 ; undefined
ffff00000008ec08:	6d656d20 	ldp	d0, d27, [x9, #-432]
ffff00000008ec0c:	2079726f 	.inst	0x2079726f ; undefined
ffff00000008ec10:	6f666e69 	.inst	0x6f666e69 ; undefined
ffff00000008ec14:	00000000 	udf	#0
ffff00000008ec18:	665b0a0d 	.inst	0x665b0a0d ; undefined
ffff00000008ec1c:	656d6172 	fnmls	z18.h, p0/m, z11.h, z13.h
ffff00000008ec20:	66667562 	.inst	0x66667562 ; undefined
ffff00000008ec24:	205d7265 	.inst	0x205d7265 ; undefined
ffff00000008ec28:	74696e49 	.inst	0x74696e49 ; undefined
ffff00000008ec2c:	3a4b4f20 	.inst	0x3a4b4f20 ; undefined
ffff00000008ec30:	64646120 	.inst	0x64646120 ; undefined
ffff00000008ec34:	00003d72 	udf	#15730
ffff00000008ec38:	6977202c 	ldpsw	x12, x8, [x1, #-72]
ffff00000008ec3c:	3d687464 	ldr	b4, [x3, #2589]
	...
ffff00000008ec48:	6568202c 	fmls	z12.h, p0/m, z1.h, z8.h
ffff00000008ec4c:	74686769 	.inst	0x74686769 ; undefined
ffff00000008ec50:	0000003d 	udf	#61
ffff00000008ec54:	00000000 	udf	#0
ffff00000008ec58:	6970202c 	ldpsw	x12, x8, [x1, #-128]
ffff00000008ec5c:	3d686374 	ldr	b20, [x27, #2584]
	...
ffff00000008ec68:	665b0a0d 	.inst	0x665b0a0d ; undefined
ffff00000008ec6c:	656d6172 	fnmls	z18.h, p0/m, z11.h, z13.h
ffff00000008ec70:	66667562 	.inst	0x66667562 ; undefined
ffff00000008ec74:	205d7265 	.inst	0x205d7265 ; undefined
ffff00000008ec78:	74696e49 	.inst	0x74696e49 ; undefined
ffff00000008ec7c:	49414620 	.inst	0x49414620 ; undefined
ffff00000008ec80:	0000004c 	udf	#76
ffff00000008ec84:	00000000 	udf	#0
ffff00000008ec88:	665b0a0d 	.inst	0x665b0a0d ; undefined
ffff00000008ec8c:	68632062 	.inst	0x68632062 ; undefined
ffff00000008ec90:	5d6b6365 	.inst	0x5d6b6365 ; undefined
ffff00000008ec94:	64644120 	bfdot	z0.s, z9.h, z4.h[0]
ffff00000008ec98:	00203a72 	.inst	0x00203a72 ; NYI
ffff00000008ec9c:	00000000 	udf	#0
ffff00000008eca0:	4f4e2820 	smlal2	v0.4s, v1.8h, v14.h[4]
ffff00000008eca4:	6c612054 	ldnp	d20, d8, [x2, #-496]
ffff00000008eca8:	61636f6c 	.inst	0x61636f6c ; undefined
ffff00000008ecac:	29646574 	ldp	w20, w25, [x11, #-224]
	...
ffff00000008ecb8:	6c612820 	ldnp	d0, d10, [x1, #-496]
ffff00000008ecbc:	61636f6c 	.inst	0x61636f6c ; undefined
ffff00000008ecc0:	29646574 	ldp	w20, w25, [x11, #-224]
ffff00000008ecc4:	00000000 	udf	#0
ffff00000008ecc8:	665b0a0d 	.inst	0x665b0a0d ; undefined
ffff00000008eccc:	68632062 	.inst	0x68632062 ; undefined
ffff00000008ecd0:	5d6b6365 	.inst	0x5d6b6365 ; undefined
ffff00000008ecd4:	79685020 	ldrh	w0, [x1, #5160]
ffff00000008ecd8:	61636973 	.inst	0x61636973 ; undefined
ffff00000008ecdc:	6957206c 	ldpsw	x12, x8, [x3, #184]
ffff00000008ece0:	3a687464 	.inst	0x3a687464 ; undefined
ffff00000008ece4:	00000020 	udf	#32
ffff00000008ece8:	6548202c 	.inst	0x6548202c ; undefined
ffff00000008ecec:	74686769 	.inst	0x74686769 ; undefined
ffff00000008ecf0:	0000203a 	udf	#8250
ffff00000008ecf4:	00000000 	udf	#0
ffff00000008ecf8:	665b0a0d 	.inst	0x665b0a0d ; undefined
ffff00000008ecfc:	68632062 	.inst	0x68632062 ; undefined
ffff00000008ed00:	5d6b6365 	.inst	0x5d6b6365 ; undefined
ffff00000008ed04:	72695620 	.inst	0x72695620 ; undefined
ffff00000008ed08:	6c617574 	ldnp	d20, d29, [x11, #-496]
ffff00000008ed0c:	64695720 	.inst	0x64695720 ; undefined
ffff00000008ed10:	203a6874 	.inst	0x203a6874 ; undefined
ffff00000008ed14:	00000000 	udf	#0
ffff00000008ed18:	665b0a0d 	.inst	0x665b0a0d ; undefined
ffff00000008ed1c:	68632062 	.inst	0x68632062 ; undefined
ffff00000008ed20:	5d6b6365 	.inst	0x5d6b6365 ; undefined
ffff00000008ed24:	70654420 	adr	x0, ffff0000001595ab <__heap_start+0xc35ab>
ffff00000008ed28:	203a6874 	.inst	0x203a6874 ; undefined
ffff00000008ed2c:	00000000 	udf	#0
ffff00000008ed30:	665b0a0d 	.inst	0x665b0a0d ; undefined
ffff00000008ed34:	68632062 	.inst	0x68632062 ; undefined
ffff00000008ed38:	5d6b6365 	.inst	0x5d6b6365 ; undefined
ffff00000008ed3c:	78695020 	ldsminlh	w9, w0, [x1]
ffff00000008ed40:	4f206c65 	.inst	0x4f206c65 ; undefined
ffff00000008ed44:	72656472 	.inst	0x72656472 ; undefined
ffff00000008ed48:	0000203a 	udf	#8250
ffff00000008ed4c:	00000000 	udf	#0
ffff00000008ed50:	00424752 	.inst	0x00424752 ; undefined
ffff00000008ed54:	00000000 	udf	#0
ffff00000008ed58:	00524742 	.inst	0x00524742 ; undefined
ffff00000008ed5c:	00000000 	udf	#0
ffff00000008ed60:	6e6b6e55 	umin	v21.8h, v18.8h, v11.8h
ffff00000008ed64:	206e776f 	.inst	0x206e776f ; undefined
ffff00000008ed68:	00000028 	udf	#40
ffff00000008ed6c:	00000000 	udf	#0
ffff00000008ed70:	00000029 	udf	#41
ffff00000008ed74:	00000000 	udf	#0
ffff00000008ed78:	665b0a0d 	.inst	0x665b0a0d ; undefined
ffff00000008ed7c:	68632062 	.inst	0x68632062 ; undefined
ffff00000008ed80:	5d6b6365 	.inst	0x5d6b6365 ; undefined
ffff00000008ed84:	74695020 	.inst	0x74695020 ; undefined
ffff00000008ed88:	203a6863 	.inst	0x203a6863 ; undefined
ffff00000008ed8c:	00000000 	udf	#0
ffff00000008ed90:	645b0a0d 	fcmla	z13.h, p2/m, z16.h, z27.h, #0
ffff00000008ed94:	5d776172 	.inst	0x5d776172 ; undefined
ffff00000008ed98:	69614620 	ldpsw	x0, x17, [x17, #-248]
ffff00000008ed9c:	2064656c 	.inst	0x2064656c ; undefined
ffff00000008eda0:	67206f74 	.inst	0x67206f74 ; undefined
ffff00000008eda4:	66207465 	.inst	0x66207465 ; undefined
ffff00000008eda8:	656d6172 	fnmls	z18.h, p0/m, z11.h, z13.h
ffff00000008edac:	66667562 	.inst	0x66667562 ; undefined
ffff00000008edb0:	61207265 	.inst	0x61207265 ; undefined
ffff00000008edb4:	00726464 	.inst	0x00726464 ; undefined
ffff00000008edb8:	645b0a0d 	fcmla	z13.h, p2/m, z16.h, z27.h, #0
ffff00000008edbc:	5d776172 	.inst	0x5d776172 ; undefined
ffff00000008edc0:	6e694620 	ushl	v0.8h, v17.8h, v9.8h
ffff00000008edc4:	65687369 	fnmls	z9.h, p4/m, z27.h, z8.h
ffff00000008edc8:	72642064 	.inst	0x72642064 ; undefined
ffff00000008edcc:	6e697761 	uabd	v1.8h, v27.8h, v9.8h
ffff00000008edd0:	65742067 	fmls	z7.h, p0/m, z3.h, z20.h
ffff00000008edd4:	70207473 	adr	x19, ffff0000000cfc63 <__heap_start+0x39c63>
ffff00000008edd8:	65747461 	fnmls	z1.h, p5/m, z3.h, z20.h
ffff00000008eddc:	002e6e72 	.inst	0x002e6e72 ; NYI

ffff00000008ede0 <pool_sizes>:
ffff00000008ede0:	00000010 	udf	#16
ffff00000008ede4:	00000020 	udf	#32
ffff00000008ede8:	00000030 	udf	#48
ffff00000008edec:	00000060 	udf	#96
ffff00000008edf0:	00000400 	udf	#1024
ffff00000008edf4:	00000000 	udf	#0

ffff00000008edf8 <pool_slots>:
ffff00000008edf8:	00000100 	udf	#256
ffff00000008edfc:	00000080 	udf	#128
ffff00000008ee00:	00000055 	udf	#85
ffff00000008ee04:	0000002a 	udf	#42
ffff00000008ee08:	00000004 	udf	#4
ffff00000008ee0c:	00000000 	udf	#0
ffff00000008ee10:	545b0a0d 	b.le	ffff000000144f50 <__heap_start+0xaef50>
ffff00000008ee14:	4f454d49 	.inst	0x4f454d49 ; undefined
ffff00000008ee18:	205d5455 	.inst	0x205d5455 ; undefined
ffff00000008ee1c:	00000000 	udf	#0
ffff00000008ee20:	656d6974 	fnmls	z20.h, p2/m, z11.h, z13.h
ffff00000008ee24:	5f74756f 	sqshl	d15, d11, #52
ffff00000008ee28:	6c6c6163 	ldnp	d3, d24, [x11, #-320]
ffff00000008ee2c:	6b636162 	.inst	0x6b636162 ; undefined
ffff00000008ee30:	676f6c5f 	.inst	0x676f6c5f ; undefined
ffff00000008ee34:	00000000 	udf	#0
ffff00000008ee38:	20200a0d 	.inst	0x20200a0d ; undefined
ffff00000008ee3c:	2d2d2020 	stp	s0, s8, [x1, #-152]
ffff00000008ee40:	2d2d2d2d 	stp	s13, s11, [x9, #-152]
ffff00000008ee44:	2d2d2d2d 	stp	s13, s11, [x9, #-152]
ffff00000008ee48:	2d2d2d2d 	stp	s13, s11, [x9, #-152]
ffff00000008ee4c:	2d2d2d2d 	stp	s13, s11, [x9, #-152]
ffff00000008ee50:	6220202d 	.inst	0x6220202d ; undefined
ffff00000008ee54:	63697361 	.inst	0x63697361 ; undefined
ffff00000008ee58:	646d6320 	.inst	0x646d6320 ; undefined
ffff00000008ee5c:	2d2d2020 	stp	s0, s8, [x1, #-152]
ffff00000008ee60:	2d2d2d2d 	stp	s13, s11, [x9, #-152]
ffff00000008ee64:	2d2d2d2d 	stp	s13, s11, [x9, #-152]
ffff00000008ee68:	2d2d2d2d 	stp	s13, s11, [x9, #-152]
ffff00000008ee6c:	2d2d2d2d 	stp	s13, s11, [x9, #-152]
ffff00000008ee70:	2d2d2d2d 	stp	s13, s11, [x9, #-152]
ffff00000008ee74:	2d2d2d2d 	stp	s13, s11, [x9, #-152]
ffff00000008ee78:	2d2d2d2d 	stp	s13, s11, [x9, #-152]
ffff00000008ee7c:	2d2d2d2d 	stp	s13, s11, [x9, #-152]
	...
ffff00000008ee88:	20200a0d 	.inst	0x20200a0d ; undefined
ffff00000008ee8c:	65682020 	fmls	z0.h, p0/m, z1.h, z8.h
ffff00000008ee90:	2020706c 	.inst	0x2020706c ; undefined
ffff00000008ee94:	20202020 	.inst	0x20202020 ; undefined
ffff00000008ee98:	20202020 	.inst	0x20202020 ; undefined
ffff00000008ee9c:	70203a20 	adr	x0, ffff0000000cf5e3 <__heap_start+0x395e3>
ffff00000008eea0:	746e6972 	.inst	0x746e6972 ; undefined
ffff00000008eea4:	69687420 	ldpsw	x0, x29, [x1, #-192]
ffff00000008eea8:	65682073 	fmls	z19.h, p0/m, z3.h, z8.h
ffff00000008eeac:	6d20706c 	stp	d12, d28, [x3, #-512]
ffff00000008eeb0:	00756e65 	.inst	0x00756e65 ; undefined
ffff00000008eeb4:	00000000 	udf	#0
ffff00000008eeb8:	20200a0d 	.inst	0x20200a0d ; undefined
ffff00000008eebc:	65682020 	fmls	z0.h, p0/m, z1.h, z8.h
ffff00000008eec0:	206f6c6c 	.inst	0x206f6c6c ; undefined
ffff00000008eec4:	20202020 	.inst	0x20202020 ; undefined
ffff00000008eec8:	20202020 	.inst	0x20202020 ; undefined
ffff00000008eecc:	70203a20 	adr	x0, ffff0000000cf613 <__heap_start+0x39613>
ffff00000008eed0:	746e6972 	.inst	0x746e6972 ; undefined
ffff00000008eed4:	6c654820 	ldnp	d0, d18, [x1, #-432]
ffff00000008eed8:	57206f6c 	.inst	0x57206f6c ; undefined
ffff00000008eedc:	646c726f 	.inst	0x646c726f ; undefined
ffff00000008eee0:	00000021 	udf	#33
ffff00000008eee4:	00000000 	udf	#0
ffff00000008eee8:	20200a0d 	.inst	0x20200a0d ; undefined
ffff00000008eeec:	616d2020 	.inst	0x616d2020 ; undefined
ffff00000008eef0:	6f626c69 	.inst	0x6f626c69 ; undefined
ffff00000008eef4:	20202078 	.inst	0x20202078 ; undefined
ffff00000008eef8:	20202020 	.inst	0x20202020 ; undefined
ffff00000008eefc:	70203a20 	adr	x0, ffff0000000cf643 <__heap_start+0x39643>
ffff00000008ef00:	746e6972 	.inst	0x746e6972 ; undefined
ffff00000008ef04:	69616d20 	ldpsw	x0, x27, [x9, #-248]
ffff00000008ef08:	786f626c 	ldumaxlh	w15, w12, [x19]
ffff00000008ef0c:	666e6920 	.inst	0x666e6920 ; undefined
ffff00000008ef10:	0000006f 	udf	#111
ffff00000008ef14:	00000000 	udf	#0
ffff00000008ef18:	20200a0d 	.inst	0x20200a0d ; undefined
ffff00000008ef1c:	65722020 	fmls	z0.h, p0/m, z1.h, z18.h
ffff00000008ef20:	746f6f62 	.inst	0x746f6f62 ; undefined
ffff00000008ef24:	20202020 	.inst	0x20202020 ; undefined
ffff00000008ef28:	20202020 	.inst	0x20202020 ; undefined
ffff00000008ef2c:	72203a20 	ands	w0, w17, #0x7fff
ffff00000008ef30:	6f6f6265 	umlsl2	v5.4s, v19.8h, v15.h[2]
ffff00000008ef34:	68742074 	.inst	0x68742074 ; undefined
ffff00000008ef38:	65642065 	fmls	z5.h, p0/m, z3.h, z4.h
ffff00000008ef3c:	65636976 	fnmls	z22.h, p2/m, z11.h, z3.h
	...
ffff00000008ef48:	20200a0d 	.inst	0x20200a0d ; undefined
ffff00000008ef4c:	2d2d2020 	stp	s0, s8, [x1, #-152]
ffff00000008ef50:	2d2d2d2d 	stp	s13, s11, [x9, #-152]
ffff00000008ef54:	2d2d2d2d 	stp	s13, s11, [x9, #-152]
ffff00000008ef58:	2d2d2d2d 	stp	s13, s11, [x9, #-152]
ffff00000008ef5c:	2d2d2d2d 	stp	s13, s11, [x9, #-152]
ffff00000008ef60:	6966202d 	ldpsw	x13, x8, [x1, #-208]
ffff00000008ef64:	7220656c 	ands	w12, w11, #0x3ffffff
ffff00000008ef68:	74616c65 	.inst	0x74616c65 ; undefined
ffff00000008ef6c:	2d206465 	stp	s5, s25, [x3, #-256]
ffff00000008ef70:	2d2d2d2d 	stp	s13, s11, [x9, #-152]
ffff00000008ef74:	2d2d2d2d 	stp	s13, s11, [x9, #-152]
ffff00000008ef78:	2d2d2d2d 	stp	s13, s11, [x9, #-152]
ffff00000008ef7c:	2d2d2d2d 	stp	s13, s11, [x9, #-152]
ffff00000008ef80:	2d2d2d2d 	stp	s13, s11, [x9, #-152]
ffff00000008ef84:	2d2d2d2d 	stp	s13, s11, [x9, #-152]
ffff00000008ef88:	2d2d2d2d 	stp	s13, s11, [x9, #-152]
ffff00000008ef8c:	2d2d2d2d 	stp	s13, s11, [x9, #-152]
	...
ffff00000008ef98:	20200a0d 	.inst	0x20200a0d ; undefined
ffff00000008ef9c:	736c2020 	.inst	0x736c2020 ; undefined
ffff00000008efa0:	20202020 	.inst	0x20202020 ; undefined
ffff00000008efa4:	20202020 	.inst	0x20202020 ; undefined
ffff00000008efa8:	20202020 	.inst	0x20202020 ; undefined
ffff00000008efac:	6c203a20 	stnp	d0, d14, [x17, #-512]
ffff00000008efb0:	20747369 	.inst	0x20747369 ; undefined
ffff00000008efb4:	206c6c61 	.inst	0x206c6c61 ; undefined
ffff00000008efb8:	656c6966 	fnmls	z6.h, p2/m, z11.h, z12.h
ffff00000008efbc:	00000000 	udf	#0
ffff00000008efc0:	20200a0d 	.inst	0x20200a0d ; undefined
ffff00000008efc4:	61632020 	.inst	0x61632020 ; undefined
ffff00000008efc8:	663c2074 	.inst	0x663c2074 ; undefined
ffff00000008efcc:	6e656c69 	umin	v9.8h, v3.8h, v5.8h
ffff00000008efd0:	3e656d61 	.inst	0x3e656d61 ; undefined
ffff00000008efd4:	63203a20 	.inst	0x63203a20 ; undefined
ffff00000008efd8:	6f207461 	uqshl	v1.4s, v3.4s, #0
ffff00000008efdc:	6620656e 	.inst	0x6620656e ; undefined
ffff00000008efe0:	00656c69 	.inst	0x00656c69 ; undefined
ffff00000008efe4:	00000000 	udf	#0
ffff00000008efe8:	20200a0d 	.inst	0x20200a0d ; undefined
ffff00000008efec:	78652020 	ldeorlh	w5, w0, [x1]
ffff00000008eff0:	3c206365 	.inst	0x3c206365 ; undefined
ffff00000008eff4:	676f7270 	.inst	0x676f7270 ; undefined
ffff00000008eff8:	3e6d6172 	.inst	0x3e6d6172 ; undefined
ffff00000008effc:	65203a20 	.inst	0x65203a20 ; undefined
ffff00000008f000:	75636578 	.inst	0x75636578 ; undefined
ffff00000008f004:	75206574 	.inst	0x75206574 ; undefined
ffff00000008f008:	20726573 	.inst	0x20726573 ; undefined
ffff00000008f00c:	676f7270 	.inst	0x676f7270 ; undefined
ffff00000008f010:	006d6172 	.inst	0x006d6172 ; undefined
ffff00000008f014:	00000000 	udf	#0
ffff00000008f018:	20200a0d 	.inst	0x20200a0d ; undefined
ffff00000008f01c:	2d2d2020 	stp	s0, s8, [x1, #-152]
ffff00000008f020:	2d2d2d2d 	stp	s13, s11, [x9, #-152]
ffff00000008f024:	2d2d2d2d 	stp	s13, s11, [x9, #-152]
ffff00000008f028:	2d2d2d2d 	stp	s13, s11, [x9, #-152]
ffff00000008f02c:	2d2d2d2d 	stp	s13, s11, [x9, #-152]
ffff00000008f030:	6e69202d 	usubl2	v13.4s, v1.8h, v9.8h
ffff00000008f034:	72726574 	.inst	0x72726574 ; undefined
ffff00000008f038:	20747075 	.inst	0x20747075 ; undefined
ffff00000008f03c:	616c6572 	.inst	0x616c6572 ; undefined
ffff00000008f040:	20646574 	.inst	0x20646574 ; undefined
ffff00000008f044:	2d2d2d2d 	stp	s13, s11, [x9, #-152]
ffff00000008f048:	2d2d2d2d 	stp	s13, s11, [x9, #-152]
ffff00000008f04c:	2d2d2d2d 	stp	s13, s11, [x9, #-152]
ffff00000008f050:	2d2d2d2d 	stp	s13, s11, [x9, #-152]
ffff00000008f054:	2d2d2d2d 	stp	s13, s11, [x9, #-152]
ffff00000008f058:	2d2d2d2d 	stp	s13, s11, [x9, #-152]
ffff00000008f05c:	2d2d2d2d 	stp	s13, s11, [x9, #-152]
	...
ffff00000008f068:	20200a0d 	.inst	0x20200a0d ; undefined
ffff00000008f06c:	69742020 	ldpsw	x0, x8, [x1, #-96]
ffff00000008f070:	5f72656d 	.inst	0x5f72656d ; undefined
ffff00000008f074:	20206e6f 	.inst	0x20206e6f ; undefined
ffff00000008f078:	20202020 	.inst	0x20202020 ; undefined
ffff00000008f07c:	20202020 	.inst	0x20202020 ; undefined
ffff00000008f080:	20202020 	.inst	0x20202020 ; undefined
ffff00000008f084:	65203a20 	.inst	0x65203a20 ; undefined
ffff00000008f088:	6c62616e 	ldnp	d14, d24, [x11, #-480]
ffff00000008f08c:	69742065 	ldpsw	x5, x8, [x3, #-96]
ffff00000008f090:	2c72656d 	ldnp	s13, s25, [x11, #-112]
ffff00000008f094:	646e6120 	.inst	0x646e6120 ; undefined
ffff00000008f098:	746e6920 	.inst	0x746e6920 ; undefined
ffff00000008f09c:	75727265 	.inst	0x75727265 ; undefined
ffff00000008f0a0:	65207470 	.inst	0x65207470 ; undefined
ffff00000008f0a4:	79726576 	ldrh	w22, [x11, #6450]
ffff00000008f0a8:	73203220 	.inst	0x73203220 ; undefined
ffff00000008f0ac:	6e6f6365 	rsubhn2	v5.8h, v27.4s, v15.4s
ffff00000008f0b0:	00000064 	udf	#100
ffff00000008f0b4:	00000000 	udf	#0
ffff00000008f0b8:	20200a0d 	.inst	0x20200a0d ; undefined
ffff00000008f0bc:	65732020 	fmls	z0.h, p0/m, z1.h, z19.h
ffff00000008f0c0:	6d695474 	ldp	d20, d21, [x3, #-368]
ffff00000008f0c4:	74756f65 	.inst	0x74756f65 ; undefined
ffff00000008f0c8:	736d3c20 	.inst	0x736d3c20 ; undefined
ffff00000008f0cc:	3c203e67 	.inst	0x3c203e67 ; undefined
ffff00000008f0d0:	3e636573 	.inst	0x3e636573 ; undefined
ffff00000008f0d4:	70203a20 	adr	x0, ffff0000000cf81b <__heap_start+0x3981b>
ffff00000008f0d8:	746e6972 	.inst	0x746e6972 ; undefined
ffff00000008f0dc:	67736d20 	.inst	0x67736d20 ; undefined
ffff00000008f0e0:	74666120 	.inst	0x74666120 ; undefined
ffff00000008f0e4:	73207265 	.inst	0x73207265 ; undefined
ffff00000008f0e8:	73206365 	.inst	0x73206365 ; undefined
ffff00000008f0ec:	6e6f6365 	rsubhn2	v5.8h, v27.4s, v15.4s
ffff00000008f0f0:	00007364 	udf	#29540
ffff00000008f0f4:	00000000 	udf	#0
ffff00000008f0f8:	20200a0d 	.inst	0x20200a0d ; undefined
ffff00000008f0fc:	73612020 	.inst	0x73612020 ; undefined
ffff00000008f100:	5f636e79 	.inst	0x5f636e79 ; undefined
ffff00000008f104:	20206e6f 	.inst	0x20206e6f ; undefined
ffff00000008f108:	20202020 	.inst	0x20202020 ; undefined
ffff00000008f10c:	63203a20 	.inst	0x63203a20 ; undefined
ffff00000008f110:	676e6168 	.inst	0x676e6168 ; undefined
ffff00000008f114:	6f742065 	umlal2	v5.4s, v3.8h, v4.h[3]
ffff00000008f118:	79736120 	ldrh	w0, [x9, #6576]
ffff00000008f11c:	6d20636e 	stp	d14, d24, [x27, #-512]
ffff00000008f120:	2865646f 	ldnp	w15, w25, [x3, #-216]
ffff00000008f124:	20726f66 	.inst	0x20726f66 ; undefined
ffff00000008f128:	64616572 	.inst	0x64616572 ; undefined
ffff00000008f12c:	646d6320 	.inst	0x646d6320 ; undefined
ffff00000008f130:	646e6120 	.inst	0x646e6120 ; undefined
ffff00000008f134:	69727720 	ldpsw	x0, x29, [x25, #-112]
ffff00000008f138:	27206574 	.inst	0x27206574 ; undefined
ffff00000008f13c:	706c6568 	adr	x8, ffff000000167deb <__heap_start+0xd1deb>
ffff00000008f140:	6d632027 	ldp	d7, d8, [x1, #-464]
ffff00000008f144:	00002964 	udf	#10596
ffff00000008f148:	20200a0d 	.inst	0x20200a0d ; undefined
ffff00000008f14c:	73612020 	.inst	0x73612020 ; undefined
ffff00000008f150:	5f636e79 	.inst	0x5f636e79 ; undefined
ffff00000008f154:	2066666f 	.inst	0x2066666f ; undefined
ffff00000008f158:	20202020 	.inst	0x20202020 ; undefined
ffff00000008f15c:	63203a20 	.inst	0x63203a20 ; undefined
ffff00000008f160:	676e6168 	.inst	0x676e6168 ; undefined
ffff00000008f164:	6f742065 	umlal2	v5.4s, v3.8h, v4.h[3]
ffff00000008f168:	6e797320 	uabdl2	v0.4s, v25.8h, v25.8h
ffff00000008f16c:	6f6d2063 	umlal2	v3.4s, v3.8h, v13.h[2]
ffff00000008f170:	00006564 	udf	#25956
ffff00000008f174:	00000000 	udf	#0
ffff00000008f178:	20200a0d 	.inst	0x20200a0d ; undefined
ffff00000008f17c:	73612020 	.inst	0x73612020 ; undefined
ffff00000008f180:	20636e79 	.inst	0x20636e79 ; undefined
ffff00000008f184:	20202020 	.inst	0x20202020 ; undefined
ffff00000008f188:	20202020 	.inst	0x20202020 ; undefined
ffff00000008f18c:	20202020 	.inst	0x20202020 ; undefined
ffff00000008f190:	20202020 	.inst	0x20202020 ; undefined
ffff00000008f194:	74203a20 	.inst	0x74203a20 ; undefined
ffff00000008f198:	20747365 	.inst	0x20747365 ; undefined
ffff00000008f19c:	6e797361 	uabdl2	v1.4s, v27.8h, v25.8h
ffff00000008f1a0:	61752063 	.inst	0x61752063 ; undefined
ffff00000008f1a4:	00007472 	udf	#29810
ffff00000008f1a8:	20200a0d 	.inst	0x20200a0d ; undefined
ffff00000008f1ac:	2d2d2020 	stp	s0, s8, [x1, #-152]
ffff00000008f1b0:	2d2d2d2d 	stp	s13, s11, [x9, #-152]
ffff00000008f1b4:	2d2d2d2d 	stp	s13, s11, [x9, #-152]
ffff00000008f1b8:	2d2d2d2d 	stp	s13, s11, [x9, #-152]
ffff00000008f1bc:	2d2d2d2d 	stp	s13, s11, [x9, #-152]
ffff00000008f1c0:	656d202d 	fmls	z13.h, p0/m, z1.h, z13.h
ffff00000008f1c4:	79726f6d 	ldrh	w13, [x27, #6454]
ffff00000008f1c8:	73797320 	.inst	0x73797320 ; undefined
ffff00000008f1cc:	206d6574 	.inst	0x206d6574 ; undefined
ffff00000008f1d0:	616c6572 	.inst	0x616c6572 ; undefined
ffff00000008f1d4:	20646574 	.inst	0x20646574 ; undefined
ffff00000008f1d8:	2d2d2d2d 	stp	s13, s11, [x9, #-152]
ffff00000008f1dc:	2d2d2d2d 	stp	s13, s11, [x9, #-152]
ffff00000008f1e0:	2d2d2d2d 	stp	s13, s11, [x9, #-152]
ffff00000008f1e4:	2d2d2d2d 	stp	s13, s11, [x9, #-152]
ffff00000008f1e8:	2d2d2d2d 	stp	s13, s11, [x9, #-152]
ffff00000008f1ec:	2d2d2d2d 	stp	s13, s11, [x9, #-152]
ffff00000008f1f0:	0000002d 	udf	#45
ffff00000008f1f4:	00000000 	udf	#0
ffff00000008f1f8:	20200a0d 	.inst	0x20200a0d ; undefined
ffff00000008f1fc:	6d6b2020 	ldp	d0, d8, [x1, #-336]
ffff00000008f200:	6f6c6c61 	.inst	0x6f6c6c61 ; undefined
ffff00000008f204:	733c2063 	.inst	0x733c2063 ; undefined
ffff00000008f208:	3e657a69 	.inst	0x3e657a69 ; undefined
ffff00000008f20c:	20202020 	.inst	0x20202020 ; undefined
ffff00000008f210:	20202020 	.inst	0x20202020 ; undefined
ffff00000008f214:	20202020 	.inst	0x20202020 ; undefined
ffff00000008f218:	6c61203a 	ldnp	d26, d8, [x1, #-496]
ffff00000008f21c:	61636f6c 	.inst	0x61636f6c ; undefined
ffff00000008f220:	3c206574 	.inst	0x3c206574 ; undefined
ffff00000008f224:	657a6973 	fnmls	z19.h, p2/m, z11.h, z26.h
ffff00000008f228:	7962203e 	ldrh	w30, [x1, #4368]
ffff00000008f22c:	28736574 	ldnp	w20, w25, [x11, #-104]
ffff00000008f230:	64206e69 	.inst	0x64206e69 ; undefined
ffff00000008f234:	20296365 	.inst	0x20296365 ; undefined
ffff00000008f238:	6f6d656d 	sqshlu	v13.2d, v11.2d, #45
ffff00000008f23c:	00007972 	udf	#31090
ffff00000008f240:	20200a0d 	.inst	0x20200a0d ; undefined
ffff00000008f244:	666b2020 	.inst	0x666b2020 ; undefined
ffff00000008f248:	20656572 	.inst	0x20656572 ; undefined
ffff00000008f24c:	6464613c 	.inst	0x6464613c ; undefined
ffff00000008f250:	73736572 	.inst	0x73736572 ; undefined
ffff00000008f254:	2020203e 	.inst	0x2020203e ; undefined
ffff00000008f258:	20202020 	.inst	0x20202020 ; undefined
ffff00000008f25c:	20202020 	.inst	0x20202020 ; undefined
ffff00000008f260:	7266203a 	.inst	0x7266203a ; undefined
ffff00000008f264:	6d206565 	stp	d5, d25, [x11, #-512]
ffff00000008f268:	726f6d65 	.inst	0x726f6d65 ; undefined
ffff00000008f26c:	00000079 	udf	#121
ffff00000008f270:	20200a0d 	.inst	0x20200a0d ; undefined
ffff00000008f274:	656d2020 	fmls	z0.h, p0/m, z1.h, z13.h
ffff00000008f278:	79726f6d 	ldrh	w13, [x27, #6454]
ffff00000008f27c:	7365745f 	.inst	0x7365745f ; undefined
ffff00000008f280:	20202074 	.inst	0x20202074 ; undefined
ffff00000008f284:	20202020 	.inst	0x20202020 ; undefined
ffff00000008f288:	20202020 	.inst	0x20202020 ; undefined
ffff00000008f28c:	20202020 	.inst	0x20202020 ; undefined
ffff00000008f290:	7865203a 	ldeorlh	w5, w26, [x1]
ffff00000008f294:	74206365 	.inst	0x74206365 ; undefined
ffff00000008f298:	20747365 	.inst	0x20747365 ; undefined
ffff00000008f29c:	65736163 	fnmls	z3.h, p0/m, z11.h, z19.h
ffff00000008f2a0:	72696420 	.inst	0x72696420 ; undefined
ffff00000008f2a4:	6c746365 	ldnp	d5, d24, [x27, #-192]
ffff00000008f2a8:	00000079 	udf	#121
ffff00000008f2ac:	00000000 	udf	#0
ffff00000008f2b0:	20200a0d 	.inst	0x20200a0d ; undefined
ffff00000008f2b4:	75622020 	.inst	0x75622020 ; undefined
ffff00000008f2b8:	5f796464 	.inst	0x5f796464 ; undefined
ffff00000008f2bc:	6f6c6c61 	.inst	0x6f6c6c61 ; undefined
ffff00000008f2c0:	65746163 	fnmls	z3.h, p0/m, z11.h, z20.h
ffff00000008f2c4:	6f6e5f64 	.inst	0x6f6e5f64 ; undefined
ffff00000008f2c8:	20736564 	.inst	0x20736564 ; undefined
ffff00000008f2cc:	20202020 	.inst	0x20202020 ; undefined
ffff00000008f2d0:	6873203a 	.inst	0x6873203a ; undefined
ffff00000008f2d4:	6220776f 	.inst	0x6220776f ; undefined
ffff00000008f2d8:	79646475 	ldrh	w21, [x3, #4658]
ffff00000008f2dc:	73797320 	.inst	0x73797320 ; undefined
ffff00000008f2e0:	206d6574 	.inst	0x206d6574 ; undefined
ffff00000008f2e4:	6f6c6c61 	.inst	0x6f6c6c61 ; undefined
ffff00000008f2e8:	65746163 	fnmls	z3.h, p0/m, z11.h, z20.h
ffff00000008f2ec:	61702064 	.inst	0x61702064 ; undefined
ffff00000008f2f0:	00736567 	.inst	0x00736567 ; undefined
ffff00000008f2f4:	00000000 	udf	#0
ffff00000008f2f8:	20200a0d 	.inst	0x20200a0d ; undefined
ffff00000008f2fc:	75622020 	.inst	0x75622020 ; undefined
ffff00000008f300:	5f796464 	.inst	0x5f796464 ; undefined
ffff00000008f304:	65657266 	fnmls	z6.h, p4/m, z19.h, z5.h
ffff00000008f308:	6f6c625f 	umlsl2	v31.4s, v18.8h, v12.h[2]
ffff00000008f30c:	20736b63 	.inst	0x20736b63 ; undefined
ffff00000008f310:	64726f3c 	.inst	0x64726f3c ; undefined
ffff00000008f314:	203e7265 	.inst	0x203e7265 ; undefined
ffff00000008f318:	6873203a 	.inst	0x6873203a ; undefined
ffff00000008f31c:	6220776f 	.inst	0x6220776f ; undefined
ffff00000008f320:	79646475 	ldrh	w21, [x3, #4658]
ffff00000008f324:	73797320 	.inst	0x73797320 ; undefined
ffff00000008f328:	206d6574 	.inst	0x206d6574 ; undefined
ffff00000008f32c:	65657266 	fnmls	z6.h, p4/m, z19.h, z5.h
ffff00000008f330:	6f6c6220 	umlsl2	v0.4s, v17.8h, v12.h[2]
ffff00000008f334:	20736b63 	.inst	0x20736b63 ; undefined
ffff00000008f338:	74207461 	.inst	0x74207461 ; undefined
ffff00000008f33c:	65677261 	fnmls	z1.h, p4/m, z19.h, z7.h
ffff00000008f340:	6f3c2074 	.inst	0x6f3c2074 ; undefined
ffff00000008f344:	72656472 	.inst	0x72656472 ; undefined
ffff00000008f348:	0000003e 	udf	#62
ffff00000008f34c:	00000000 	udf	#0
ffff00000008f350:	20200a0d 	.inst	0x20200a0d ; undefined
ffff00000008f354:	68632020 	.inst	0x68632020 ; undefined
ffff00000008f358:	5f6b6e75 	.inst	0x5f6b6e75 ; undefined
ffff00000008f35c:	6f666e69 	.inst	0x6f666e69 ; undefined
ffff00000008f360:	20202020 	.inst	0x20202020 ; undefined
ffff00000008f364:	20202020 	.inst	0x20202020 ; undefined
ffff00000008f368:	20202020 	.inst	0x20202020 ; undefined
ffff00000008f36c:	20202020 	.inst	0x20202020 ; undefined
ffff00000008f370:	6873203a 	.inst	0x6873203a ; undefined
ffff00000008f374:	6420776f 	.inst	0x6420776f ; undefined
ffff00000008f378:	6d616e79 	ldp	d25, d27, [x19, #-496]
ffff00000008f37c:	61206369 	.inst	0x61206369 ; undefined
ffff00000008f380:	636f6c6c 	.inst	0x636f6c6c ; undefined
ffff00000008f384:	726f7461 	.inst	0x726f7461 ; undefined
ffff00000008f388:	67617020 	.inst	0x67617020 ; undefined
ffff00000008f38c:	6f207365 	.inst	0x6f207365 ; undefined
ffff00000008f390:	20352066 	.inst	0x20352066 ; undefined
ffff00000008f394:	6c6f6f70 	ldnp	d16, d27, [x27, #-272]
ffff00000008f398:	00000073 	udf	#115
ffff00000008f39c:	00000000 	udf	#0
ffff00000008f3a0:	20200a0d 	.inst	0x20200a0d ; undefined
ffff00000008f3a4:	2d2d2020 	stp	s0, s8, [x1, #-152]
ffff00000008f3a8:	2d2d2d2d 	stp	s13, s11, [x9, #-152]
ffff00000008f3ac:	2d2d2d2d 	stp	s13, s11, [x9, #-152]
ffff00000008f3b0:	2d2d2d2d 	stp	s13, s11, [x9, #-152]
ffff00000008f3b4:	2d2d2d2d 	stp	s13, s11, [x9, #-152]
ffff00000008f3b8:	6874202d 	.inst	0x6874202d ; undefined
ffff00000008f3bc:	64616572 	.inst	0x64616572 ; undefined
ffff00000008f3c0:	6c657220 	ldnp	d0, d28, [x17, #-432]
ffff00000008f3c4:	64657461 	.inst	0x64657461 ; undefined
ffff00000008f3c8:	2d2d2d20 	stp	s0, s11, [x9, #-152]
ffff00000008f3cc:	2d2d2d2d 	stp	s13, s11, [x9, #-152]
ffff00000008f3d0:	2d2d2d2d 	stp	s13, s11, [x9, #-152]
ffff00000008f3d4:	2d2d2d2d 	stp	s13, s11, [x9, #-152]
ffff00000008f3d8:	2d2d2d2d 	stp	s13, s11, [x9, #-152]
ffff00000008f3dc:	2d2d2d2d 	stp	s13, s11, [x9, #-152]
ffff00000008f3e0:	00002d2d 	udf	#11565
ffff00000008f3e4:	00000000 	udf	#0
ffff00000008f3e8:	20200a0d 	.inst	0x20200a0d ; undefined
ffff00000008f3ec:	6f662020 	umlal2	v0.4s, v1.8h, v6.h[2]
ffff00000008f3f0:	79735f6f 	ldrh	w15, [x27, #6574]
ffff00000008f3f4:	705f636e 	adr	x14, ffff00000014e063 <__heap_start+0xb8063>
ffff00000008f3f8:	6d656572 	ldp	d18, d25, [x11, #-432]
ffff00000008f3fc:	20207470 	.inst	0x20207470 ; undefined
ffff00000008f400:	20202020 	.inst	0x20202020 ; undefined
ffff00000008f404:	20202020 	.inst	0x20202020 ; undefined
ffff00000008f408:	616c203a 	.inst	0x616c203a ; undefined
ffff00000008f40c:	74203562 	.inst	0x74203562 ; undefined
ffff00000008f410:	2c747365 	ldnp	s5, s28, [x27, #-96]
ffff00000008f414:	6e797320 	uabdl2	v0.4s, v25.8h, v25.8h
ffff00000008f418:	61752063 	.inst	0x61752063 ; undefined
ffff00000008f41c:	2b207472 	.inst	0x2b207472 ; undefined
ffff00000008f420:	65727020 	fnmls	z0.h, p4/m, z1.h, z18.h
ffff00000008f424:	74706d65 	.inst	0x74706d65 ; undefined
ffff00000008f428:	206e6f20 	.inst	0x206e6f20 ; undefined
ffff00000008f42c:	6c61202b 	ldnp	d11, d8, [x1, #-496]
ffff00000008f430:	656b206c 	fmls	z12.h, p0/m, z3.h, z11.h
ffff00000008f434:	6c656e72 	ldnp	d18, d27, [x19, #-432]
ffff00000008f438:	72687420 	.inst	0x72687420 ; undefined
ffff00000008f43c:	00646165 	.inst	0x00646165 ; undefined
ffff00000008f440:	20200a0d 	.inst	0x20200a0d ; undefined
ffff00000008f444:	6f662020 	umlal2	v0.4s, v1.8h, v6.h[2]
ffff00000008f448:	79735f6f 	ldrh	w15, [x27, #6574]
ffff00000008f44c:	705f636e 	adr	x14, ffff00000014e0bb <__heap_start+0xb80bb>
ffff00000008f450:	6d656572 	ldp	d18, d25, [x11, #-432]
ffff00000008f454:	755f7470 	.inst	0x755f7470 ; undefined
ffff00000008f458:	20726573 	.inst	0x20726573 ; undefined
ffff00000008f45c:	20202020 	.inst	0x20202020 ; undefined
ffff00000008f460:	616c203a 	.inst	0x616c203a ; undefined
ffff00000008f464:	74203562 	.inst	0x74203562 ; undefined
ffff00000008f468:	2c747365 	ldnp	s5, s28, [x27, #-96]
ffff00000008f46c:	6e797320 	uabdl2	v0.4s, v25.8h, v25.8h
ffff00000008f470:	61752063 	.inst	0x61752063 ; undefined
ffff00000008f474:	2b207472 	.inst	0x2b207472 ; undefined
ffff00000008f478:	65727020 	fnmls	z0.h, p4/m, z1.h, z18.h
ffff00000008f47c:	74706d65 	.inst	0x74706d65 ; undefined
ffff00000008f480:	206e6f20 	.inst	0x206e6f20 ; undefined
ffff00000008f484:	6f66202b 	umlal2	v11.4s, v1.8h, v6.h[2]
ffff00000008f488:	2029286f 	.inst	0x2029286f ; undefined
ffff00000008f48c:	75207369 	.inst	0x75207369 ; undefined
ffff00000008f490:	20726573 	.inst	0x20726573 ; undefined
ffff00000008f494:	65726874 	fnmls	z20.h, p2/m, z3.h, z18.h
ffff00000008f498:	00006461 	udf	#25697
ffff00000008f49c:	00000000 	udf	#0
ffff00000008f4a0:	20200a0d 	.inst	0x20200a0d ; undefined
ffff00000008f4a4:	69742020 	ldpsw	x0, x8, [x1, #-96]
ffff00000008f4a8:	5f72656d 	.inst	0x5f72656d ; undefined
ffff00000008f4ac:	20206e6f 	.inst	0x20206e6f ; undefined
ffff00000008f4b0:	20202020 	.inst	0x20202020 ; undefined
ffff00000008f4b4:	65203a20 	.inst	0x65203a20 ; undefined
ffff00000008f4b8:	6c62616e 	ldnp	d14, d24, [x11, #-480]
ffff00000008f4bc:	69742065 	ldpsw	x5, x8, [x3, #-96]
ffff00000008f4c0:	2c72656d 	ldnp	s13, s25, [x11, #-112]
ffff00000008f4c4:	646e6120 	.inst	0x646e6120 ; undefined
ffff00000008f4c8:	746e6920 	.inst	0x746e6920 ; undefined
ffff00000008f4cc:	75727265 	.inst	0x75727265 ; undefined
ffff00000008f4d0:	65207470 	.inst	0x65207470 ; undefined
ffff00000008f4d4:	79726576 	ldrh	w22, [x11, #6450]
ffff00000008f4d8:	73203220 	.inst	0x73203220 ; undefined
ffff00000008f4dc:	6e6f6365 	rsubhn2	v5.8h, v27.4s, v15.4s
ffff00000008f4e0:	00000064 	udf	#100
ffff00000008f4e4:	00000000 	udf	#0
ffff00000008f4e8:	20200a0d 	.inst	0x20200a0d ; undefined
ffff00000008f4ec:	73612020 	.inst	0x73612020 ; undefined
ffff00000008f4f0:	20636e79 	.inst	0x20636e79 ; undefined
ffff00000008f4f4:	20202020 	.inst	0x20202020 ; undefined
ffff00000008f4f8:	20202020 	.inst	0x20202020 ; undefined
ffff00000008f4fc:	74203a20 	.inst	0x74203a20 ; undefined
ffff00000008f500:	20747365 	.inst	0x20747365 ; undefined
ffff00000008f504:	6e797361 	uabdl2	v1.4s, v27.8h, v25.8h
ffff00000008f508:	61752063 	.inst	0x61752063 ; undefined
ffff00000008f50c:	00007472 	udf	#29810
ffff00000008f510:	20200a0d 	.inst	0x20200a0d ; undefined
ffff00000008f514:	6f662020 	umlal2	v0.4s, v1.8h, v6.h[2]
ffff00000008f518:	79735f6f 	ldrh	w15, [x27, #6574]
ffff00000008f51c:	705f636e 	adr	x14, ffff00000014e18b <__heap_start+0xb818b>
ffff00000008f520:	6d656572 	ldp	d18, d25, [x11, #-432]
ffff00000008f524:	20207470 	.inst	0x20207470 ; undefined
ffff00000008f528:	20202020 	.inst	0x20202020 ; undefined
ffff00000008f52c:	20202020 	.inst	0x20202020 ; undefined
ffff00000008f530:	616c203a 	.inst	0x616c203a ; undefined
ffff00000008f534:	70203562 	adr	x2, ffff0000000cfbe3 <__heap_start+0x39be3>
ffff00000008f538:	31747261 	adds	w1, w19, #0xd1c, lsl #12
ffff00000008f53c:	72687420 	.inst	0x72687420 ; undefined
ffff00000008f540:	20646165 	.inst	0x20646165 ; undefined
ffff00000008f544:	74736574 	.inst	0x74736574 ; undefined
ffff00000008f548:	73616320 	.inst	0x73616320 ; undefined
ffff00000008f54c:	00000065 	udf	#101
ffff00000008f550:	6e650a0d 	.inst	0x6e650a0d ; undefined
ffff00000008f554:	656c6261 	fnmls	z1.h, p0/m, z19.h, z12.h
ffff00000008f558:	72617520 	.inst	0x72617520 ; undefined
ffff00000008f55c:	6e692074 	usubl2	v20.4s, v3.8h, v9.8h
ffff00000008f560:	72726574 	.inst	0x72726574 ; undefined
ffff00000008f564:	20747075 	.inst	0x20747075 ; undefined
ffff00000008f568:	002e2e2e 	.inst	0x002e2e2e ; NYI
ffff00000008f56c:	00000000 	udf	#0
ffff00000008f570:	6c610a0d 	ldnp	d13, d2, [x16, #-496]
ffff00000008f574:	64616572 	.inst	0x64616572 ; undefined
ffff00000008f578:	6e692079 	usubl2	v25.4s, v3.8h, v9.8h
ffff00000008f57c:	79736120 	ldrh	w0, [x9, #6576]
ffff00000008f580:	6d20636e 	stp	d14, d24, [x27, #-512]
ffff00000008f584:	0065646f 	.inst	0x0065646f ; undefined
ffff00000008f588:	694c0a0d 	ldpsw	x13, x2, [x16, #96]
ffff00000008f58c:	5240796c 	.inst	0x5240796c ; undefined
ffff00000008f590:	42336970 	.inst	0x42336970 ; undefined
ffff00000008f594:	7328202b 	.inst	0x7328202b ; undefined
ffff00000008f598:	20636e79 	.inst	0x20636e79 ; undefined
ffff00000008f59c:	65646f6d 	fnmls	z13.h, p3/m, z27.h, z4.h
ffff00000008f5a0:	00203e29 	.inst	0x00203e29 ; NYI
ffff00000008f5a4:	00000000 	udf	#0
ffff00000008f5a8:	694c0a0d 	ldpsw	x13, x2, [x16, #96]
ffff00000008f5ac:	5240796c 	.inst	0x5240796c ; undefined
ffff00000008f5b0:	42336970 	.inst	0x42336970 ; undefined
ffff00000008f5b4:	6128202b 	.inst	0x6128202b ; undefined
ffff00000008f5b8:	636e7973 	.inst	0x636e7973 ; undefined
ffff00000008f5bc:	646f6d20 	.inst	0x646f6d20 ; undefined
ffff00000008f5c0:	203e2965 	.inst	0x203e2965 ; undefined
ffff00000008f5c4:	00000000 	udf	#0
ffff00000008f5c8:	706c6568 	adr	x8, ffff000000168277 <__heap_start+0xd2277>
ffff00000008f5cc:	00000000 	udf	#0
ffff00000008f5d0:	6c6c6568 	ldnp	d8, d25, [x11, #-320]
ffff00000008f5d4:	0000006f 	udf	#111
ffff00000008f5d8:	65480a0d 	fmul	z13.h, z16.h, z8.h
ffff00000008f5dc:	206f6c6c 	.inst	0x206f6c6c ; undefined
ffff00000008f5e0:	6c726f57 	ldnp	d23, d27, [x26, #-224]
ffff00000008f5e4:	00002164 	udf	#8548
ffff00000008f5e8:	6c69616d 	ldnp	d13, d24, [x11, #-368]
ffff00000008f5ec:	00786f62 	.inst	0x00786f62 ; undefined
ffff00000008f5f0:	6f626572 	sqshlu	v18.2d, v11.2d, #34
ffff00000008f5f4:	0000746f 	udf	#29807
ffff00000008f5f8:	65520a0d 	fmul	z13.h, z16.h, z18.h
ffff00000008f5fc:	746f6f62 	.inst	0x746f6f62 ; undefined
ffff00000008f600:	2e676e69 	umin	v9.4h, v19.4h, v7.4h
ffff00000008f604:	00002e2e 	udf	#11822
ffff00000008f608:	00746163 	.inst	0x00746163 ; undefined
ffff00000008f60c:	00000000 	udf	#0
ffff00000008f610:	6f4e0a0d 	mla	v13.8h, v16.8h, v14.h[4]
ffff00000008f614:	6c696620 	ldnp	d0, d25, [x17, #-368]
ffff00000008f618:	6f662065 	umlal2	v5.4s, v3.8h, v6.h[2]
ffff00000008f61c:	00646e75 	.inst	0x00646e75 ; undefined
ffff00000008f620:	0000736c 	udf	#29548
ffff00000008f624:	00000000 	udf	#0
ffff00000008f628:	63657865 	.inst	0x63657865 ; undefined
ffff00000008f62c:	00000000 	udf	#0
ffff00000008f630:	6f4e0a0d 	mla	v13.8h, v16.8h, v14.h[4]
ffff00000008f634:	6f725020 	fcmla	v0.8h, v1.8h, v18.h[1], #180
ffff00000008f638:	6d617267 	ldp	d7, d28, [x19, #-496]
ffff00000008f63c:	756f6620 	.inst	0x756f6620 ; undefined
ffff00000008f640:	0000646e 	udf	#25710
ffff00000008f644:	00000000 	udf	#0
ffff00000008f648:	54746573 	bc.cc	ffff0000001782f4 <__heap_start+0xe22f4>  // bc.lo, bc.ul, bc.last
ffff00000008f64c:	6f656d69 	.inst	0x6f656d69 ; undefined
ffff00000008f650:	00007475 	udf	#29813
ffff00000008f654:	00000000 	udf	#0
ffff00000008f658:	6e797361 	uabdl2	v1.4s, v27.8h, v25.8h
ffff00000008f65c:	00000063 	udf	#99
ffff00000008f660:	73410a0d 	.inst	0x73410a0d ; undefined
ffff00000008f664:	20636e79 	.inst	0x20636e79 ; undefined
ffff00000008f668:	204f2f49 	.inst	0x204f2f49 ; undefined
ffff00000008f66c:	74736574 	.inst	0x74736574 ; undefined
ffff00000008f670:	0000003a 	udf	#58
ffff00000008f674:	00000000 	udf	#0
ffff00000008f678:	6f590a0d 	mla	v13.8h, v16.8h, v9.h[5]
ffff00000008f67c:	756a2075 	.inst	0x756a2075 ; undefined
ffff00000008f680:	74207473 	.inst	0x74207473 ; undefined
ffff00000008f684:	64657079 	.inst	0x64657079 ; undefined
ffff00000008f688:	0000003a 	udf	#58
ffff00000008f68c:	00000000 	udf	#0
ffff00000008f690:	6f6d656d 	sqshlu	v13.2d, v11.2d, #45
ffff00000008f694:	745f7972 	.inst	0x745f7972 ; undefined
ffff00000008f698:	00747365 	.inst	0x00747365 ; undefined
ffff00000008f69c:	00000000 	udf	#0
ffff00000008f6a0:	6d5b0a0d 	ldp	d13, d2, [x16, #432]
ffff00000008f6a4:	5d6e6961 	.inst	0x5d6e6961 ; undefined
ffff00000008f6a8:	52524520 	.inst	0x52524520 ; undefined
ffff00000008f6ac:	203a524f 	.inst	0x203a524f ; undefined
ffff00000008f6b0:	796c6e6f 	ldrh	w15, [x19, #5686]
ffff00000008f6b4:	76616820 	.inst	0x76616820 ; undefined
ffff00000008f6b8:	20362065 	.inst	0x20362065 ; undefined
ffff00000008f6bc:	74736574 	.inst	0x74736574 ; undefined
ffff00000008f6c0:	73616320 	.inst	0x73616320 ; undefined
ffff00000008f6c4:	6f6e2065 	umlal2	v5.4s, v3.8h, v14.h[2]
ffff00000008f6c8:	00000077 	udf	#119
ffff00000008f6cc:	00000000 	udf	#0
ffff00000008f6d0:	6c616d6b 	ldnp	d11, d27, [x11, #-496]
ffff00000008f6d4:	00636f6c 	.inst	0x00636f6c ; undefined
ffff00000008f6d8:	6572666b 	fnmls	z11.h, p1/m, z19.h, z18.h
ffff00000008f6dc:	00000065 	udf	#101
ffff00000008f6e0:	6d5b0a0d 	ldp	d13, d2, [x16, #432]
ffff00000008f6e4:	5d6e6961 	.inst	0x5d6e6961 ; undefined
ffff00000008f6e8:	65724620 	fnmla	z0.h, p1/m, z17.h, z18.h
ffff00000008f6ec:	6e692065 	usubl2	v5.4s, v3.8h, v9.8h
ffff00000008f6f0:	696c6176 	ldpsw	x22, x24, [x11, #-160]
ffff00000008f6f4:	64612064 	fmul	z4.h, z3.h, z1.h[4]
ffff00000008f6f8:	73657264 	.inst	0x73657264 ; undefined
ffff00000008f6fc:	00000073 	udf	#115
ffff00000008f700:	64647562 	.inst	0x64647562 ; undefined
ffff00000008f704:	6c615f79 	ldnp	d25, d23, [x27, #-496]
ffff00000008f708:	61636f6c 	.inst	0x61636f6c ; undefined
ffff00000008f70c:	5f646574 	.inst	0x5f646574 ; undefined
ffff00000008f710:	65646f6e 	fnmls	z14.h, p3/m, z27.h, z4.h
ffff00000008f714:	00000073 	udf	#115
ffff00000008f718:	64647562 	.inst	0x64647562 ; undefined
ffff00000008f71c:	72665f79 	.inst	0x72665f79 ; undefined
ffff00000008f720:	625f6565 	.inst	0x625f6565 ; undefined
ffff00000008f724:	6b636f6c 	.inst	0x6b636f6c ; undefined
ffff00000008f728:	00000073 	udf	#115
ffff00000008f72c:	00000000 	udf	#0
ffff00000008f730:	6e756863 	.inst	0x6e756863 ; undefined
ffff00000008f734:	6e695f6b 	uqrshl	v11.8h, v27.8h, v9.8h
ffff00000008f738:	00006f66 	udf	#28518
ffff00000008f73c:	00000000 	udf	#0
ffff00000008f740:	5f6f6f66 	.inst	0x5f6f6f66 ; undefined
ffff00000008f744:	636e7973 	.inst	0x636e7973 ; undefined
ffff00000008f748:	6572705f 	fnmls	z31.h, p4/m, z2.h, z18.h
ffff00000008f74c:	74706d65 	.inst	0x74706d65 ; undefined
	...
ffff00000008f758:	3d3d0a0d 	str	b13, [x16, #3906]
ffff00000008f75c:	3d3d3d3d 	str	b29, [x9, #3919]
ffff00000008f760:	3d3d3d3d 	str	b29, [x9, #3919]
ffff00000008f764:	3d3d3d3d 	str	b29, [x9, #3919]
ffff00000008f768:	3d3d3d3d 	str	b29, [x9, #3919]
ffff00000008f76c:	3d3d3d3d 	str	b29, [x9, #3919]
ffff00000008f770:	203d3d3d 	.inst	0x203d3d3d ; undefined
ffff00000008f774:	65726320 	fnmls	z0.h, p0/m, z25.h, z18.h
ffff00000008f778:	20657461 	.inst	0x20657461 ; undefined
ffff00000008f77c:	5f6f6f66 	.inst	0x5f6f6f66 ; undefined
ffff00000008f780:	636e7973 	.inst	0x636e7973 ; undefined
ffff00000008f784:	6572705f 	fnmls	z31.h, p4/m, z2.h, z18.h
ffff00000008f788:	74706d65 	.inst	0x74706d65 ; undefined
ffff00000008f78c:	72687420 	.inst	0x72687420 ; undefined
ffff00000008f790:	73646165 	.inst	0x73646165 ; undefined
ffff00000008f794:	3d3d2020 	str	b0, [x1, #3912]
ffff00000008f798:	3d3d3d3d 	str	b29, [x9, #3919]
ffff00000008f79c:	3d3d3d3d 	str	b29, [x9, #3919]
ffff00000008f7a0:	3d3d3d3d 	str	b29, [x9, #3919]
ffff00000008f7a4:	3d3d3d3d 	str	b29, [x9, #3919]
ffff00000008f7a8:	3d3d3d3d 	str	b29, [x9, #3919]
ffff00000008f7ac:	003d3d3d 	.inst	0x003d3d3d ; NYI
	...
ffff00000008f7b8:	3d3d0a0d 	str	b13, [x16, #3906]
ffff00000008f7bc:	3d3d3d3d 	str	b29, [x9, #3919]
ffff00000008f7c0:	3d3d3d3d 	str	b29, [x9, #3919]
ffff00000008f7c4:	3d3d3d3d 	str	b29, [x9, #3919]
ffff00000008f7c8:	3d3d3d3d 	str	b29, [x9, #3919]
ffff00000008f7cc:	3d3d3d3d 	str	b29, [x9, #3919]
ffff00000008f7d0:	203d3d3d 	.inst	0x203d3d3d ; undefined
ffff00000008f7d4:	65746661 	fnmls	z1.h, p1/m, z19.h, z20.h
ffff00000008f7d8:	68742072 	.inst	0x68742072 ; undefined
ffff00000008f7dc:	64616572 	.inst	0x64616572 ; undefined
ffff00000008f7e0:	65726320 	fnmls	z0.h, p0/m, z25.h, z18.h
ffff00000008f7e4:	20657461 	.inst	0x20657461 ; undefined
ffff00000008f7e8:	3d3d3d3d 	str	b29, [x9, #3919]
ffff00000008f7ec:	3d3d3d3d 	str	b29, [x9, #3919]
ffff00000008f7f0:	3d3d3d3d 	str	b29, [x9, #3919]
ffff00000008f7f4:	3d3d3d3d 	str	b29, [x9, #3919]
ffff00000008f7f8:	3d3d3d3d 	str	b29, [x9, #3919]
ffff00000008f7fc:	3d3d3d3d 	str	b29, [x9, #3919]
ffff00000008f800:	0000003d 	udf	#61
ffff00000008f804:	00000000 	udf	#0
ffff00000008f808:	72570a0d 	.inst	0x72570a0d ; undefined
ffff00000008f80c:	20676e6f 	.inst	0x20676e6f ; undefined
ffff00000008f810:	6d6d6f63 	ldp	d3, d27, [x27, #-304]
ffff00000008f814:	2c646e61 	ldnp	s1, s27, [x19, #-224]
ffff00000008f818:	656c7020 	fnmls	z0.h, p4/m, z1.h, z12.h
ffff00000008f81c:	20657361 	.inst	0x20657361 ; undefined
ffff00000008f820:	65707974 	fnmls	z20.h, p6/m, z11.h, z16.h
ffff00000008f824:	6c656820 	ldnp	d0, d26, [x1, #-432]
ffff00000008f828:	00000070 	udf	#112
ffff00000008f82c:	00000000 	udf	#0
ffff00000008f830:	3d3d0a0d 	str	b13, [x16, #3906]
ffff00000008f834:	3d3d3d3d 	str	b29, [x9, #3919]
ffff00000008f838:	3d3d3d3d 	str	b29, [x9, #3919]
ffff00000008f83c:	3d3d3d3d 	str	b29, [x9, #3919]
ffff00000008f840:	3d3d3d3d 	str	b29, [x9, #3919]
ffff00000008f844:	3d3d3d3d 	str	b29, [x9, #3919]
ffff00000008f848:	3d3d3d3d 	str	b29, [x9, #3919]
ffff00000008f84c:	203d3d3d 	.inst	0x203d3d3d ; undefined
ffff00000008f850:	61657263 	.inst	0x61657263 ; undefined
ffff00000008f854:	69206574 	stgp	x20, x25, [x11, #-1024]
ffff00000008f858:	20656c64 	.inst	0x20656c64 ; undefined
ffff00000008f85c:	6b736174 	.inst	0x6b736174 ; undefined
ffff00000008f860:	73202620 	.inst	0x73202620 ; undefined
ffff00000008f864:	6c6c6568 	ldnp	d8, d25, [x11, #-320]
ffff00000008f868:	73617420 	.inst	0x73617420 ; undefined
ffff00000008f86c:	3d3d206b 	str	b11, [x3, #3912]
ffff00000008f870:	3d3d3d3d 	str	b29, [x9, #3919]
ffff00000008f874:	3d3d3d3d 	str	b29, [x9, #3919]
ffff00000008f878:	3d3d3d3d 	str	b29, [x9, #3919]
ffff00000008f87c:	3d3d3d3d 	str	b29, [x9, #3919]
ffff00000008f880:	3d3d3d3d 	str	b29, [x9, #3919]
ffff00000008f884:	3d3d3d3d 	str	b29, [x9, #3919]
ffff00000008f888:	003d3d3d 	.inst	0x003d3d3d ; NYI
ffff00000008f88c:	00000000 	udf	#0
ffff00000008f890:	63737973 	.inst	0x63737973 ; undefined
ffff00000008f894:	2e6c6c61 	umin	v1.4h, v3.4h, v12.4h
ffff00000008f898:	00676d69 	.inst	0x00676d69 ; undefined
ffff00000008f89c:	00000000 	udf	#0
ffff00000008f8a0:	3d3d0a0d 	str	b13, [x16, #3906]
ffff00000008f8a4:	3d3d3d3d 	str	b29, [x9, #3919]
ffff00000008f8a8:	3d3d3d3d 	str	b29, [x9, #3919]
ffff00000008f8ac:	3d3d3d3d 	str	b29, [x9, #3919]
ffff00000008f8b0:	3d3d3d3d 	str	b29, [x9, #3919]
ffff00000008f8b4:	3d3d3d3d 	str	b29, [x9, #3919]
ffff00000008f8b8:	3d3d3d3d 	str	b29, [x9, #3919]
ffff00000008f8bc:	203d3d3d 	.inst	0x203d3d3d ; undefined
ffff00000008f8c0:	72617473 	.inst	0x72617473 ; undefined
ffff00000008f8c4:	75722074 	.inst	0x75722074 ; undefined
ffff00000008f8c8:	6e696e6e 	umin	v14.8h, v19.8h, v9.8h
ffff00000008f8cc:	61742067 	.inst	0x61742067 ; undefined
ffff00000008f8d0:	20736b73 	.inst	0x20736b73 ; undefined
ffff00000008f8d4:	3d3d3d3d 	str	b29, [x9, #3919]
ffff00000008f8d8:	3d3d3d3d 	str	b29, [x9, #3919]
ffff00000008f8dc:	3d3d3d3d 	str	b29, [x9, #3919]
ffff00000008f8e0:	3d3d3d3d 	str	b29, [x9, #3919]
ffff00000008f8e4:	3d3d3d3d 	str	b29, [x9, #3919]
ffff00000008f8e8:	3d3d3d3d 	str	b29, [x9, #3919]
ffff00000008f8ec:	3d3d3d3d 	str	b29, [x9, #3919]
ffff00000008f8f0:	0000003d 	udf	#61
ffff00000008f8f4:	00000000 	udf	#0

ffff00000008f8f8 <pool_sizes>:
ffff00000008f8f8:	00000010 	udf	#16
ffff00000008f8fc:	00000020 	udf	#32
ffff00000008f900:	00000030 	udf	#48
ffff00000008f904:	00000060 	udf	#96
ffff00000008f908:	00000400 	udf	#1024
ffff00000008f90c:	00000000 	udf	#0

ffff00000008f910 <pool_slots>:
ffff00000008f910:	00000100 	udf	#256
ffff00000008f914:	00000080 	udf	#128
ffff00000008f918:	00000055 	udf	#85
ffff00000008f91c:	0000002a 	udf	#42
ffff00000008f920:	00000004 	udf	#4
ffff00000008f924:	00000000 	udf	#0
ffff00000008f928:	2d2d0a0d 	stp	s13, s2, [x16, #-152]
ffff00000008f92c:	2d2d2d2d 	stp	s13, s11, [x9, #-152]
ffff00000008f930:	2d2d2d2d 	stp	s13, s11, [x9, #-152]
ffff00000008f934:	2d2d2d2d 	stp	s13, s11, [x9, #-152]
ffff00000008f938:	2d2d2d2d 	stp	s13, s11, [x9, #-152]
ffff00000008f93c:	66656220 	.inst	0x66656220 ; undefined
ffff00000008f940:	2065726f 	.inst	0x2065726f ; undefined
ffff00000008f944:	74736574 	.inst	0x74736574 ; undefined
ffff00000008f948:	61747320 	.inst	0x61747320 ; undefined
ffff00000008f94c:	2d2d7472 	stp	s18, s29, [x3, #-152]
ffff00000008f950:	2d2d2d2d 	stp	s13, s11, [x9, #-152]
ffff00000008f954:	2d2d2d2d 	stp	s13, s11, [x9, #-152]
ffff00000008f958:	2d2d2d2d 	stp	s13, s11, [x9, #-152]
ffff00000008f95c:	2d2d2d2d 	stp	s13, s11, [x9, #-152]
ffff00000008f960:	2d2d2d2d 	stp	s13, s11, [x9, #-152]
ffff00000008f964:	0000002d 	udf	#45
ffff00000008f968:	2d2d0a0d 	stp	s13, s2, [x16, #-152]
ffff00000008f96c:	2d2d2d2d 	stp	s13, s11, [x9, #-152]
ffff00000008f970:	2d2d2d2d 	stp	s13, s11, [x9, #-152]
ffff00000008f974:	2d2d2d2d 	stp	s13, s11, [x9, #-152]
ffff00000008f978:	2d2d2d2d 	stp	s13, s11, [x9, #-152]
ffff00000008f97c:	2d2d2d2d 	stp	s13, s11, [x9, #-152]
ffff00000008f980:	2d2d2d2d 	stp	s13, s11, [x9, #-152]
ffff00000008f984:	6c61202d 	ldnp	d13, d8, [x1, #-496]
ffff00000008f988:	20636f6c 	.inst	0x20636f6c ; undefined
ffff00000008f98c:	2d202061 	stp	s1, s8, [x3, #-256]
ffff00000008f990:	2d2d2d2d 	stp	s13, s11, [x9, #-152]
ffff00000008f994:	2d2d2d2d 	stp	s13, s11, [x9, #-152]
ffff00000008f998:	2d2d2d2d 	stp	s13, s11, [x9, #-152]
ffff00000008f99c:	2d2d2d2d 	stp	s13, s11, [x9, #-152]
ffff00000008f9a0:	2d2d2d2d 	stp	s13, s11, [x9, #-152]
ffff00000008f9a4:	2d2d2d2d 	stp	s13, s11, [x9, #-152]
ffff00000008f9a8:	2d2d2d2d 	stp	s13, s11, [x9, #-152]
ffff00000008f9ac:	00002d2d 	udf	#11565
ffff00000008f9b0:	2d2d0a0d 	stp	s13, s2, [x16, #-152]
ffff00000008f9b4:	2d2d2d2d 	stp	s13, s11, [x9, #-152]
ffff00000008f9b8:	2d2d2d2d 	stp	s13, s11, [x9, #-152]
ffff00000008f9bc:	2d2d2d2d 	stp	s13, s11, [x9, #-152]
ffff00000008f9c0:	2d2d2d2d 	stp	s13, s11, [x9, #-152]
ffff00000008f9c4:	2d2d2d2d 	stp	s13, s11, [x9, #-152]
ffff00000008f9c8:	2d2d2d2d 	stp	s13, s11, [x9, #-152]
ffff00000008f9cc:	6120202d 	.inst	0x6120202d ; undefined
ffff00000008f9d0:	636f6c6c 	.inst	0x636f6c6c ; undefined
ffff00000008f9d4:	2d206220 	stp	s0, s24, [x17, #-256]
ffff00000008f9d8:	2d2d2d2d 	stp	s13, s11, [x9, #-152]
ffff00000008f9dc:	2d2d2d2d 	stp	s13, s11, [x9, #-152]
ffff00000008f9e0:	2d2d2d2d 	stp	s13, s11, [x9, #-152]
ffff00000008f9e4:	2d2d2d2d 	stp	s13, s11, [x9, #-152]
ffff00000008f9e8:	2d2d2d2d 	stp	s13, s11, [x9, #-152]
ffff00000008f9ec:	2d2d2d2d 	stp	s13, s11, [x9, #-152]
ffff00000008f9f0:	2d2d2d2d 	stp	s13, s11, [x9, #-152]
ffff00000008f9f4:	00002d2d 	udf	#11565
ffff00000008f9f8:	2d2d0a0d 	stp	s13, s2, [x16, #-152]
ffff00000008f9fc:	2d2d2d2d 	stp	s13, s11, [x9, #-152]
ffff00000008fa00:	2d2d2d2d 	stp	s13, s11, [x9, #-152]
ffff00000008fa04:	2d2d2d2d 	stp	s13, s11, [x9, #-152]
ffff00000008fa08:	2d2d2d2d 	stp	s13, s11, [x9, #-152]
ffff00000008fa0c:	2d2d2d2d 	stp	s13, s11, [x9, #-152]
ffff00000008fa10:	2d2d2d2d 	stp	s13, s11, [x9, #-152]
ffff00000008fa14:	6120202d 	.inst	0x6120202d ; undefined
ffff00000008fa18:	636f6c6c 	.inst	0x636f6c6c ; undefined
ffff00000008fa1c:	2d206320 	stp	s0, s24, [x25, #-256]
ffff00000008fa20:	2d2d2d2d 	stp	s13, s11, [x9, #-152]
ffff00000008fa24:	2d2d2d2d 	stp	s13, s11, [x9, #-152]
ffff00000008fa28:	2d2d2d2d 	stp	s13, s11, [x9, #-152]
ffff00000008fa2c:	2d2d2d2d 	stp	s13, s11, [x9, #-152]
ffff00000008fa30:	2d2d2d2d 	stp	s13, s11, [x9, #-152]
ffff00000008fa34:	2d2d2d2d 	stp	s13, s11, [x9, #-152]
ffff00000008fa38:	2d2d2d2d 	stp	s13, s11, [x9, #-152]
ffff00000008fa3c:	00002d2d 	udf	#11565
ffff00000008fa40:	2d2d0a0d 	stp	s13, s2, [x16, #-152]
ffff00000008fa44:	2d2d2d2d 	stp	s13, s11, [x9, #-152]
ffff00000008fa48:	2d2d2d2d 	stp	s13, s11, [x9, #-152]
ffff00000008fa4c:	2d2d2d2d 	stp	s13, s11, [x9, #-152]
ffff00000008fa50:	2d2d2d2d 	stp	s13, s11, [x9, #-152]
ffff00000008fa54:	2d2d2d2d 	stp	s13, s11, [x9, #-152]
ffff00000008fa58:	2d2d2d2d 	stp	s13, s11, [x9, #-152]
ffff00000008fa5c:	6620202d 	.inst	0x6620202d ; undefined
ffff00000008fa60:	20656572 	.inst	0x20656572 ; undefined
ffff00000008fa64:	2d2d2062 	stp	s2, s8, [x3, #-152]
ffff00000008fa68:	2d2d2d2d 	stp	s13, s11, [x9, #-152]
ffff00000008fa6c:	2d2d2d2d 	stp	s13, s11, [x9, #-152]
ffff00000008fa70:	2d2d2d2d 	stp	s13, s11, [x9, #-152]
ffff00000008fa74:	2d2d2d2d 	stp	s13, s11, [x9, #-152]
ffff00000008fa78:	2d2d2d2d 	stp	s13, s11, [x9, #-152]
ffff00000008fa7c:	2d2d2d2d 	stp	s13, s11, [x9, #-152]
ffff00000008fa80:	2d2d2d2d 	stp	s13, s11, [x9, #-152]
ffff00000008fa84:	0000002d 	udf	#45
ffff00000008fa88:	2d2d0a0d 	stp	s13, s2, [x16, #-152]
ffff00000008fa8c:	2d2d2d2d 	stp	s13, s11, [x9, #-152]
ffff00000008fa90:	2d2d2d2d 	stp	s13, s11, [x9, #-152]
ffff00000008fa94:	2d2d2d2d 	stp	s13, s11, [x9, #-152]
ffff00000008fa98:	2d2d2d2d 	stp	s13, s11, [x9, #-152]
ffff00000008fa9c:	2d2d2d2d 	stp	s13, s11, [x9, #-152]
ffff00000008faa0:	2d2d2d2d 	stp	s13, s11, [x9, #-152]
ffff00000008faa4:	6620202d 	.inst	0x6620202d ; undefined
ffff00000008faa8:	20656572 	.inst	0x20656572 ; undefined
ffff00000008faac:	2d2d2061 	stp	s1, s8, [x3, #-152]
ffff00000008fab0:	2d2d2d2d 	stp	s13, s11, [x9, #-152]
ffff00000008fab4:	2d2d2d2d 	stp	s13, s11, [x9, #-152]
ffff00000008fab8:	2d2d2d2d 	stp	s13, s11, [x9, #-152]
ffff00000008fabc:	2d2d2d2d 	stp	s13, s11, [x9, #-152]
ffff00000008fac0:	2d2d2d2d 	stp	s13, s11, [x9, #-152]
ffff00000008fac4:	2d2d2d2d 	stp	s13, s11, [x9, #-152]
ffff00000008fac8:	2d2d2d2d 	stp	s13, s11, [x9, #-152]
ffff00000008facc:	0000002d 	udf	#45
ffff00000008fad0:	2d2d0a0d 	stp	s13, s2, [x16, #-152]
ffff00000008fad4:	2d2d2d2d 	stp	s13, s11, [x9, #-152]
ffff00000008fad8:	2d2d2d2d 	stp	s13, s11, [x9, #-152]
ffff00000008fadc:	2d2d2d2d 	stp	s13, s11, [x9, #-152]
ffff00000008fae0:	2d2d2d2d 	stp	s13, s11, [x9, #-152]
ffff00000008fae4:	2d2d2d2d 	stp	s13, s11, [x9, #-152]
ffff00000008fae8:	2d2d2d2d 	stp	s13, s11, [x9, #-152]
ffff00000008faec:	6620202d 	.inst	0x6620202d ; undefined
ffff00000008faf0:	20656572 	.inst	0x20656572 ; undefined
ffff00000008faf4:	2d2d2063 	stp	s3, s8, [x3, #-152]
ffff00000008faf8:	2d2d2d2d 	stp	s13, s11, [x9, #-152]
ffff00000008fafc:	2d2d2d2d 	stp	s13, s11, [x9, #-152]
ffff00000008fb00:	2d2d2d2d 	stp	s13, s11, [x9, #-152]
ffff00000008fb04:	2d2d2d2d 	stp	s13, s11, [x9, #-152]
ffff00000008fb08:	2d2d2d2d 	stp	s13, s11, [x9, #-152]
ffff00000008fb0c:	2d2d2d2d 	stp	s13, s11, [x9, #-152]
ffff00000008fb10:	2d2d2d2d 	stp	s13, s11, [x9, #-152]
ffff00000008fb14:	0000002d 	udf	#45
ffff00000008fb18:	2d2d0a0d 	stp	s13, s2, [x16, #-152]
ffff00000008fb1c:	2d2d2d2d 	stp	s13, s11, [x9, #-152]
ffff00000008fb20:	2d2d2d2d 	stp	s13, s11, [x9, #-152]
ffff00000008fb24:	2d2d2d2d 	stp	s13, s11, [x9, #-152]
ffff00000008fb28:	2d2d2d2d 	stp	s13, s11, [x9, #-152]
ffff00000008fb2c:	6c6c6120 	ldnp	d0, d24, [x9, #-320]
ffff00000008fb30:	3120636f 	adds	w15, w27, #0x818
ffff00000008fb34:	65676170 	fnmls	z16.h, p0/m, z11.h, z7.h
ffff00000008fb38:	203e2d20 	.inst	0x203e2d20 ; undefined
ffff00000008fb3c:	67617032 	.inst	0x67617032 ; undefined
ffff00000008fb40:	2d2d2065 	stp	s5, s8, [x3, #-152]
ffff00000008fb44:	2d2d2d2d 	stp	s13, s11, [x9, #-152]
ffff00000008fb48:	2d2d2d2d 	stp	s13, s11, [x9, #-152]
ffff00000008fb4c:	2d2d2d2d 	stp	s13, s11, [x9, #-152]
ffff00000008fb50:	2d2d2d2d 	stp	s13, s11, [x9, #-152]
ffff00000008fb54:	2d2d2d2d 	stp	s13, s11, [x9, #-152]
ffff00000008fb58:	0000002d 	udf	#45
ffff00000008fb5c:	00000000 	udf	#0
ffff00000008fb60:	2d2d0a0d 	stp	s13, s2, [x16, #-152]
ffff00000008fb64:	2d2d2d2d 	stp	s13, s11, [x9, #-152]
ffff00000008fb68:	2d2d2d2d 	stp	s13, s11, [x9, #-152]
ffff00000008fb6c:	2d2d2d2d 	stp	s13, s11, [x9, #-152]
ffff00000008fb70:	2d2d2d2d 	stp	s13, s11, [x9, #-152]
ffff00000008fb74:	6c6c6120 	ldnp	d0, d24, [x9, #-320]
ffff00000008fb78:	3120636f 	adds	w15, w27, #0x818
ffff00000008fb7c:	65676170 	fnmls	z16.h, p0/m, z11.h, z7.h
ffff00000008fb80:	203e2d20 	.inst	0x203e2d20 ; undefined
ffff00000008fb84:	67617031 	.inst	0x67617031 ; undefined
ffff00000008fb88:	3e2d2065 	.inst	0x3e2d2065 ; undefined
ffff00000008fb8c:	61703220 	.inst	0x61703220 ; undefined
ffff00000008fb90:	2d2d6567 	stp	s7, s25, [x11, #-152]
ffff00000008fb94:	2d2d2d2d 	stp	s13, s11, [x9, #-152]
ffff00000008fb98:	2d2d2d2d 	stp	s13, s11, [x9, #-152]
ffff00000008fb9c:	2d2d2d2d 	stp	s13, s11, [x9, #-152]
ffff00000008fba0:	2d2d2d2d 	stp	s13, s11, [x9, #-152]
ffff00000008fba4:	2d2d2d2d 	stp	s13, s11, [x9, #-152]
ffff00000008fba8:	0000002d 	udf	#45
ffff00000008fbac:	00000000 	udf	#0
ffff00000008fbb0:	2d2d0a0d 	stp	s13, s2, [x16, #-152]
ffff00000008fbb4:	2d2d2d2d 	stp	s13, s11, [x9, #-152]
ffff00000008fbb8:	2d2d2d2d 	stp	s13, s11, [x9, #-152]
ffff00000008fbbc:	65726620 	fnmls	z0.h, p1/m, z17.h, z18.h
ffff00000008fbc0:	78302065 	ldeorh	w16, w5, [x3]
ffff00000008fbc4:	30303035 	adr	x21, ffff0000000f01c9 <__heap_start+0x5a1c9>
ffff00000008fbc8:	78303e2d 	.inst	0x78303e2d ; undefined
ffff00000008fbcc:	30303036 	adr	x22, ffff0000000f01d1 <__heap_start+0x5a1d1>
ffff00000008fbd0:	78303e2d 	.inst	0x78303e2d ; undefined
ffff00000008fbd4:	30303034 	adr	x20, ffff0000000f01d9 <__heap_start+0x5a1d9>
ffff00000008fbd8:	206f7420 	.inst	0x206f7420 ; undefined
ffff00000008fbdc:	74736574 	.inst	0x74736574 ; undefined
ffff00000008fbe0:	72656d20 	.inst	0x72656d20 ; undefined
ffff00000008fbe4:	2d206567 	stp	s7, s25, [x11, #-256]
ffff00000008fbe8:	2d2d2d2d 	stp	s13, s11, [x9, #-152]
ffff00000008fbec:	2d2d2d2d 	stp	s13, s11, [x9, #-152]
ffff00000008fbf0:	2d2d2d2d 	stp	s13, s11, [x9, #-152]
ffff00000008fbf4:	2d2d2d2d 	stp	s13, s11, [x9, #-152]
ffff00000008fbf8:	0000002d 	udf	#45
ffff00000008fbfc:	00000000 	udf	#0
ffff00000008fc00:	2d2d0a0d 	stp	s13, s2, [x16, #-152]
ffff00000008fc04:	2d2d2d2d 	stp	s13, s11, [x9, #-152]
ffff00000008fc08:	2d2d2d2d 	stp	s13, s11, [x9, #-152]
ffff00000008fc0c:	2d2d2d2d 	stp	s13, s11, [x9, #-152]
ffff00000008fc10:	2d2d2d2d 	stp	s13, s11, [x9, #-152]
ffff00000008fc14:	65726620 	fnmls	z0.h, p1/m, z17.h, z18.h
ffff00000008fc18:	746f2065 	.inst	0x746f2065 ; undefined
ffff00000008fc1c:	20726568 	.inst	0x20726568 ; undefined
ffff00000008fc20:	2d2d2d2d 	stp	s13, s11, [x9, #-152]
ffff00000008fc24:	2d2d2d2d 	stp	s13, s11, [x9, #-152]
ffff00000008fc28:	2d2d2d2d 	stp	s13, s11, [x9, #-152]
ffff00000008fc2c:	2d2d2d2d 	stp	s13, s11, [x9, #-152]
ffff00000008fc30:	2d2d2d2d 	stp	s13, s11, [x9, #-152]
ffff00000008fc34:	002d2d2d 	.inst	0x002d2d2d ; NYI
ffff00000008fc38:	2d2d0a0d 	stp	s13, s2, [x16, #-152]
ffff00000008fc3c:	2d2d2d2d 	stp	s13, s11, [x9, #-152]
ffff00000008fc40:	2d2d2d2d 	stp	s13, s11, [x9, #-152]
ffff00000008fc44:	2d2d2d2d 	stp	s13, s11, [x9, #-152]
ffff00000008fc48:	2d2d2d2d 	stp	s13, s11, [x9, #-152]
ffff00000008fc4c:	2d2d2d2d 	stp	s13, s11, [x9, #-152]
ffff00000008fc50:	2d2d2d2d 	stp	s13, s11, [x9, #-152]
ffff00000008fc54:	6c61202d 	ldnp	d13, d8, [x1, #-496]
ffff00000008fc58:	20636f6c 	.inst	0x20636f6c ; undefined
ffff00000008fc5c:	41502a31 	.inst	0x41502a31 ; undefined
ffff00000008fc60:	535f4547 	.inst	0x535f4547 ; undefined
ffff00000008fc64:	2f455a49 	.inst	0x2f455a49 ; undefined
ffff00000008fc68:	61202032 	.inst	0x61202032 ; undefined
ffff00000008fc6c:	3320646e 	.inst	0x3320646e ; undefined
ffff00000008fc70:	4741502a 	.inst	0x4741502a ; undefined
ffff00000008fc74:	49535f45 	.inst	0x49535f45 ; undefined
ffff00000008fc78:	2d20455a 	stp	s26, s17, [x10, #-256]
ffff00000008fc7c:	2d2d2d2d 	stp	s13, s11, [x9, #-152]
ffff00000008fc80:	2d2d2d2d 	stp	s13, s11, [x9, #-152]
ffff00000008fc84:	2d2d2d2d 	stp	s13, s11, [x9, #-152]
ffff00000008fc88:	2d2d2d2d 	stp	s13, s11, [x9, #-152]
ffff00000008fc8c:	2d2d2d2d 	stp	s13, s11, [x9, #-152]
ffff00000008fc90:	2d2d2d2d 	stp	s13, s11, [x9, #-152]
ffff00000008fc94:	2d2d2d2d 	stp	s13, s11, [x9, #-152]
ffff00000008fc98:	00002d2d 	udf	#11565
ffff00000008fc9c:	00000000 	udf	#0
ffff00000008fca0:	2d2d0a0d 	stp	s13, s2, [x16, #-152]
ffff00000008fca4:	2d2d2d2d 	stp	s13, s11, [x9, #-152]
ffff00000008fca8:	2d2d2d2d 	stp	s13, s11, [x9, #-152]
ffff00000008fcac:	2d2d2d2d 	stp	s13, s11, [x9, #-152]
ffff00000008fcb0:	2d2d2d2d 	stp	s13, s11, [x9, #-152]
ffff00000008fcb4:	2d2d2d2d 	stp	s13, s11, [x9, #-152]
ffff00000008fcb8:	2d2d2d2d 	stp	s13, s11, [x9, #-152]
ffff00000008fcbc:	6c61202d 	ldnp	d13, d8, [x1, #-496]
ffff00000008fcc0:	20636f6c 	.inst	0x20636f6c ; undefined
ffff00000008fcc4:	34312c32 	cbz	w18, ffff0000000f2248 <__heap_start+0x5c248>
ffff00000008fcc8:	38342c37 	.inst	0x38342c37 ; undefined
ffff00000008fccc:	34362c33 	cbz	w19, ffff0000000fc250 <__heap_start+0x66250>
ffff00000008fcd0:	2d2d2037 	stp	s23, s8, [x1, #-152]
ffff00000008fcd4:	2d2d2d2d 	stp	s13, s11, [x9, #-152]
ffff00000008fcd8:	2d2d2d2d 	stp	s13, s11, [x9, #-152]
ffff00000008fcdc:	2d2d2d2d 	stp	s13, s11, [x9, #-152]
ffff00000008fce0:	2d2d2d2d 	stp	s13, s11, [x9, #-152]
ffff00000008fce4:	2d2d2d2d 	stp	s13, s11, [x9, #-152]
ffff00000008fce8:	2d2d2d2d 	stp	s13, s11, [x9, #-152]
ffff00000008fcec:	2d2d2d2d 	stp	s13, s11, [x9, #-152]
ffff00000008fcf0:	0000002d 	udf	#45
ffff00000008fcf4:	00000000 	udf	#0
ffff00000008fcf8:	2d2d0a0d 	stp	s13, s2, [x16, #-152]
ffff00000008fcfc:	2d2d2d2d 	stp	s13, s11, [x9, #-152]
ffff00000008fd00:	2d2d2d2d 	stp	s13, s11, [x9, #-152]
ffff00000008fd04:	2d2d2d2d 	stp	s13, s11, [x9, #-152]
ffff00000008fd08:	2d2d2d2d 	stp	s13, s11, [x9, #-152]
ffff00000008fd0c:	2d2d2d2d 	stp	s13, s11, [x9, #-152]
ffff00000008fd10:	2d2d2d2d 	stp	s13, s11, [x9, #-152]
ffff00000008fd14:	7266202d 	.inst	0x7266202d ; undefined
ffff00000008fd18:	2d206565 	stp	s5, s25, [x11, #-256]
ffff00000008fd1c:	2d2d2d2d 	stp	s13, s11, [x9, #-152]
ffff00000008fd20:	2d2d2d2d 	stp	s13, s11, [x9, #-152]
ffff00000008fd24:	2d2d2d2d 	stp	s13, s11, [x9, #-152]
ffff00000008fd28:	2d2d2d2d 	stp	s13, s11, [x9, #-152]
ffff00000008fd2c:	2d2d2d2d 	stp	s13, s11, [x9, #-152]
ffff00000008fd30:	2d2d2d2d 	stp	s13, s11, [x9, #-152]
ffff00000008fd34:	2d2d2d2d 	stp	s13, s11, [x9, #-152]
ffff00000008fd38:	00002d2d 	udf	#11565
ffff00000008fd3c:	00000000 	udf	#0
ffff00000008fd40:	2d2d0a0d 	stp	s13, s2, [x16, #-152]
ffff00000008fd44:	2d2d2d2d 	stp	s13, s11, [x9, #-152]
ffff00000008fd48:	2d2d2d2d 	stp	s13, s11, [x9, #-152]
ffff00000008fd4c:	2d2d2d2d 	stp	s13, s11, [x9, #-152]
ffff00000008fd50:	2d2d2d2d 	stp	s13, s11, [x9, #-152]
ffff00000008fd54:	2d2d2d2d 	stp	s13, s11, [x9, #-152]
ffff00000008fd58:	2d2d2d2d 	stp	s13, s11, [x9, #-152]
ffff00000008fd5c:	6c61202d 	ldnp	d13, d8, [x1, #-496]
ffff00000008fd60:	20636f6c 	.inst	0x20636f6c ; undefined
ffff00000008fd64:	502a3436 	adr	x22, ffff0000000e43ea <__heap_start+0x4e3ea>
ffff00000008fd68:	5f454741 	.inst	0x5f454741 ; undefined
ffff00000008fd6c:	455a4953 	uaddwb	z19.h, z10.h, z26.b
ffff00000008fd70:	2d2d2d20 	stp	s0, s11, [x9, #-152]
ffff00000008fd74:	2d2d2d2d 	stp	s13, s11, [x9, #-152]
ffff00000008fd78:	2d2d2d2d 	stp	s13, s11, [x9, #-152]
ffff00000008fd7c:	2d2d2d2d 	stp	s13, s11, [x9, #-152]
ffff00000008fd80:	2d2d2d2d 	stp	s13, s11, [x9, #-152]
ffff00000008fd84:	2d2d2d2d 	stp	s13, s11, [x9, #-152]
ffff00000008fd88:	2d2d2d2d 	stp	s13, s11, [x9, #-152]
ffff00000008fd8c:	2d2d2d2d 	stp	s13, s11, [x9, #-152]
	...
ffff00000008fd98:	2d2d0a0d 	stp	s13, s2, [x16, #-152]
ffff00000008fd9c:	2d2d2d2d 	stp	s13, s11, [x9, #-152]
ffff00000008fda0:	2d2d2d2d 	stp	s13, s11, [x9, #-152]
ffff00000008fda4:	2d2d2d2d 	stp	s13, s11, [x9, #-152]
ffff00000008fda8:	5345545b 	.inst	0x5345545b ; undefined
ffff00000008fdac:	5d312054 	.inst	0x5d312054 ; undefined
ffff00000008fdb0:	6578696d 	fnmls	z13.h, p2/m, z11.h, z24.h
ffff00000008fdb4:	69732064 	ldpsw	x4, x8, [x3, #-104]
ffff00000008fdb8:	6120657a 	.inst	0x6120657a ; undefined
ffff00000008fdbc:	636f6c6c 	.inst	0x636f6c6c ; undefined
ffff00000008fdc0:	36312820 	tbz	w0, #6, ffff0000000922c4 <pool_slots+0x10fc>
ffff00000008fdc4:	2f32332f 	.inst	0x2f32332f ; undefined
ffff00000008fdc8:	392f3834 	strb	w20, [x1, #3022]
ffff00000008fdcc:	202c2936 	.inst	0x202c2936 ; undefined
ffff00000008fdd0:	68746f62 	.inst	0x68746f62 ; undefined
ffff00000008fdd4:	6f777420 	uqshl	v0.2d, v1.2d, #55
ffff00000008fdd8:	2d2d2d2d 	stp	s13, s11, [x9, #-152]
ffff00000008fddc:	2d2d2d2d 	stp	s13, s11, [x9, #-152]
ffff00000008fde0:	2d2d2d2d 	stp	s13, s11, [x9, #-152]
ffff00000008fde4:	2d2d2d2d 	stp	s13, s11, [x9, #-152]
ffff00000008fde8:	2d2d2d2d 	stp	s13, s11, [x9, #-152]
ffff00000008fdec:	00002d2d 	udf	#11565
ffff00000008fdf0:	316d0a0d 	adds	w13, w16, #0xb42, lsl #12
ffff00000008fdf4:	0000003a 	udf	#58
ffff00000008fdf8:	326d2020 	.inst	0x326d2020 ; undefined
ffff00000008fdfc:	0000003a 	udf	#58
ffff00000008fe00:	336d2020 	.inst	0x336d2020 ; undefined
ffff00000008fe04:	0000003a 	udf	#58
ffff00000008fe08:	346d2020 	cbz	w0, ffff00000016a20c <__heap_start+0xd420c>
ffff00000008fe0c:	0000003a 	udf	#58
ffff00000008fe10:	356d0a0d 	cbnz	w13, ffff000000169f50 <__heap_start+0xd3f50>
ffff00000008fe14:	0000003a 	udf	#58
ffff00000008fe18:	366d2020 	tbz	w0, #13, ffff00000008a21c <kill_zombies+0x74>
ffff00000008fe1c:	0000003a 	udf	#58
ffff00000008fe20:	376d2020 	tbnz	w0, #13, ffff00000008a224 <kill_zombies+0x7c>
ffff00000008fe24:	0000003a 	udf	#58
ffff00000008fe28:	386d2020 	ldeorlb	w13, w0, [x1]
ffff00000008fe2c:	0000003a 	udf	#58
ffff00000008fe30:	2d2d0a0d 	stp	s13, s2, [x16, #-152]
ffff00000008fe34:	2d2d2d2d 	stp	s13, s11, [x9, #-152]
ffff00000008fe38:	2d2d2d2d 	stp	s13, s11, [x9, #-152]
ffff00000008fe3c:	2d2d2d2d 	stp	s13, s11, [x9, #-152]
ffff00000008fe40:	2d2d2d2d 	stp	s13, s11, [x9, #-152]
ffff00000008fe44:	545b202d 	b.le	ffff000000146248 <__heap_start+0xb0248>
ffff00000008fe48:	20545345 	.inst	0x20545345 ; undefined
ffff00000008fe4c:	6c615d32 	ldnp	d18, d23, [x9, #-496]
ffff00000008fe50:	61636f6c 	.inst	0x61636f6c ; undefined
ffff00000008fe54:	33206574 	.inst	0x33206574 ; undefined
ffff00000008fe58:	78203030 	ldseth	w0, w16, [x1]
ffff00000008fe5c:	20363120 	.inst	0x20363120 ; undefined
ffff00000008fe60:	65747962 	fnmls	z2.h, p6/m, z11.h, z20.h
ffff00000008fe64:	63282073 	.inst	0x63282073 ; undefined
ffff00000008fe68:	73736f72 	.inst	0x73736f72 ; undefined
ffff00000008fe6c:	67617020 	.inst	0x67617020 ; undefined
ffff00000008fe70:	2d2d2965 	stp	s5, s10, [x11, #-152]
ffff00000008fe74:	2d2d2d2d 	stp	s13, s11, [x9, #-152]
ffff00000008fe78:	2d2d2d2d 	stp	s13, s11, [x9, #-152]
ffff00000008fe7c:	2d2d2d2d 	stp	s13, s11, [x9, #-152]
ffff00000008fe80:	2d2d2d2d 	stp	s13, s11, [x9, #-152]
ffff00000008fe84:	2d2d2d2d 	stp	s13, s11, [x9, #-152]
ffff00000008fe88:	0000002d 	udf	#45
ffff00000008fe8c:	00000000 	udf	#0
ffff00000008fe90:	74310a0d 	.inst	0x74310a0d ; undefined
ffff00000008fe94:	74702068 	.inst	0x74702068 ; undefined
ffff00000008fe98:	64612072 	fmul	z18.h, z3.h, z1.h[4]
ffff00000008fe9c:	003a7264 	.inst	0x003a7264 ; NYI
ffff00000008fea0:	3532202c 	cbnz	w12, ffff0000000f42a4 <__heap_start+0x5e2a4>
ffff00000008fea4:	20687436 	.inst	0x20687436 ; undefined
ffff00000008fea8:	20727470 	.inst	0x20727470 ; undefined
ffff00000008feac:	72646461 	.inst	0x72646461 ; undefined
ffff00000008feb0:	0000003a 	udf	#58
ffff00000008feb4:	00000000 	udf	#0
ffff00000008feb8:	35320a0d 	cbnz	w13, ffff0000000f3ff8 <__heap_start+0x5dff8>
ffff00000008febc:	20687437 	.inst	0x20687437 ; undefined
ffff00000008fec0:	20727470 	.inst	0x20727470 ; undefined
ffff00000008fec4:	72646461 	.inst	0x72646461 ; undefined
ffff00000008fec8:	0000003a 	udf	#58
ffff00000008fecc:	00000000 	udf	#0
ffff00000008fed0:	3033202c 	adr	x12, ffff0000000f62d5 <__heap_start+0x602d5>
ffff00000008fed4:	20687430 	.inst	0x20687430 ; undefined
ffff00000008fed8:	20727470 	.inst	0x20727470 ; undefined
ffff00000008fedc:	72646461 	.inst	0x72646461 ; undefined
ffff00000008fee0:	0000003a 	udf	#58
ffff00000008fee4:	00000000 	udf	#0
ffff00000008fee8:	66610a0d 	.inst	0x66610a0d ; undefined
ffff00000008feec:	20726574 	.inst	0x20726574 ; undefined
ffff00000008fef0:	6f6c6c61 	.inst	0x6f6c6c61 ; undefined
ffff00000008fef4:	69746163 	ldpsw	x3, x24, [x11, #-96]
ffff00000008fef8:	3320676e 	.inst	0x3320676e ; undefined
ffff00000008fefc:	78203030 	ldseth	w0, w16, [x1]
ffff00000008ff00:	20363120 	.inst	0x20363120 ; undefined
ffff00000008ff04:	65747962 	fnmls	z2.h, p6/m, z11.h, z20.h
ffff00000008ff08:	00003a73 	udf	#14963
ffff00000008ff0c:	00000000 	udf	#0
ffff00000008ff10:	2d2d0a0d 	stp	s13, s2, [x16, #-152]
ffff00000008ff14:	2d2d2d2d 	stp	s13, s11, [x9, #-152]
ffff00000008ff18:	2d2d2d2d 	stp	s13, s11, [x9, #-152]
ffff00000008ff1c:	2d2d2d2d 	stp	s13, s11, [x9, #-152]
ffff00000008ff20:	2d2d2d2d 	stp	s13, s11, [x9, #-152]
ffff00000008ff24:	5b202d2d 	.inst	0x5b202d2d ; undefined
ffff00000008ff28:	54534554 	bc.mi	ffff0000001367d0 <__heap_start+0xa07d0>  // bc.first
ffff00000008ff2c:	725d3320 	.inst	0x725d3320 ; undefined
ffff00000008ff30:	65737565 	fnmls	z5.h, p5/m, z11.h, z19.h
ffff00000008ff34:	74666120 	.inst	0x74666120 ; undefined
ffff00000008ff38:	66207265 	.inst	0x66207265 ; undefined
ffff00000008ff3c:	2d656572 	ldp	s18, s25, [x11, #-216]
ffff00000008ff40:	2d2d2d2d 	stp	s13, s11, [x9, #-152]
ffff00000008ff44:	2d2d2d2d 	stp	s13, s11, [x9, #-152]
ffff00000008ff48:	2d2d2d2d 	stp	s13, s11, [x9, #-152]
ffff00000008ff4c:	2d2d2d2d 	stp	s13, s11, [x9, #-152]
ffff00000008ff50:	2d2d2d2d 	stp	s13, s11, [x9, #-152]
ffff00000008ff54:	00002d2d 	udf	#11565
ffff00000008ff58:	20200a0d 	.inst	0x20200a0d ; undefined
ffff00000008ff5c:	31727470 	adds	w16, w3, #0xc9d, lsl #12
ffff00000008ff60:	0000003a 	udf	#58
ffff00000008ff64:	00000000 	udf	#0
ffff00000008ff68:	20200a0d 	.inst	0x20200a0d ; undefined
ffff00000008ff6c:	32727470 	.inst	0x32727470 ; undefined
ffff00000008ff70:	0000003a 	udf	#58
ffff00000008ff74:	00000000 	udf	#0
ffff00000008ff78:	20200a0d 	.inst	0x20200a0d ; undefined
ffff00000008ff7c:	33727470 	.inst	0x33727470 ; undefined
ffff00000008ff80:	75657228 	.inst	0x75657228 ; undefined
ffff00000008ff84:	29646573 	ldp	w19, w25, [x11, #-224]
ffff00000008ff88:	0000003a 	udf	#58
ffff00000008ff8c:	00000000 	udf	#0
ffff00000008ff90:	2d2d0a0d 	stp	s13, s2, [x16, #-152]
ffff00000008ff94:	2d2d2d2d 	stp	s13, s11, [x9, #-152]
ffff00000008ff98:	2d2d2d2d 	stp	s13, s11, [x9, #-152]
ffff00000008ff9c:	2d2d2d2d 	stp	s13, s11, [x9, #-152]
ffff00000008ffa0:	2d2d2d2d 	stp	s13, s11, [x9, #-152]
ffff00000008ffa4:	6c6c6120 	ldnp	d0, d24, [x9, #-320]
ffff00000008ffa8:	6420636f 	.inst	0x6420636f ; undefined
ffff00000008ffac:	6d616e79 	ldp	d25, d27, [x19, #-496]
ffff00000008ffb0:	73206369 	.inst	0x73206369 ; undefined
ffff00000008ffb4:	65747379 	fnmls	z25.h, p4/m, z27.h, z20.h
ffff00000008ffb8:	2d2d206d 	stp	s13, s8, [x3, #-152]
ffff00000008ffbc:	2d2d2d2d 	stp	s13, s11, [x9, #-152]
ffff00000008ffc0:	2d2d2d2d 	stp	s13, s11, [x9, #-152]
ffff00000008ffc4:	2d2d2d2d 	stp	s13, s11, [x9, #-152]
ffff00000008ffc8:	2d2d2d2d 	stp	s13, s11, [x9, #-152]
ffff00000008ffcc:	2d2d2d2d 	stp	s13, s11, [x9, #-152]
ffff00000008ffd0:	0000002d 	udf	#45
ffff00000008ffd4:	00000000 	udf	#0
ffff00000008ffd8:	2d2d0a0d 	stp	s13, s2, [x16, #-152]
ffff00000008ffdc:	2d2d2d2d 	stp	s13, s11, [x9, #-152]
ffff00000008ffe0:	2d2d2d2d 	stp	s13, s11, [x9, #-152]
ffff00000008ffe4:	2d2d2d2d 	stp	s13, s11, [x9, #-152]
ffff00000008ffe8:	2d2d2d2d 	stp	s13, s11, [x9, #-152]
ffff00000008ffec:	6c6c6120 	ldnp	d0, d24, [x9, #-320]
ffff00000008fff0:	6220636f 	.inst	0x6220636f ; undefined
ffff00000008fff4:	79646475 	ldrh	w21, [x3, #4658]
ffff00000008fff8:	73797320 	.inst	0x73797320 ; undefined
ffff00000008fffc:	206d6574 	.inst	0x206d6574 ; undefined
ffff000000090000:	2d2d2d2d 	stp	s13, s11, [x9, #-152]
ffff000000090004:	2d2d2d2d 	stp	s13, s11, [x9, #-152]
ffff000000090008:	2d2d2d2d 	stp	s13, s11, [x9, #-152]
ffff00000009000c:	2d2d2d2d 	stp	s13, s11, [x9, #-152]
ffff000000090010:	2d2d2d2d 	stp	s13, s11, [x9, #-152]
ffff000000090014:	002d2d2d 	.inst	0x002d2d2d ; NYI
ffff000000090018:	2d2d0a0d 	stp	s13, s2, [x16, #-152]
ffff00000009001c:	2d2d2d2d 	stp	s13, s11, [x9, #-152]
ffff000000090020:	2d2d2d2d 	stp	s13, s11, [x9, #-152]
ffff000000090024:	2d2d2d2d 	stp	s13, s11, [x9, #-152]
ffff000000090028:	2d2d2d2d 	stp	s13, s11, [x9, #-152]
ffff00000009002c:	65726620 	fnmls	z0.h, p1/m, z17.h, z18.h
ffff000000090030:	79642065 	ldrh	w5, [x3, #4624]
ffff000000090034:	696d616e 	ldpsw	x14, x24, [x11, #-152]
ffff000000090038:	79732063 	ldrh	w3, [x3, #6544]
ffff00000009003c:	6d657473 	ldp	d19, d29, [x3, #-432]
ffff000000090040:	2d2d2d20 	stp	s0, s11, [x9, #-152]
ffff000000090044:	2d2d2d2d 	stp	s13, s11, [x9, #-152]
ffff000000090048:	2d2d2d2d 	stp	s13, s11, [x9, #-152]
ffff00000009004c:	2d2d2d2d 	stp	s13, s11, [x9, #-152]
ffff000000090050:	2d2d2d2d 	stp	s13, s11, [x9, #-152]
ffff000000090054:	2d2d2d2d 	stp	s13, s11, [x9, #-152]
	...
ffff000000090060:	2d2d0a0d 	stp	s13, s2, [x16, #-152]
ffff000000090064:	2d2d2d2d 	stp	s13, s11, [x9, #-152]
ffff000000090068:	2d2d2d2d 	stp	s13, s11, [x9, #-152]
ffff00000009006c:	2d2d2d2d 	stp	s13, s11, [x9, #-152]
ffff000000090070:	2d2d2d2d 	stp	s13, s11, [x9, #-152]
ffff000000090074:	65726620 	fnmls	z0.h, p1/m, z17.h, z18.h
ffff000000090078:	75622065 	.inst	0x75622065 ; undefined
ffff00000009007c:	20796464 	.inst	0x20796464 ; undefined
ffff000000090080:	74737973 	.inst	0x74737973 ; undefined
ffff000000090084:	2d206d65 	stp	s5, s27, [x11, #-256]
ffff000000090088:	2d2d2d2d 	stp	s13, s11, [x9, #-152]
ffff00000009008c:	2d2d2d2d 	stp	s13, s11, [x9, #-152]
ffff000000090090:	2d2d2d2d 	stp	s13, s11, [x9, #-152]
ffff000000090094:	2d2d2d2d 	stp	s13, s11, [x9, #-152]
ffff000000090098:	2d2d2d2d 	stp	s13, s11, [x9, #-152]
ffff00000009009c:	00002d2d 	udf	#11565
ffff0000000900a0:	2d2d0a0d 	stp	s13, s2, [x16, #-152]
ffff0000000900a4:	2d2d2d2d 	stp	s13, s11, [x9, #-152]
ffff0000000900a8:	2d2d2d2d 	stp	s13, s11, [x9, #-152]
ffff0000000900ac:	2d2d2d2d 	stp	s13, s11, [x9, #-152]
ffff0000000900b0:	2d2d2d2d 	stp	s13, s11, [x9, #-152]
ffff0000000900b4:	62202e31 	.inst	0x62202e31 ; undefined
ffff0000000900b8:	726f6665 	.inst	0x726f6665 ; undefined
ffff0000000900bc:	65742065 	fmls	z5.h, p0/m, z3.h, z20.h
ffff0000000900c0:	73207473 	.inst	0x73207473 ; undefined
ffff0000000900c4:	74726174 	.inst	0x74726174 ; undefined
ffff0000000900c8:	2d2d2d2d 	stp	s13, s11, [x9, #-152]
ffff0000000900cc:	2d2d2d2d 	stp	s13, s11, [x9, #-152]
ffff0000000900d0:	2d2d2d2d 	stp	s13, s11, [x9, #-152]
ffff0000000900d4:	2d2d2d2d 	stp	s13, s11, [x9, #-152]
ffff0000000900d8:	2d2d2d2d 	stp	s13, s11, [x9, #-152]
ffff0000000900dc:	002d2d2d 	.inst	0x002d2d2d ; NYI
ffff0000000900e0:	2d2d0a0d 	stp	s13, s2, [x16, #-152]
ffff0000000900e4:	2d2d2d2d 	stp	s13, s11, [x9, #-152]
ffff0000000900e8:	2d2d2d2d 	stp	s13, s11, [x9, #-152]
ffff0000000900ec:	2d2d2d2d 	stp	s13, s11, [x9, #-152]
ffff0000000900f0:	2d2d2d2d 	stp	s13, s11, [x9, #-152]
ffff0000000900f4:	202e322d 	.inst	0x202e322d ; undefined
ffff0000000900f8:	6c6c6120 	ldnp	d0, d24, [x9, #-320]
ffff0000000900fc:	7461636f 	.inst	0x7461636f ; undefined
ffff000000090100:	30332065 	adr	x5, ffff0000000f650d <__heap_start+0x6050d>
ffff000000090104:	20782030 	.inst	0x20782030 ; undefined
ffff000000090108:	62203631 	.inst	0x62203631 ; undefined
ffff00000009010c:	73657479 	.inst	0x73657479 ; undefined
ffff000000090110:	72632820 	.inst	0x72632820 ; undefined
ffff000000090114:	2073736f 	.inst	0x2073736f ; undefined
ffff000000090118:	65676170 	fnmls	z16.h, p0/m, z11.h, z7.h
ffff00000009011c:	5b612029 	.inst	0x5b612029 ; undefined
ffff000000090120:	5d303033 	.inst	0x5d303033 ; undefined
ffff000000090124:	2d2d2d20 	stp	s0, s11, [x9, #-152]
ffff000000090128:	2d2d2d2d 	stp	s13, s11, [x9, #-152]
ffff00000009012c:	2d2d2d2d 	stp	s13, s11, [x9, #-152]
ffff000000090130:	002d2d2d 	.inst	0x002d2d2d ; NYI
ffff000000090134:	00000000 	udf	#0
ffff000000090138:	2d2d0a0d 	stp	s13, s2, [x16, #-152]
ffff00000009013c:	2d2d2d2d 	stp	s13, s11, [x9, #-152]
ffff000000090140:	2d2d2d2d 	stp	s13, s11, [x9, #-152]
ffff000000090144:	2d2d2d2d 	stp	s13, s11, [x9, #-152]
ffff000000090148:	2d2d2d2d 	stp	s13, s11, [x9, #-152]
ffff00000009014c:	202e3320 	.inst	0x202e3320 ; undefined
ffff000000090150:	6f6c6c61 	.inst	0x6f6c6c61 ; undefined
ffff000000090154:	75622063 	.inst	0x75622063 ; undefined
ffff000000090158:	20796464 	.inst	0x20796464 ; undefined
ffff00000009015c:	74737973 	.inst	0x74737973 ; undefined
ffff000000090160:	2d206d65 	stp	s5, s27, [x11, #-256]
ffff000000090164:	2d2d2d2d 	stp	s13, s11, [x9, #-152]
ffff000000090168:	2d2d2d2d 	stp	s13, s11, [x9, #-152]
ffff00000009016c:	2d2d2d2d 	stp	s13, s11, [x9, #-152]
ffff000000090170:	2d2d2d2d 	stp	s13, s11, [x9, #-152]
ffff000000090174:	2d2d2d2d 	stp	s13, s11, [x9, #-152]
ffff000000090178:	00002d2d 	udf	#11565
ffff00000009017c:	00000000 	udf	#0
ffff000000090180:	2d2d0a0d 	stp	s13, s2, [x16, #-152]
ffff000000090184:	2d2d2d2d 	stp	s13, s11, [x9, #-152]
ffff000000090188:	2d2d2d2d 	stp	s13, s11, [x9, #-152]
ffff00000009018c:	2d2d2d2d 	stp	s13, s11, [x9, #-152]
ffff000000090190:	2d2d2d2d 	stp	s13, s11, [x9, #-152]
ffff000000090194:	2e34202d 	usubl	v13.8h, v1.8b, v20.8b
ffff000000090198:	6c6c6120 	ldnp	d0, d24, [x9, #-320]
ffff00000009019c:	7461636f 	.inst	0x7461636f ; undefined
ffff0000000901a0:	30332065 	adr	x5, ffff0000000f65ad <__heap_start+0x605ad>
ffff0000000901a4:	20782030 	.inst	0x20782030 ; undefined
ffff0000000901a8:	62203631 	.inst	0x62203631 ; undefined
ffff0000000901ac:	73657479 	.inst	0x73657479 ; undefined
ffff0000000901b0:	72632820 	.inst	0x72632820 ; undefined
ffff0000000901b4:	2073736f 	.inst	0x2073736f ; undefined
ffff0000000901b8:	65676170 	fnmls	z16.h, p0/m, z11.h, z7.h
ffff0000000901bc:	5b652029 	.inst	0x5b652029 ; undefined
ffff0000000901c0:	5d303033 	.inst	0x5d303033 ; undefined
ffff0000000901c4:	2d2d2d20 	stp	s0, s11, [x9, #-152]
ffff0000000901c8:	2d2d2d2d 	stp	s13, s11, [x9, #-152]
ffff0000000901cc:	2d2d2d2d 	stp	s13, s11, [x9, #-152]
ffff0000000901d0:	2d2d2d2d 	stp	s13, s11, [x9, #-152]
ffff0000000901d4:	002d2d2d 	.inst	0x002d2d2d ; NYI
ffff0000000901d8:	2d2d0a0d 	stp	s13, s2, [x16, #-152]
ffff0000000901dc:	2d2d2d2d 	stp	s13, s11, [x9, #-152]
ffff0000000901e0:	2d2d2d2d 	stp	s13, s11, [x9, #-152]
ffff0000000901e4:	2d2d2d2d 	stp	s13, s11, [x9, #-152]
ffff0000000901e8:	2d2d2d2d 	stp	s13, s11, [x9, #-152]
ffff0000000901ec:	202e3520 	.inst	0x202e3520 ; undefined
ffff0000000901f0:	65657266 	fnmls	z6.h, p4/m, z19.h, z5.h
ffff0000000901f4:	64756220 	.inst	0x64756220 ; undefined
ffff0000000901f8:	73207964 	.inst	0x73207964 ; undefined
ffff0000000901fc:	65747379 	fnmls	z25.h, p4/m, z27.h, z20.h
ffff000000090200:	2d2d206d 	stp	s13, s8, [x3, #-152]
ffff000000090204:	2d2d2d2d 	stp	s13, s11, [x9, #-152]
ffff000000090208:	2d2d2d2d 	stp	s13, s11, [x9, #-152]
ffff00000009020c:	2d2d2d2d 	stp	s13, s11, [x9, #-152]
ffff000000090210:	2d2d2d2d 	stp	s13, s11, [x9, #-152]
ffff000000090214:	2d2d2d2d 	stp	s13, s11, [x9, #-152]
ffff000000090218:	0000002d 	udf	#45
ffff00000009021c:	00000000 	udf	#0
ffff000000090220:	2d2d0a0d 	stp	s13, s2, [x16, #-152]
ffff000000090224:	2d2d2d2d 	stp	s13, s11, [x9, #-152]
ffff000000090228:	2d2d2d2d 	stp	s13, s11, [x9, #-152]
ffff00000009022c:	2d2d2d2d 	stp	s13, s11, [x9, #-152]
ffff000000090230:	2d2d2d2d 	stp	s13, s11, [x9, #-152]
ffff000000090234:	66202e36 	.inst	0x66202e36 ; undefined
ffff000000090238:	20656572 	.inst	0x20656572 ; undefined
ffff00000009023c:	6e617964 	.inst	0x6e617964 ; undefined
ffff000000090240:	2063696d 	.inst	0x2063696d ; undefined
ffff000000090244:	74737973 	.inst	0x74737973 ; undefined
ffff000000090248:	61206d65 	.inst	0x61206d65 ; undefined
ffff00000009024c:	3030335b 	adr	x27, ffff0000000f08b5 <__heap_start+0x5a8b5>
ffff000000090250:	2d2d2d5d 	stp	s29, s11, [x10, #-152]
ffff000000090254:	2d2d2d2d 	stp	s13, s11, [x9, #-152]
ffff000000090258:	2d2d2d2d 	stp	s13, s11, [x9, #-152]
ffff00000009025c:	2d2d2d2d 	stp	s13, s11, [x9, #-152]
ffff000000090260:	2d2d2d2d 	stp	s13, s11, [x9, #-152]
ffff000000090264:	2d2d2d2d 	stp	s13, s11, [x9, #-152]
	...
ffff000000090270:	2d2d0a0d 	stp	s13, s2, [x16, #-152]
ffff000000090274:	2d2d2d2d 	stp	s13, s11, [x9, #-152]
ffff000000090278:	2d2d2d2d 	stp	s13, s11, [x9, #-152]
ffff00000009027c:	2d2d2d2d 	stp	s13, s11, [x9, #-152]
ffff000000090280:	2d2d2d2d 	stp	s13, s11, [x9, #-152]
ffff000000090284:	66202e37 	.inst	0x66202e37 ; undefined
ffff000000090288:	20656572 	.inst	0x20656572 ; undefined
ffff00000009028c:	6e617964 	.inst	0x6e617964 ; undefined
ffff000000090290:	2063696d 	.inst	0x2063696d ; undefined
ffff000000090294:	74737973 	.inst	0x74737973 ; undefined
ffff000000090298:	65206d65 	.inst	0x65206d65 ; undefined
ffff00000009029c:	3030335b 	adr	x27, ffff0000000f0905 <__heap_start+0x5a905>
ffff0000000902a0:	2d2d2d5d 	stp	s29, s11, [x10, #-152]
ffff0000000902a4:	2d2d2d2d 	stp	s13, s11, [x9, #-152]
ffff0000000902a8:	2d2d2d2d 	stp	s13, s11, [x9, #-152]
ffff0000000902ac:	2d2d2d2d 	stp	s13, s11, [x9, #-152]
ffff0000000902b0:	2d2d2d2d 	stp	s13, s11, [x9, #-152]
ffff0000000902b4:	2d2d2d2d 	stp	s13, s11, [x9, #-152]
	...

ffff0000000902c0 <pool_sizes>:
ffff0000000902c0:	00000010 	udf	#16
ffff0000000902c4:	00000020 	udf	#32
ffff0000000902c8:	00000030 	udf	#48
ffff0000000902cc:	00000060 	udf	#96
ffff0000000902d0:	00000400 	udf	#1024
ffff0000000902d4:	00000000 	udf	#0

ffff0000000902d8 <pool_slots>:
ffff0000000902d8:	00000100 	udf	#256
ffff0000000902dc:	00000080 	udf	#128
ffff0000000902e0:	00000055 	udf	#85
ffff0000000902e4:	0000002a 	udf	#42
ffff0000000902e8:	00000004 	udf	#4
ffff0000000902ec:	00000000 	udf	#0
ffff0000000902f0:	2d2d0a0d 	stp	s13, s2, [x16, #-152]
ffff0000000902f4:	2d2d2d2d 	stp	s13, s11, [x9, #-152]
ffff0000000902f8:	2e30202d 	usubl	v13.8h, v1.8b, v16.8b
ffff0000000902fc:	61752020 	.inst	0x61752020 ; undefined
ffff000000090300:	695f7472 	ldpsw	x18, x29, [x3, #248]
ffff000000090304:	2074696e 	.inst	0x2074696e ; undefined
ffff000000090308:	696e6966 	ldpsw	x6, x26, [x11, #-144]
ffff00000009030c:	64656873 	.inst	0x64656873 ; undefined
ffff000000090310:	2d2d2d20 	stp	s0, s11, [x9, #-152]
ffff000000090314:	2d2d2d2d 	stp	s13, s11, [x9, #-152]
ffff000000090318:	002d2d2d 	.inst	0x002d2d2d ; NYI
ffff00000009031c:	00000000 	udf	#0
ffff000000090320:	00082008 	.inst	0x00082008 ; undefined
ffff000000090324:	00000000 	udf	#0

ffff000000090328 <pool_sizes>:
ffff000000090328:	00000010 	udf	#16
ffff00000009032c:	00000020 	udf	#32
ffff000000090330:	00000030 	udf	#48
ffff000000090334:	00000060 	udf	#96
ffff000000090338:	00000400 	udf	#1024
ffff00000009033c:	00000000 	udf	#0

ffff000000090340 <pool_slots>:
ffff000000090340:	00000100 	udf	#256
ffff000000090344:	00000080 	udf	#128
ffff000000090348:	00000055 	udf	#85
ffff00000009034c:	0000002a 	udf	#42
ffff000000090350:	00000004 	udf	#4
ffff000000090354:	00000000 	udf	#0
ffff000000090358:	6d5b0a0d 	ldp	d13, d2, [x16, #432]
ffff00000009035c:	205d756d 	.inst	0x205d756d ; undefined
ffff000000090360:	656e6946 	fnmls	z6.h, p2/m, z10.h, z14.h
ffff000000090364:	72672072 	.inst	0x72672072 ; undefined
ffff000000090368:	6c756e61 	ldnp	d1, d27, [x19, #-176]
ffff00000009036c:	74697261 	.inst	0x74697261 ; undefined
ffff000000090370:	6f742079 	umlal2	v25.4s, v3.8h, v4.h[3]
ffff000000090374:	6c203320 	stnp	d0, d12, [x25, #-512]
ffff000000090378:	6c657665 	ldnp	d5, d29, [x19, #-432]
ffff00000009037c:	67617020 	.inst	0x67617020 ; undefined
ffff000000090380:	2e676e69 	umin	v9.4h, v19.4h, v7.4h
ffff000000090384:	00002e2e 	udf	#11822
ffff000000090388:	6d5b0a0d 	ldp	d13, d2, [x16, #432]
ffff00000009038c:	205d756d 	.inst	0x205d756d ; undefined
ffff000000090390:	65746661 	fnmls	z1.h, p1/m, z19.h, z20.h
ffff000000090394:	69462072 	ldpsw	x18, x8, [x3, #48]
ffff000000090398:	2072656e 	.inst	0x2072656e ; undefined
ffff00000009039c:	6e617267 	uabdl2	v7.4s, v19.8h, v1.8h
ffff0000000903a0:	72616c75 	.inst	0x72616c75 ; undefined
ffff0000000903a4:	00797469 	.inst	0x00797469 ; undefined
ffff0000000903a8:	5b200a0d 	.inst	0x5b200a0d ; undefined
ffff0000000903ac:	5d756d6d 	.inst	0x5d756d6d ; undefined
ffff0000000903b0:	6c617720 	ldnp	d0, d29, [x25, #-496]
ffff0000000903b4:	2c29286b 	stnp	s11, s10, [x3, #-184]
ffff0000000903b8:	6c6c6120 	ldnp	d0, d24, [x9, #-320]
ffff0000000903bc:	7461636f 	.inst	0x7461636f ; undefined
ffff0000000903c0:	20612065 	.inst	0x20612065 ; undefined
ffff0000000903c4:	2077656e 	.inst	0x2077656e ; undefined
ffff0000000903c8:	65676170 	fnmls	z16.h, p0/m, z11.h, z7.h
ffff0000000903cc:	726f6620 	.inst	0x726f6620 ; undefined
ffff0000000903d0:	76656c20 	.inst	0x76656c20 ; undefined
ffff0000000903d4:	00206c65 	.inst	0x00206c65 ; NYI
ffff0000000903d8:	6170202c 	.inst	0x6170202c ; undefined
ffff0000000903dc:	746e6572 	.inst	0x746e6572 ; undefined
ffff0000000903e0:	746e6520 	.inst	0x746e6520 ; undefined
ffff0000000903e4:	69207972 	stgp	x18, x30, [x11, #-1024]
ffff0000000903e8:	3d207864 	str	b4, [x3, #2078]
ffff0000000903ec:	00000020 	udf	#32
ffff0000000903f0:	656e202c 	fmls	z12.h, p0/m, z1.h, z14.h
ffff0000000903f4:	61745f77 	.inst	0x61745f77 ; undefined
ffff0000000903f8:	5f656c62 	.inst	0x5f656c62 ; undefined
ffff0000000903fc:	3d206176 	str	b22, [x11, #2072]
ffff000000090400:	00000020 	udf	#32
ffff000000090404:	00000000 	udf	#0
ffff000000090408:	5b200a0d 	.inst	0x5b200a0d ; undefined
ffff00000009040c:	5d756d6d 	.inst	0x5d756d6d ; undefined
ffff000000090410:	70616d20 	adr	x0, ffff0000001531b7 <__heap_start+0xbd1b7>
ffff000000090414:	65676170 	fnmls	z16.h, p0/m, z11.h, z7.h
ffff000000090418:	2c292873 	stnp	s19, s10, [x3, #-184]
ffff00000009041c:	70616d20 	adr	x0, ffff0000001531c3 <__heap_start+0xbd1c3>
ffff000000090420:	20617620 	.inst	0x20617620 ; undefined
ffff000000090424:	00000000 	udf	#0
ffff000000090428:	206f7420 	.inst	0x206f7420 ; undefined
ffff00000009042c:	00206170 	.inst	0x00206170 ; NYI
ffff000000090430:	5b200a0d 	.inst	0x5b200a0d ; undefined
ffff000000090434:	5d756d6d 	.inst	0x5d756d6d ; undefined
ffff000000090438:	52524520 	.inst	0x52524520 ; undefined
ffff00000009043c:	203a524f 	.inst	0x203a524f ; undefined
ffff000000090440:	3d206176 	str	b22, [x11, #2072]
ffff000000090444:	31783020 	adds	w0, w1, #0xe0c, lsl #12
ffff000000090448:	30303034 	adr	x20, ffff0000000f0a4d <__heap_start+0x5aa4d>
ffff00000009044c:	31413532 	adds	w18, w9, #0x4d, lsl #12
ffff000000090450:	30303034 	adr	x20, ffff0000000f0a55 <__heap_start+0x5aa55>
ffff000000090454:	2c423532 	ldnp	s18, s13, [x9, #16]
ffff000000090458:	20617020 	.inst	0x20617020 ; undefined
ffff00000009045c:	7830203d 	ldeorh	w16, w29, [x1]
ffff000000090460:	30303431 	adr	x17, ffff0000000f0ae5 <__heap_start+0x5aae5>
ffff000000090464:	41353230 	.inst	0x41353230 ; undefined
ffff000000090468:	30303431 	adr	x17, ffff0000000f0aed <__heap_start+0x5aaed>
ffff00000009046c:	42353230 	.inst	0x42353230 ; undefined
	...
ffff000000090478:	5450202c 	b.gt	ffff00000013087c <__heap_start+0x9a87c>
ffff00000009047c:	203d2045 	.inst	0x203d2045 ; undefined
	...
ffff000000090488:	2d2d0a0d 	stp	s13, s2, [x16, #-152]
ffff00000009048c:	2d2d2d2d 	stp	s13, s11, [x9, #-152]
ffff000000090490:	2d2d2d2d 	stp	s13, s11, [x9, #-152]
ffff000000090494:	2d2d2d2d 	stp	s13, s11, [x9, #-152]
ffff000000090498:	7375202d 	.inst	0x7375202d ; undefined
ffff00000009049c:	705f7265 	adr	x5, ffff00000014f2eb <__heap_start+0xb92eb>
ffff0000000904a0:	74656761 	.inst	0x74656761 ; undefined
ffff0000000904a4:	656c6261 	fnmls	z1.h, p0/m, z19.h, z12.h
ffff0000000904a8:	7465735f 	.inst	0x7465735f ; undefined
ffff0000000904ac:	202c7075 	.inst	0x202c7075 ; undefined
ffff0000000904b0:	7070616d 	adr	x13, ffff0000001710df <__heap_start+0xdb0df>
ffff0000000904b4:	20676e69 	.inst	0x20676e69 ; undefined
ffff0000000904b8:	65646f63 	fnmls	z3.h, p3/m, z27.h, z4.h
ffff0000000904bc:	63657320 	.inst	0x63657320 ; undefined
ffff0000000904c0:	6e6f6974 	.inst	0x6e6f6974 ; undefined
ffff0000000904c4:	2d2d2d20 	stp	s0, s11, [x9, #-152]
ffff0000000904c8:	2d2d2d2d 	stp	s13, s11, [x9, #-152]
ffff0000000904cc:	2d2d2d2d 	stp	s13, s11, [x9, #-152]
ffff0000000904d0:	2d2d2d2d 	stp	s13, s11, [x9, #-152]
ffff0000000904d4:	2d2d2d2d 	stp	s13, s11, [x9, #-152]
ffff0000000904d8:	0000002d 	udf	#45
ffff0000000904dc:	00000000 	udf	#0
ffff0000000904e0:	696c070d 	ldpsw	x13, x1, [x24, #-160]
ffff0000000904e4:	64656e67 	.inst	0x64656e67 ; undefined
ffff0000000904e8:	7a69735f 	.inst	0x7a69735f ; undefined
ffff0000000904ec:	41502f65 	.inst	0x41502f65 ; undefined
ffff0000000904f0:	535f4547 	.inst	0x535f4547 ; undefined
ffff0000000904f4:	20455a49 	.inst	0x20455a49 ; undefined
ffff0000000904f8:	0000203d 	udf	#8253
ffff0000000904fc:	00000000 	udf	#0
ffff000000090500:	20200a0d 	.inst	0x20200a0d ; undefined
ffff000000090504:	6f662020 	umlal2	v0.4s, v1.8h, v6.h[2]
ffff000000090508:	6f6c2072 	umlal2	v18.4s, v3.8h, v12.h[2]
ffff00000009050c:	0020706f 	.inst	0x0020706f ; NYI
ffff000000090510:	2d2d0a0d 	stp	s13, s2, [x16, #-152]
ffff000000090514:	2d2d2d2d 	stp	s13, s11, [x9, #-152]
ffff000000090518:	2d2d2d2d 	stp	s13, s11, [x9, #-152]
ffff00000009051c:	2d2d2d2d 	stp	s13, s11, [x9, #-152]
ffff000000090520:	7375202d 	.inst	0x7375202d ; undefined
ffff000000090524:	705f7265 	adr	x5, ffff00000014f373 <__heap_start+0xb9373>
ffff000000090528:	74656761 	.inst	0x74656761 ; undefined
ffff00000009052c:	656c6261 	fnmls	z1.h, p0/m, z19.h, z12.h
ffff000000090530:	7465735f 	.inst	0x7465735f ; undefined
ffff000000090534:	202c7075 	.inst	0x202c7075 ; undefined
ffff000000090538:	7070616d 	adr	x13, ffff000000171167 <__heap_start+0xdb167>
ffff00000009053c:	20676e69 	.inst	0x20676e69 ; undefined
ffff000000090540:	63617473 	.inst	0x63617473 ; undefined
ffff000000090544:	6573206b 	fmls	z11.h, p0/m, z3.h, z19.h
ffff000000090548:	6f697463 	uqshl	v3.2d, v3.2d, #41
ffff00000009054c:	2d2d206e 	stp	s14, s8, [x3, #-152]
ffff000000090550:	2d2d2d2d 	stp	s13, s11, [x9, #-152]
ffff000000090554:	2d2d2d2d 	stp	s13, s11, [x9, #-152]
ffff000000090558:	2d2d2d2d 	stp	s13, s11, [x9, #-152]
ffff00000009055c:	2d2d2d2d 	stp	s13, s11, [x9, #-152]
ffff000000090560:	00002d2d 	udf	#11565
ffff000000090564:	00000000 	udf	#0
ffff000000090568:	20200a0d 	.inst	0x20200a0d ; undefined
ffff00000009056c:	69662020 	ldpsw	x0, x8, [x1, #-208]
ffff000000090570:	6120646e 	.inst	0x6120646e ; undefined
ffff000000090574:	6c617620 	ldnp	d0, d29, [x17, #-496]
ffff000000090578:	74206469 	.inst	0x74206469 ; undefined
ffff00000009057c:	656c6261 	fnmls	z1.h, p0/m, z19.h, z12.h
ffff000000090580:	20746120 	.inst	0x20746120 ; undefined
ffff000000090584:	00000000 	udf	#0
ffff000000090588:	20200a0d 	.inst	0x20200a0d ; undefined
ffff00000009058c:	69662020 	ldpsw	x0, x8, [x1, #-208]
ffff000000090590:	6120646e 	.inst	0x6120646e ; undefined
ffff000000090594:	6c617620 	ldnp	d0, d29, [x17, #-496]
ffff000000090598:	65206469 	.inst	0x65206469 ; undefined
ffff00000009059c:	7972746e 	ldrh	w14, [x3, #6458]
	...
ffff0000000905a8:	6d5b0a0d 	ldp	d13, d2, [x16, #432]
ffff0000000905ac:	205d756d 	.inst	0x205d756d ; undefined
ffff0000000905b0:	79706f63 	ldrh	w3, [x27, #6198]
ffff0000000905b4:	646c6f20 	.inst	0x646c6f20 ; undefined
ffff0000000905b8:	67617020 	.inst	0x67617020 ; undefined
ffff0000000905bc:	61742065 	.inst	0x61742065 ; undefined
ffff0000000905c0:	20656c62 	.inst	0x20656c62 ; undefined
ffff0000000905c4:	00000000 	udf	#0
ffff0000000905c8:	206f7420 	.inst	0x206f7420 ; undefined
ffff0000000905cc:	2077656e 	.inst	0x2077656e ; undefined
ffff0000000905d0:	65676170 	fnmls	z16.h, p0/m, z11.h, z7.h
ffff0000000905d4:	62617420 	.inst	0x62617420 ; undefined
ffff0000000905d8:	0020656c 	.inst	0x0020656c ; NYI
ffff0000000905dc:	00000000 	udf	#0
ffff0000000905e0:	565b0a0d 	.inst	0x565b0a0d ; undefined
ffff0000000905e4:	4f545f41 	.inst	0x4f545f41 ; undefined
ffff0000000905e8:	5f41505f 	.inst	0x5f41505f ; undefined
ffff0000000905ec:	52455355 	.inst	0x52455355 ; undefined
ffff0000000905f0:	5245205d 	.inst	0x5245205d ; undefined
ffff0000000905f4:	3a524f52 	.inst	0x3a524f52 ; undefined
ffff0000000905f8:	766e6920 	.inst	0x766e6920 ; undefined
ffff0000000905fc:	64696c61 	.inst	0x64696c61 ; undefined
ffff000000090600:	45545020 	ssubwb	z0.h, z1.h, z20.b
ffff000000090604:	726f6620 	.inst	0x726f6620 ; undefined
ffff000000090608:	20415620 	.inst	0x20415620 ; undefined
ffff00000009060c:	0000203d 	udf	#8253
ffff000000090610:	645b0a0d 	fcmla	z13.h, p2/m, z16.h, z27.h, #0
ffff000000090614:	67756265 	.inst	0x67756265 ; undefined
ffff000000090618:	4156205d 	.inst	0x4156205d ; undefined
ffff00000009061c:	70616d20 	adr	x0, ffff0000001533c3 <__heap_start+0xbd3c3>
ffff000000090620:	676e6970 	.inst	0x676e6970 ; undefined
ffff000000090624:	61727420 	.inst	0x61727420 ; undefined
ffff000000090628:	003a6563 	.inst	0x003a6563 ; NYI
ffff00000009062c:	00000000 	udf	#0
ffff000000090630:	20200a0d 	.inst	0x20200a0d ; undefined
ffff000000090634:	3d204156 	str	b22, [x10, #2064]
ffff000000090638:	00000020 	udf	#32
ffff00000009063c:	00000000 	udf	#0
ffff000000090640:	20200a0d 	.inst	0x20200a0d ; undefined
ffff000000090644:	20646770 	.inst	0x20646770 ; undefined
ffff000000090648:	20786469 	.inst	0x20786469 ; undefined
ffff00000009064c:	0000203d 	udf	#8253
ffff000000090650:	6e65202c 	usubl2	v12.4s, v1.8h, v5.8h
ffff000000090654:	20797274 	.inst	0x20797274 ; undefined
ffff000000090658:	0000203d 	udf	#8253
ffff00000009065c:	00000000 	udf	#0
ffff000000090660:	20200a0d 	.inst	0x20200a0d ; undefined
ffff000000090664:	20647570 	.inst	0x20647570 ; undefined
ffff000000090668:	20786469 	.inst	0x20786469 ; undefined
ffff00000009066c:	0000203d 	udf	#8253
ffff000000090670:	20200a0d 	.inst	0x20200a0d ; undefined
ffff000000090674:	20646d70 	.inst	0x20646d70 ; undefined
ffff000000090678:	20786469 	.inst	0x20786469 ; undefined
ffff00000009067c:	0000203d 	udf	#8253
ffff000000090680:	20200a0d 	.inst	0x20200a0d ; undefined
ffff000000090684:	20657470 	.inst	0x20657470 ; undefined
ffff000000090688:	20786469 	.inst	0x20786469 ; undefined
ffff00000009068c:	0000203d 	udf	#8253

ffff000000090690 <pool_sizes>:
ffff000000090690:	00000010 	udf	#16
ffff000000090694:	00000020 	udf	#32
ffff000000090698:	00000030 	udf	#48
ffff00000009069c:	00000060 	udf	#96
ffff0000000906a0:	00000400 	udf	#1024
ffff0000000906a4:	00000000 	udf	#0

ffff0000000906a8 <pool_slots>:
ffff0000000906a8:	00000100 	udf	#256
ffff0000000906ac:	00000080 	udf	#128
ffff0000000906b0:	00000055 	udf	#85
ffff0000000906b4:	0000002a 	udf	#42
ffff0000000906b8:	00000004 	udf	#4
ffff0000000906bc:	00000000 	udf	#0
ffff0000000906c0:	735b0a0d 	.inst	0x735b0a0d ; undefined
ffff0000000906c4:	74726174 	.inst	0x74726174 ; undefined
ffff0000000906c8:	6d207075 	stp	d21, d28, [x3, #-512]
ffff0000000906cc:	205d6d65 	.inst	0x205d6d65 ; undefined
ffff0000000906d0:	72617473 	.inst	0x72617473 ; undefined
ffff0000000906d4:	20707574 	.inst	0x20707574 ; undefined
ffff0000000906d8:	6f6d656d 	sqshlu	v13.2d, v11.2d, #45
ffff0000000906dc:	61207972 	.inst	0x61207972 ; undefined
ffff0000000906e0:	636f6c6c 	.inst	0x636f6c6c ; undefined
ffff0000000906e4:	6e697461 	uabd	v1.8h, v3.8h, v9.8h
ffff0000000906e8:	2e2e2e67 	uqsub	v7.8b, v19.8b, v14.8b
ffff0000000906ec:	00000000 	udf	#0
ffff0000000906f0:	20200a0d 	.inst	0x20200a0d ; undefined
ffff0000000906f4:	74732020 	.inst	0x74732020 ; undefined
ffff0000000906f8:	75747261 	.inst	0x75747261 ; undefined
ffff0000000906fc:	6c615f70 	ldnp	d16, d23, [x27, #-496]
ffff000000090700:	5f636f6c 	.inst	0x5f636f6c ; undefined
ffff000000090704:	65736162 	fnmls	z2.h, p0/m, z11.h, z19.h
ffff000000090708:	00203d20 	.inst	0x00203d20 ; NYI
ffff00000009070c:	00000000 	udf	#0
ffff000000090710:	20200a0d 	.inst	0x20200a0d ; undefined
ffff000000090714:	74732020 	.inst	0x74732020 ; undefined
ffff000000090718:	75747261 	.inst	0x75747261 ; undefined
ffff00000009071c:	6c615f70 	ldnp	d16, d23, [x27, #-496]
ffff000000090720:	5f636f6c 	.inst	0x5f636f6c ; undefined
ffff000000090724:	20646e65 	.inst	0x20646e65 ; undefined
ffff000000090728:	0000203d 	udf	#8253
ffff00000009072c:	00000000 	udf	#0
ffff000000090730:	735b0a0d 	.inst	0x735b0a0d ; undefined
ffff000000090734:	74726174 	.inst	0x74726174 ; undefined
ffff000000090738:	6d207075 	stp	d21, d28, [x3, #-512]
ffff00000009073c:	205d6d65 	.inst	0x205d6d65 ; undefined
ffff000000090740:	70616568 	adr	x8, ffff0000001533ef <__heap_start+0xbd3ef>
ffff000000090744:	6174735f 	.inst	0x6174735f ; undefined
ffff000000090748:	615f7472 	.inst	0x615f7472 ; undefined
ffff00000009074c:	20726464 	.inst	0x20726464 ; undefined
ffff000000090750:	20202020 	.inst	0x20202020 ; undefined
ffff000000090754:	20202020 	.inst	0x20202020 ; undefined
ffff000000090758:	203d2020 	.inst	0x203d2020 ; undefined
ffff00000009075c:	00000000 	udf	#0
ffff000000090760:	735b0a0d 	.inst	0x735b0a0d ; undefined
ffff000000090764:	74726174 	.inst	0x74726174 ; undefined
ffff000000090768:	6d207075 	stp	d21, d28, [x3, #-512]
ffff00000009076c:	205d6d65 	.inst	0x205d6d65 ; undefined
ffff000000090770:	5f746567 	.inst	0x5f746567 ; undefined
ffff000000090774:	72617473 	.inst	0x72617473 ; undefined
ffff000000090778:	5f707574 	sqshl	d20, d11, #48
ffff00000009077c:	72727563 	.inst	0x72727563 ; undefined
ffff000000090780:	5f746e65 	.inst	0x5f746e65 ; undefined
ffff000000090784:	28727470 	ldnp	w16, w29, [x3, #-112]
ffff000000090788:	203d2029 	.inst	0x203d2029 ; undefined
ffff00000009078c:	00000000 	udf	#0
ffff000000090790:	735b0a0d 	.inst	0x735b0a0d ; undefined
ffff000000090794:	74726174 	.inst	0x74726174 ; undefined
ffff000000090798:	6d207075 	stp	d21, d28, [x3, #-512]
ffff00000009079c:	205d6d65 	.inst	0x205d6d65 ; undefined
ffff0000000907a0:	6e72656b 	umax	v11.8h, v11.8h, v18.8h
ffff0000000907a4:	31206c65 	adds	w5, w3, #0x81b
ffff0000000907a8:	6820424d 	.inst	0x6820424d ; undefined
ffff0000000907ac:	20706165 	.inst	0x20706165 ; undefined
ffff0000000907b0:	72617473 	.inst	0x72617473 ; undefined
ffff0000000907b4:	20202074 	.inst	0x20202074 ; undefined
ffff0000000907b8:	203d2020 	.inst	0x203d2020 ; undefined
ffff0000000907bc:	00000000 	udf	#0
ffff0000000907c0:	735b0a0d 	.inst	0x735b0a0d ; undefined
ffff0000000907c4:	74726174 	.inst	0x74726174 ; undefined
ffff0000000907c8:	6d207075 	stp	d21, d28, [x3, #-512]
ffff0000000907cc:	205d6d65 	.inst	0x205d6d65 ; undefined
ffff0000000907d0:	4f525245 	.inst	0x4f525245 ; undefined
ffff0000000907d4:	49203a52 	.inst	0x49203a52 ; undefined
ffff0000000907d8:	6c61766e 	ldnp	d14, d29, [x19, #-496]
ffff0000000907dc:	53206469 	.inst	0x53206469 ; undefined
ffff0000000907e0:	28657a69 	ldnp	w9, w30, [x19, #-216]
ffff0000000907e4:	6465656e 	.inst	0x6465656e ; undefined
ffff0000000907e8:	736f7020 	.inst	0x736f7020 ; undefined
ffff0000000907ec:	76697469 	.inst	0x76697469 ; undefined
ffff0000000907f0:	6e692065 	usubl2	v5.4s, v3.8h, v9.8h
ffff0000000907f4:	65676574 	fnmls	z20.h, p1/m, z11.h, z7.h
ffff0000000907f8:	00002972 	udf	#10610
ffff0000000907fc:	00000000 	udf	#0
ffff000000090800:	735b0a0d 	.inst	0x735b0a0d ; undefined
ffff000000090804:	74726174 	.inst	0x74726174 ; undefined
ffff000000090808:	6d207075 	stp	d21, d28, [x3, #-512]
ffff00000009080c:	205d6d65 	.inst	0x205d6d65 ; undefined
ffff000000090810:	4f525245 	.inst	0x4f525245 ; undefined
ffff000000090814:	4f203a52 	.inst	0x4f203a52 ; undefined
ffff000000090818:	6f207475 	uqshl	v21.4s, v3.4s, #0
ffff00000009081c:	656d2066 	fmls	z6.h, p0/m, z3.h, z13.h
ffff000000090820:	79726f6d 	ldrh	w13, [x27, #6454]
ffff000000090824:	00000021 	udf	#33

ffff000000090828 <pool_sizes>:
ffff000000090828:	00000010 	udf	#16
ffff00000009082c:	00000020 	udf	#32
ffff000000090830:	00000030 	udf	#48
ffff000000090834:	00000060 	udf	#96
ffff000000090838:	00000400 	udf	#1024
ffff00000009083c:	00000000 	udf	#0

ffff000000090840 <pool_slots>:
ffff000000090840:	00000100 	udf	#256
ffff000000090844:	00000080 	udf	#128
ffff000000090848:	00000055 	udf	#85
ffff00000009084c:	0000002a 	udf	#42
ffff000000090850:	00000004 	udf	#4
ffff000000090854:	00000000 	udf	#0
ffff000000090858:	735b0a0d 	.inst	0x735b0a0d ; undefined
ffff00000009085c:	61637379 	.inst	0x61637379 ; undefined
ffff000000090860:	205d6c6c 	.inst	0x205d6c6c ; undefined
ffff000000090864:	63737953 	.inst	0x63737953 ; undefined
ffff000000090868:	206c6c61 	.inst	0x206c6c61 ; undefined
ffff00000009086c:	206d756e 	.inst	0x206d756e ; undefined
ffff000000090870:	0000203d 	udf	#8253
ffff000000090874:	00000000 	udf	#0
ffff000000090878:	59532820 	.inst	0x59532820 ; undefined
ffff00000009087c:	45475f53 	usubwt	z19.h, z26.h, z7.b
ffff000000090880:	44495054 	smlslb	z20.h, z2.b, z9.b
ffff000000090884:	00000029 	udf	#41
ffff000000090888:	59532820 	.inst	0x59532820 ; undefined
ffff00000009088c:	41555f53 	.inst	0x41555f53 ; undefined
ffff000000090890:	525f5452 	.inst	0x525f5452 ; undefined
ffff000000090894:	29444145 	ldp	w5, w16, [x10, #32]
	...
ffff0000000908a0:	59532820 	.inst	0x59532820 ; undefined
ffff0000000908a4:	41555f53 	.inst	0x41555f53 ; undefined
ffff0000000908a8:	575f5452 	.inst	0x575f5452 ; undefined
ffff0000000908ac:	45544952 	uaddwb	z18.h, z10.h, z20.b
ffff0000000908b0:	00000029 	udf	#41
ffff0000000908b4:	00000000 	udf	#0
ffff0000000908b8:	59532820 	.inst	0x59532820 ; undefined
ffff0000000908bc:	58455f53 	ldr	x19, ffff00000011b4a4 <__heap_start+0x854a4>
ffff0000000908c0:	00294345 	.inst	0x00294345 ; NYI
ffff0000000908c4:	00000000 	udf	#0
ffff0000000908c8:	59532820 	.inst	0x59532820 ; undefined
ffff0000000908cc:	4f465f53 	.inst	0x4f465f53 ; undefined
ffff0000000908d0:	00294b52 	.inst	0x00294b52 ; NYI
ffff0000000908d4:	00000000 	udf	#0
ffff0000000908d8:	59532820 	.inst	0x59532820 ; undefined
ffff0000000908dc:	58455f53 	ldr	x19, ffff00000011b4c4 <__heap_start+0x854c4>
ffff0000000908e0:	00295449 	.inst	0x00295449 ; NYI
ffff0000000908e4:	00000000 	udf	#0
ffff0000000908e8:	59532820 	.inst	0x59532820 ; undefined
ffff0000000908ec:	424d5f53 	.inst	0x424d5f53 ; undefined
ffff0000000908f0:	435f584f 	.inst	0x435f584f ; undefined
ffff0000000908f4:	294c4c41 	ldp	w1, w19, [x2, #96]
	...
ffff000000090900:	59532820 	.inst	0x59532820 ; undefined
ffff000000090904:	494b5f53 	.inst	0x494b5f53 ; undefined
ffff000000090908:	00294c4c 	.inst	0x00294c4c ; NYI
ffff00000009090c:	00000000 	udf	#0
ffff000000090910:	59532820 	.inst	0x59532820 ; undefined
ffff000000090914:	49535f53 	.inst	0x49535f53 ; undefined
ffff000000090918:	4c414e47 	.inst	0x4c414e47 ; undefined
ffff00000009091c:	00000029 	udf	#41
ffff000000090920:	59532820 	.inst	0x59532820 ; undefined
ffff000000090924:	49535f53 	.inst	0x49535f53 ; undefined
ffff000000090928:	4c414e47 	.inst	0x4c414e47 ; undefined
ffff00000009092c:	4c494b5f 	.inst	0x4c494b5f ; undefined
ffff000000090930:	0000294c 	udf	#10572
ffff000000090934:	00000000 	udf	#0
ffff000000090938:	59532820 	.inst	0x59532820 ; undefined
ffff00000009093c:	49535f53 	.inst	0x49535f53 ; undefined
ffff000000090940:	54455247 	b.vc	ffff00000011b388 <__heap_start+0x85388>
ffff000000090944:	294e5255 	ldp	w21, w20, [x18, #112]
	...
ffff000000090950:	4e552820 	trn1	v0.8h, v1.8h, v21.8h
ffff000000090954:	574f4e4b 	.inst	0x574f4e4b ; undefined
ffff000000090958:	0000294e 	udf	#10574
ffff00000009095c:	00000000 	udf	#0
ffff000000090960:	6163202c 	.inst	0x6163202c ; undefined
ffff000000090964:	72656c6c 	.inst	0x72656c6c ; undefined
ffff000000090968:	64697020 	.inst	0x64697020 ; undefined
ffff00000009096c:	00203d20 	.inst	0x00203d20 ; NYI
ffff000000090970:	735b0a0d 	.inst	0x735b0a0d ; undefined
ffff000000090974:	61637379 	.inst	0x61637379 ; undefined
ffff000000090978:	205d6c6c 	.inst	0x205d6c6c ; undefined
ffff00000009097c:	69676552 	ldpsw	x18, x25, [x10, #-200]
ffff000000090980:	72657473 	.inst	0x72657473 ; undefined
ffff000000090984:	73206465 	.inst	0x73206465 ; undefined
ffff000000090988:	616e6769 	.inst	0x616e6769 ; undefined
ffff00000009098c:	6168206c 	.inst	0x6168206c ; undefined
ffff000000090990:	656c646e 	fnmls	z14.h, p1/m, z3.h, z12.h
ffff000000090994:	6f662072 	umlal2	v18.4s, v3.8h, v6.h[2]
ffff000000090998:	69732072 	ldpsw	x18, x8, [x3, #-104]
ffff00000009099c:	6c616e67 	ldnp	d7, d27, [x19, #-496]
ffff0000000909a0:	00000020 	udf	#32
ffff0000000909a4:	00000000 	udf	#0
ffff0000000909a8:	735b0a0d 	.inst	0x735b0a0d ; undefined
ffff0000000909ac:	61637379 	.inst	0x61637379 ; undefined
ffff0000000909b0:	205d6c6c 	.inst	0x205d6c6c ; undefined
ffff0000000909b4:	646e6573 	.inst	0x646e6573 ; undefined
ffff0000000909b8:	67697320 	.inst	0x67697320 ; undefined
ffff0000000909bc:	206c616e 	.inst	0x206c616e ; undefined
	...
ffff0000000909c8:	206f7420 	.inst	0x206f7420 ; undefined
ffff0000000909cc:	20646974 	.inst	0x20646974 ; undefined
	...
ffff0000000909d8:	735b0a0d 	.inst	0x735b0a0d ; undefined
ffff0000000909dc:	61637379 	.inst	0x61637379 ; undefined
ffff0000000909e0:	205d6c6c 	.inst	0x205d6c6c ; undefined
ffff0000000909e4:	72676973 	.inst	0x72676973 ; undefined
ffff0000000909e8:	72757465 	.inst	0x72757465 ; undefined
ffff0000000909ec:	72203a6e 	ands	w14, w19, #0x7fff
ffff0000000909f0:	6f747365 	fcmla	v5.8h, v27.8h, v20.h[1], #270
ffff0000000909f4:	676e6972 	.inst	0x676e6972 ; undefined
ffff0000000909f8:	6e6f6320 	rsubhn2	v0.8h, v25.4s, v15.4s
ffff0000000909fc:	74786574 	.inst	0x74786574 ; undefined
	...
ffff000000090a08:	735b0a0d 	.inst	0x735b0a0d ; undefined
ffff000000090a0c:	61637379 	.inst	0x61637379 ; undefined
ffff000000090a10:	205d6c6c 	.inst	0x205d6c6c ; undefined
ffff000000090a14:	6e6b6e55 	umin	v21.8h, v18.8h, v11.8h
ffff000000090a18:	206e776f 	.inst	0x206e776f ; undefined
ffff000000090a1c:	63737973 	.inst	0x63737973 ; undefined
ffff000000090a20:	206c6c61 	.inst	0x206c6c61 ; undefined
ffff000000090a24:	626d756e 	.inst	0x626d756e ; undefined
ffff000000090a28:	203a7265 	.inst	0x203a7265 ; undefined
ffff000000090a2c:	00000000 	udf	#0
ffff000000090a30:	735b0a0d 	.inst	0x735b0a0d ; undefined
ffff000000090a34:	61637379 	.inst	0x61637379 ; undefined
ffff000000090a38:	205d6c6c 	.inst	0x205d6c6c ; undefined
ffff000000090a3c:	5f737973 	sqdmlsl	s19, h11, v3.h[7]
ffff000000090a40:	63657865 	.inst	0x63657865 ; undefined
ffff000000090a44:	72617720 	.inst	0x72617720 ; undefined
ffff000000090a48:	72657070 	.inst	0x72657070 ; undefined
ffff000000090a4c:	00000020 	udf	#32
ffff000000090a50:	735b0a0d 	.inst	0x735b0a0d ; undefined
ffff000000090a54:	61637379 	.inst	0x61637379 ; undefined
ffff000000090a58:	205d6c6c 	.inst	0x205d6c6c ; undefined
ffff000000090a5c:	5f737973 	sqdmlsl	s19, h11, v3.h[7]
ffff000000090a60:	786f626d 	ldumaxlh	w15, w13, [x19]
ffff000000090a64:	6c61635f 	ldnp	d31, d24, [x26, #-496]
ffff000000090a68:	6177206c 	.inst	0x6177206c ; undefined
ffff000000090a6c:	65707072 	fnmls	z18.h, p4/m, z3.h, z16.h
ffff000000090a70:	00002072 	udf	#8306
ffff000000090a74:	00000000 	udf	#0

ffff000000090a78 <pool_sizes>:
ffff000000090a78:	00000010 	udf	#16
ffff000000090a7c:	00000020 	udf	#32
ffff000000090a80:	00000030 	udf	#48
ffff000000090a84:	00000060 	udf	#96
ffff000000090a88:	00000400 	udf	#1024
ffff000000090a8c:	00000000 	udf	#0

ffff000000090a90 <pool_slots>:
ffff000000090a90:	00000100 	udf	#256
ffff000000090a94:	00000080 	udf	#128
ffff000000090a98:	00000055 	udf	#85
ffff000000090a9c:	0000002a 	udf	#42
ffff000000090aa0:	00000004 	udf	#4
ffff000000090aa4:	00000000 	udf	#0
ffff000000090aa8:	20200a0d 	.inst	0x20200a0d ; undefined
ffff000000090aac:	3d3d2020 	str	b0, [x1, #3912]
ffff000000090ab0:	203d3d3d 	.inst	0x203d3d3d ; undefined
ffff000000090ab4:	64616552 	.inst	0x64616552 ; undefined
ffff000000090ab8:	75512079 	.inst	0x75512079 ; undefined
ffff000000090abc:	20657565 	.inst	0x20657565 ; undefined
ffff000000090ac0:	706d7544 	adr	x4, ffff00000016b96b <__heap_start+0xd596b>
ffff000000090ac4:	3d3d3d20 	str	b0, [x9, #3919]
ffff000000090ac8:	00003d3d 	udf	#15677
ffff000000090acc:	00000000 	udf	#0
ffff000000090ad0:	20200a0d 	.inst	0x20200a0d ; undefined
ffff000000090ad4:	72502020 	.inst	0x72502020 ; undefined
ffff000000090ad8:	69726f69 	ldpsw	x9, x27, [x27, #-112]
ffff000000090adc:	00207974 	.inst	0x00207974 ; NYI
ffff000000090ae0:	0000203a 	udf	#8250
ffff000000090ae4:	00000000 	udf	#0
ffff000000090ae8:	3d646974 	ldr	b20, [x11, #2330]
ffff000000090aec:	00000000 	udf	#0
ffff000000090af0:	203e2d20 	.inst	0x203e2d20 ; undefined
ffff000000090af4:	00000000 	udf	#0
ffff000000090af8:	20200a0d 	.inst	0x20200a0d ; undefined
ffff000000090afc:	3d3d2020 	str	b0, [x1, #3912]
ffff000000090b00:	3d3d3d3d 	str	b29, [x9, #3919]
ffff000000090b04:	3d3d3d3d 	str	b29, [x9, #3919]
ffff000000090b08:	3d3d3d3d 	str	b29, [x9, #3919]
ffff000000090b0c:	3d3d3d3d 	str	b29, [x9, #3919]
ffff000000090b10:	3d3d3d3d 	str	b29, [x9, #3919]
ffff000000090b14:	3d3d3d3d 	str	b29, [x9, #3919]
ffff000000090b18:	003d3d3d 	.inst	0x003d3d3d ; NYI
ffff000000090b1c:	00000000 	udf	#0
ffff000000090b20:	505b0a0d 	adr	x13, ffff000000146c62 <__heap_start+0xb0c62>
ffff000000090b24:	43494e41 	.inst	0x43494e41 ; undefined
ffff000000090b28:	6e69205d 	usubl2	v29.4s, v2.8h, v9.8h
ffff000000090b2c:	696c6176 	ldpsw	x22, x24, [x11, #-160]
ffff000000090b30:	74732064 	.inst	0x74732064 ; undefined
ffff000000090b34:	206b6361 	.inst	0x206b6361 ; undefined
ffff000000090b38:	6e696f70 	umin	v16.8h, v27.8h, v9.8h
ffff000000090b3c:	00726574 	.inst	0x00726574 ; undefined
ffff000000090b40:	505b0a0d 	adr	x13, ffff000000146c82 <__heap_start+0xb0c82>
ffff000000090b44:	43494e41 	.inst	0x43494e41 ; undefined
ffff000000090b48:	756e205d 	.inst	0x756e205d ; undefined
ffff000000090b4c:	74206c6c 	.inst	0x74206c6c ; undefined
ffff000000090b50:	61657268 	.inst	0x61657268 ; undefined
ffff000000090b54:	69672064 	ldpsw	x4, x8, [x3, #-200]
ffff000000090b58:	206e6576 	.inst	0x206e6576 ; undefined
ffff000000090b5c:	73206f74 	.inst	0x73206f74 ; undefined
ffff000000090b60:	63746977 	.inst	0x63746977 ; undefined
ffff000000090b64:	00000068 	udf	#104
ffff000000090b68:	505b0a0d 	adr	x13, ffff000000146caa <__heap_start+0xb0caa>
ffff000000090b6c:	43494e41 	.inst	0x43494e41 ; undefined
ffff000000090b70:	6974205d 	ldpsw	x29, x8, [x2, #-96]
ffff000000090b74:	00002064 	udf	#8292
ffff000000090b78:	76616820 	.inst	0x76616820 ; undefined
ffff000000090b7c:	6e692065 	usubl2	v5.4s, v3.8h, v9.8h
ffff000000090b80:	696c6176 	ldpsw	x22, x24, [x11, #-160]
ffff000000090b84:	70732064 	adr	x4, ffff000000176f93 <__heap_start+0xe0f93>
ffff000000090b88:	0000203a 	udf	#8250
ffff000000090b8c:	00000000 	udf	#0
ffff000000090b90:	505b0a0d 	adr	x13, ffff000000146cd2 <__heap_start+0xb0cd2>
ffff000000090b94:	43494e41 	.inst	0x43494e41 ; undefined
ffff000000090b98:	6176205d 	.inst	0x6176205d ; undefined
ffff000000090b9c:	6164696c 	.inst	0x6164696c ; undefined
ffff000000090ba0:	725f6574 	.inst	0x725f6574 ; undefined
ffff000000090ba4:	79646165 	ldrh	w5, [x11, #4656]
ffff000000090ba8:	6575715f 	fnmls	z31.h, p4/m, z10.h, z21.h
ffff000000090bac:	203a6575 	.inst	0x203a6575 ; undefined
ffff000000090bb0:	666c6573 	.inst	0x666c6573 ; undefined
ffff000000090bb4:	6f6f6c2d 	.inst	0x6f6f6c2d ; undefined
ffff000000090bb8:	65642070 	fmls	z16.h, p0/m, z3.h, z4.h
ffff000000090bbc:	74636574 	.inst	0x74636574 ; undefined
ffff000000090bc0:	61206465 	.inst	0x61206465 ; undefined
ffff000000090bc4:	72702074 	.inst	0x72702074 ; undefined
ffff000000090bc8:	69726f69 	ldpsw	x9, x27, [x27, #-112]
ffff000000090bcc:	00207974 	.inst	0x00207974 ; NYI
ffff000000090bd0:	6974202c 	ldpsw	x12, x8, [x1, #-96]
ffff000000090bd4:	00002064 	udf	#8292
ffff000000090bd8:	505b0a0d 	adr	x13, ffff000000146d1a <__heap_start+0xb0d1a>
ffff000000090bdc:	43494e41 	.inst	0x43494e41 ; undefined
ffff000000090be0:	6176205d 	.inst	0x6176205d ; undefined
ffff000000090be4:	6164696c 	.inst	0x6164696c ; undefined
ffff000000090be8:	725f6574 	.inst	0x725f6574 ; undefined
ffff000000090bec:	79646165 	ldrh	w5, [x11, #4656]
ffff000000090bf0:	6575715f 	fnmls	z31.h, p4/m, z10.h, z21.h
ffff000000090bf4:	203a6575 	.inst	0x203a6575 ; undefined
ffff000000090bf8:	61766e69 	.inst	0x61766e69 ; undefined
ffff000000090bfc:	2064696c 	.inst	0x2064696c ; undefined
ffff000000090c00:	6e696f70 	umin	v16.8h, v27.8h, v9.8h
ffff000000090c04:	20726574 	.inst	0x20726574 ; undefined
	...
ffff000000090c10:	20746120 	.inst	0x20746120 ; undefined
ffff000000090c14:	6f697270 	fcmla	v16.8h, v19.8h, v9.h[1], #270
ffff000000090c18:	79746972 	ldrh	w18, [x11, #6708]
ffff000000090c1c:	00000020 	udf	#32
ffff000000090c20:	505b0a0d 	adr	x13, ffff000000146d62 <__heap_start+0xb0d62>
ffff000000090c24:	43494e41 	.inst	0x43494e41 ; undefined
ffff000000090c28:	6176205d 	.inst	0x6176205d ; undefined
ffff000000090c2c:	6164696c 	.inst	0x6164696c ; undefined
ffff000000090c30:	725f6574 	.inst	0x725f6574 ; undefined
ffff000000090c34:	79646165 	ldrh	w5, [x11, #4656]
ffff000000090c38:	6575715f 	fnmls	z31.h, p4/m, z10.h, z21.h
ffff000000090c3c:	203a6575 	.inst	0x203a6575 ; undefined
ffff000000090c40:	6b6f7262 	.inst	0x6b6f7262 ; undefined
ffff000000090c44:	74206e65 	.inst	0x74206e65 ; undefined
ffff000000090c48:	61657268 	.inst	0x61657268 ; undefined
ffff000000090c4c:	20745f64 	.inst	0x20745f64 ; undefined
ffff000000090c50:	75727473 	.inst	0x75727473 ; undefined
ffff000000090c54:	72757463 	.inst	0x72757463 ; undefined
ffff000000090c58:	74612065 	.inst	0x74612065 ; undefined
ffff000000090c5c:	69727020 	ldpsw	x0, x28, [x1, #-112]
ffff000000090c60:	7469726f 	.inst	0x7469726f ; undefined
ffff000000090c64:	00002079 	udf	#8313
ffff000000090c68:	505b0a0d 	adr	x13, ffff000000146daa <__heap_start+0xb0daa>
ffff000000090c6c:	43494e41 	.inst	0x43494e41 ; undefined
ffff000000090c70:	6176205d 	.inst	0x6176205d ; undefined
ffff000000090c74:	6164696c 	.inst	0x6164696c ; undefined
ffff000000090c78:	725f6574 	.inst	0x725f6574 ; undefined
ffff000000090c7c:	79646165 	ldrh	w5, [x11, #4656]
ffff000000090c80:	6575715f 	fnmls	z31.h, p4/m, z10.h, z21.h
ffff000000090c84:	203a6575 	.inst	0x203a6575 ; undefined
ffff000000090c88:	206f6f74 	.inst	0x206f6f74 ; undefined
ffff000000090c8c:	796e616d 	ldrh	w13, [x11, #5936]
ffff000000090c90:	646f6e20 	.inst	0x646f6e20 ; undefined
ffff000000090c94:	61207365 	.inst	0x61207365 ; undefined
ffff000000090c98:	72702074 	.inst	0x72702074 ; undefined
ffff000000090c9c:	69726f69 	ldpsw	x9, x27, [x27, #-112]
ffff000000090ca0:	00207974 	.inst	0x00207974 ; NYI
ffff000000090ca4:	00000000 	udf	#0
ffff000000090ca8:	20200a0d 	.inst	0x20200a0d ; undefined
ffff000000090cac:	2d2d2d2d 	stp	s13, s11, [x9, #-152]
ffff000000090cb0:	2d2d2d2d 	stp	s13, s11, [x9, #-152]
ffff000000090cb4:	2d2d2d2d 	stp	s13, s11, [x9, #-152]
ffff000000090cb8:	2d2d2d2d 	stp	s13, s11, [x9, #-152]
ffff000000090cbc:	2d2d2d2d 	stp	s13, s11, [x9, #-152]
ffff000000090cc0:	72687420 	.inst	0x72687420 ; undefined
ffff000000090cc4:	20646165 	.inst	0x20646165 ; undefined
ffff000000090cc8:	61657263 	.inst	0x61657263 ; undefined
ffff000000090ccc:	2d206574 	stp	s20, s25, [x11, #-256]
ffff000000090cd0:	2d2d2d2d 	stp	s13, s11, [x9, #-152]
ffff000000090cd4:	2d2d2d2d 	stp	s13, s11, [x9, #-152]
ffff000000090cd8:	2d2d2d2d 	stp	s13, s11, [x9, #-152]
ffff000000090cdc:	2d2d2d2d 	stp	s13, s11, [x9, #-152]
ffff000000090ce0:	002d2d2d 	.inst	0x002d2d2d ; NYI
ffff000000090ce4:	00000000 	udf	#0
ffff000000090ce8:	755b0a0d 	.inst	0x755b0a0d ; undefined
ffff000000090cec:	65726874 	fnmls	z20.h, p2/m, z3.h, z18.h
ffff000000090cf0:	635f6461 	.inst	0x635f6461 ; undefined
ffff000000090cf4:	74616572 	.inst	0x74616572 ; undefined
ffff000000090cf8:	46205d65 	.inst	0x46205d65 ; undefined
ffff000000090cfc:	656c6961 	fnmls	z1.h, p2/m, z11.h, z12.h
ffff000000090d00:	6f742064 	umlal2	v4.4s, v3.8h, v4.h[3]
ffff000000090d04:	65786520 	fnmls	z0.h, p1/m, z9.h, z24.h
ffff000000090d08:	73752063 	.inst	0x73752063 ; undefined
ffff000000090d0c:	69207265 	stgp	x5, x28, [x19, #-1024]
ffff000000090d10:	6567616d 	fnmls	z13.h, p0/m, z11.h, z7.h
ffff000000090d14:	00000000 	udf	#0
ffff000000090d18:	745b0a0d 	.inst	0x745b0a0d ; undefined
ffff000000090d1c:	61657268 	.inst	0x61657268 ; undefined
ffff000000090d20:	74205d64 	.inst	0x74205d64 ; undefined
ffff000000090d24:	61657268 	.inst	0x61657268 ; undefined
ffff000000090d28:	72632064 	.inst	0x72632064 ; undefined
ffff000000090d2c:	65746165 	fnmls	z5.h, p0/m, z11.h, z20.h
ffff000000090d30:	6974202c 	ldpsw	x12, x8, [x1, #-96]
ffff000000090d34:	00003d64 	udf	#15716
ffff000000090d38:	7270202c 	.inst	0x7270202c ; undefined
ffff000000090d3c:	69726f69 	ldpsw	x9, x27, [x27, #-112]
ffff000000090d40:	003d7974 	.inst	0x003d7974 ; NYI
ffff000000090d44:	00000000 	udf	#0
ffff000000090d48:	7566202c 	.inst	0x7566202c ; undefined
ffff000000090d4c:	003d636e 	.inst	0x003d636e ; NYI
ffff000000090d50:	7073202c 	adr	x12, ffff000000177157 <__heap_start+0xe1157>
ffff000000090d54:	0000003d 	udf	#61
ffff000000090d58:	7473202c 	.inst	0x7473202c ; undefined
ffff000000090d5c:	206b6361 	.inst	0x206b6361 ; undefined
ffff000000090d60:	65736162 	fnmls	z2.h, p0/m, z11.h, z19.h
ffff000000090d64:	0000003d 	udf	#61
ffff000000090d68:	7375202c 	.inst	0x7375202c ; undefined
ffff000000090d6c:	73207265 	.inst	0x73207265 ; undefined
ffff000000090d70:	6b636174 	.inst	0x6b636174 ; undefined
ffff000000090d74:	73616220 	.inst	0x73616220 ; undefined
ffff000000090d78:	00003d65 	udf	#15717
ffff000000090d7c:	00000000 	udf	#0
ffff000000090d80:	7375202c 	.inst	0x7375202c ; undefined
ffff000000090d84:	73207265 	.inst	0x73207265 ; undefined
ffff000000090d88:	00003d70 	udf	#15728
ffff000000090d8c:	00000000 	udf	#0
ffff000000090d90:	33323130 	.inst	0x33323130 ; undefined
ffff000000090d94:	37363534 	tbnz	w20, #6, ffff00000008d438 <error_invalid_el1h+0x30>
ffff000000090d98:	42413938 	.inst	0x42413938 ; undefined
ffff000000090d9c:	46454443 	.inst	0x46454443 ; undefined
	...
ffff000000090da8:	2d2d0a0d 	stp	s13, s2, [x16, #-152]
ffff000000090dac:	2d2d2d2d 	stp	s13, s11, [x9, #-152]
ffff000000090db0:	2d2d2d2d 	stp	s13, s11, [x9, #-152]
ffff000000090db4:	732d2d2d 	.inst	0x732d2d2d ; undefined
ffff000000090db8:	74726174 	.inst	0x74726174 ; undefined
ffff000000090dbc:	6e757220 	uabdl2	v0.4s, v17.8h, v21.8h
ffff000000090dc0:	676e696e 	.inst	0x676e696e ; undefined
ffff000000090dc4:	706f6320 	adr	x0, ffff00000016fa2b <__heap_start+0xd9a2b>
ffff000000090dc8:	73755f79 	.inst	0x73755f79 ; undefined
ffff000000090dcc:	705f7265 	adr	x5, ffff00000014fc1b <__heap_start+0xb9c1b>
ffff000000090dd0:	74656761 	.inst	0x74656761 ; undefined
ffff000000090dd4:	656c6261 	fnmls	z1.h, p0/m, z19.h, z12.h
ffff000000090dd8:	2d2d2d20 	stp	s0, s11, [x9, #-152]
ffff000000090ddc:	2d2d2d2d 	stp	s13, s11, [x9, #-152]
	...
ffff000000090de8:	745b0a0d 	.inst	0x745b0a0d ; undefined
ffff000000090dec:	61657268 	.inst	0x61657268 ; undefined
ffff000000090df0:	66205d64 	.inst	0x66205d64 ; undefined
ffff000000090df4:	656b726f 	fnmls	z15.h, p4/m, z19.h, z11.h
ffff000000090df8:	70202c64 	adr	x4, ffff0000000d1387 <__heap_start+0x3b387>
ffff000000090dfc:	6e657261 	uabdl2	v1.4s, v19.8h, v5.8h
ffff000000090e00:	69742074 	ldpsw	x20, x8, [x3, #-96]
ffff000000090e04:	00003d64 	udf	#15716
ffff000000090e08:	6863202c 	.inst	0x6863202c ; undefined
ffff000000090e0c:	20646c69 	.inst	0x20646c69 ; undefined
ffff000000090e10:	3d646974 	ldr	b20, [x11, #2330]
ffff000000090e14:	00000000 	udf	#0
ffff000000090e18:	745b0a0d 	.inst	0x745b0a0d ; undefined
ffff000000090e1c:	61657268 	.inst	0x61657268 ; undefined
ffff000000090e20:	696b5f64 	ldpsw	x4, x23, [x27, #-168]
ffff000000090e24:	205d6c6c 	.inst	0x205d6c6c ; undefined
ffff000000090e28:	4f525245 	.inst	0x4f525245 ; undefined
ffff000000090e2c:	63203a52 	.inst	0x63203a52 ; undefined
ffff000000090e30:	6f6e6e61 	.inst	0x6f6e6e61 ; undefined
ffff000000090e34:	696b2074 	ldpsw	x20, x8, [x3, #-168]
ffff000000090e38:	73206c6c 	.inst	0x73206c6c ; undefined
ffff000000090e3c:	2c666c65 	ldnp	s5, s27, [x3, #-208]
ffff000000090e40:	64697420 	.inst	0x64697420 ; undefined
ffff000000090e44:	0000003d 	udf	#61
ffff000000090e48:	745b0a0d 	.inst	0x745b0a0d ; undefined
ffff000000090e4c:	61657268 	.inst	0x61657268 ; undefined
ffff000000090e50:	696b5f64 	ldpsw	x4, x23, [x27, #-168]
ffff000000090e54:	205d6c6c 	.inst	0x205d6c6c ; undefined
ffff000000090e58:	4f525245 	.inst	0x4f525245 ; undefined
ffff000000090e5c:	74203a52 	.inst	0x74203a52 ; undefined
ffff000000090e60:	61657268 	.inst	0x61657268 ; undefined
ffff000000090e64:	6f6e2064 	umlal2	v4.4s, v3.8h, v14.h[2]
ffff000000090e68:	6f662074 	umlal2	v20.4s, v3.8h, v6.h[2]
ffff000000090e6c:	2c646e75 	ldnp	s21, s27, [x19, #-224]
ffff000000090e70:	64697420 	.inst	0x64697420 ; undefined
ffff000000090e74:	0000003d 	udf	#61
ffff000000090e78:	745b0a0d 	.inst	0x745b0a0d ; undefined
ffff000000090e7c:	61657268 	.inst	0x61657268 ; undefined
ffff000000090e80:	696b5f64 	ldpsw	x4, x23, [x27, #-168]
ffff000000090e84:	205d6c6c 	.inst	0x205d6c6c ; undefined
ffff000000090e88:	43435553 	.inst	0x43435553 ; undefined
ffff000000090e8c:	3a535345 	ccmn	w26, w19, #0x5, pl  // pl = nfrst
ffff000000090e90:	6c696b20 	ldnp	d0, d26, [x25, #-368]
ffff000000090e94:	2064656c 	.inst	0x2064656c ; undefined
ffff000000090e98:	3d646974 	ldr	b20, [x11, #2330]
ffff000000090e9c:	00000000 	udf	#0
ffff000000090ea0:	656b6177 	fnmls	z23.h, p0/m, z11.h, z11.h
ffff000000090ea4:	635f7075 	.inst	0x635f7075 ; undefined
ffff000000090ea8:	626c6c61 	.inst	0x626c6c61 ; undefined
ffff000000090eac:	006b6361 	.inst	0x006b6361 ; undefined
ffff000000090eb0:	745b0a0d 	.inst	0x745b0a0d ; undefined
ffff000000090eb4:	61657268 	.inst	0x61657268 ; undefined
ffff000000090eb8:	73205d64 	.inst	0x73205d64 ; undefined
ffff000000090ebc:	64656863 	.inst	0x64656863 ; undefined
ffff000000090ec0:	5f656c75 	.inst	0x5f656c75 ; undefined
ffff000000090ec4:	706d6f63 	adr	x3, ffff00000016bcb3 <__heap_start+0xd5cb3>
ffff000000090ec8:	6574656c 	fnmls	z12.h, p1/m, z11.h, z20.h
ffff000000090ecc:	6f6e202c 	umlal2	v12.4s, v1.8h, v14.h[2]
ffff000000090ed0:	61657220 	.inst	0x61657220 ; undefined
ffff000000090ed4:	74207964 	.inst	0x74207964 ; undefined
ffff000000090ed8:	61657268 	.inst	0x61657268 ; undefined
ffff000000090edc:	6b202c64 	subs	w4, w3, w0, uxth #3
ffff000000090ee0:	20706565 	.inst	0x20706565 ; undefined
ffff000000090ee4:	656c6469 	fnmls	z9.h, p1/m, z3.h, z12.h
ffff000000090ee8:	00000020 	udf	#32
ffff000000090eec:	00000000 	udf	#0
ffff000000090ef0:	505b0a0d 	adr	x13, ffff000000147032 <__heap_start+0xb1032>
ffff000000090ef4:	43494e41 	.inst	0x43494e41 ; undefined
ffff000000090ef8:	6f4e205d 	umlal2	v29.4s, v2.8h, v14.h[0]
ffff000000090efc:	41455220 	.inst	0x41455220 ; undefined
ffff000000090f00:	74205944 	.inst	0x74205944 ; undefined
ffff000000090f04:	206b7361 	.inst	0x206b7361 ; undefined
ffff000000090f08:	20646e61 	.inst	0x20646e61 ; undefined
ffff000000090f0c:	20746f6e 	.inst	0x20746f6e ; undefined
ffff000000090f10:	69206e69 	stgp	x9, x27, [x19, #-1024]
ffff000000090f14:	21656c64 	.inst	0x21656c64 ; undefined
ffff000000090f18:	6e69202c 	usubl2	v12.4s, v1.8h, v9.8h
ffff000000090f1c:	3d207469 	str	b9, [x3, #2077]
ffff000000090f20:	00000020 	udf	#32
ffff000000090f24:	00000000 	udf	#0
ffff000000090f28:	745b0a0d 	.inst	0x745b0a0d ; undefined
ffff000000090f2c:	61657268 	.inst	0x61657268 ; undefined
ffff000000090f30:	73205d64 	.inst	0x73205d64 ; undefined
ffff000000090f34:	64656863 	.inst	0x64656863 ; undefined
ffff000000090f38:	5f656c75 	.inst	0x5f656c75 ; undefined
ffff000000090f3c:	706d6f63 	adr	x3, ffff00000016bd2b <__heap_start+0xd5d2b>
ffff000000090f40:	6574656c 	fnmls	z12.h, p1/m, z11.h, z20.h
ffff000000090f44:	6f66202c 	umlal2	v12.4s, v1.8h, v6.h[2]
ffff000000090f48:	74206d72 	.inst	0x74206d72 ; undefined
ffff000000090f4c:	00206469 	.inst	0x00206469 ; NYI
ffff000000090f50:	206f7420 	.inst	0x206f7420 ; undefined
ffff000000090f54:	20646974 	.inst	0x20646974 ; undefined
	...
ffff000000090f60:	656e202c 	fmls	z12.h, p0/m, z1.h, z14.h
ffff000000090f64:	3e2d7478 	.inst	0x3e2d7478 ; undefined
ffff000000090f68:	6e72656b 	umax	v11.8h, v11.8h, v18.8h
ffff000000090f6c:	735f6c65 	.inst	0x735f6c65 ; undefined
ffff000000090f70:	203d2070 	.inst	0x203d2070 ; undefined
ffff000000090f74:	00000000 	udf	#0
ffff000000090f78:	656e202c 	fmls	z12.h, p0/m, z1.h, z14.h
ffff000000090f7c:	3e2d7478 	.inst	0x3e2d7478 ; undefined
ffff000000090f80:	72657375 	.inst	0x72657375 ; undefined
ffff000000090f84:	6761705f 	.inst	0x6761705f ; undefined
ffff000000090f88:	62617465 	.inst	0x62617465 ; undefined
ffff000000090f8c:	203d656c 	.inst	0x203d656c ; undefined
	...
ffff000000090f98:	6770202c 	.inst	0x6770202c ; undefined
ffff000000090f9c:	61705f64 	.inst	0x61705f64 ; undefined
ffff000000090fa0:	00203d20 	.inst	0x00203d20 ; NYI
ffff000000090fa4:	00000000 	udf	#0
ffff000000090fa8:	65657270 	fnmls	z16.h, p4/m, z19.h, z5.h
ffff000000090fac:	5f74706d 	sqdmlsl	s13, h3, v4.h[3]
ffff000000090fb0:	6c6c6163 	ldnp	d3, d24, [x11, #-320]
ffff000000090fb4:	6b636162 	.inst	0x6b636162 ; undefined
	...
ffff000000090fc0:	445b0a0d 	sqdmlalbt	z13.h, z16.b, z27.b
ffff000000090fc4:	47554245 	.inst	0x47554245 ; undefined
ffff000000090fc8:	6b73205d 	.inst	0x6b73205d ; undefined
ffff000000090fcc:	6d207069 	stp	d9, d28, [x3, #-512]
ffff000000090fd0:	5f65766f 	sqshl	d15, d19, #37
ffff000000090fd4:	725f6f74 	.inst	0x725f6f74 ; undefined
ffff000000090fd8:	79646165 	ldrh	w5, [x11, #4656]
ffff000000090fdc:	6575715f 	fnmls	z31.h, p4/m, z10.h, z21.h
ffff000000090fe0:	745f6575 	.inst	0x745f6575 ; undefined
ffff000000090fe4:	206c6961 	.inst	0x206c6961 ; undefined
ffff000000090fe8:	61636562 	.inst	0x61636562 ; undefined
ffff000000090fec:	20657375 	.inst	0x20657375 ; undefined
ffff000000090ff0:	76657270 	.inst	0x76657270 ; undefined
ffff000000090ff4:	20736920 	.inst	0x20736920 ; undefined
ffff000000090ff8:	20746f6e 	.inst	0x20746f6e ; undefined
ffff000000090ffc:	44414552 	smlalt	z18.h, z10.b, z1.b
ffff000000091000:	74202c59 	.inst	0x74202c59 ; undefined
ffff000000091004:	003d6469 	.inst	0x003d6469 ; NYI
ffff000000091008:	505b0a0d 	adr	x13, ffff00000014714a <__heap_start+0xb114a>
ffff00000009100c:	43494e41 	.inst	0x43494e41 ; undefined
ffff000000091010:	6f4e205d 	umlal2	v29.4s, v2.8h, v14.h[0]
ffff000000091014:	41455220 	.inst	0x41455220 ; undefined
ffff000000091018:	74205944 	.inst	0x74205944 ; undefined
ffff00000009101c:	206b7361 	.inst	0x206b7361 ; undefined
ffff000000091020:	20646e61 	.inst	0x20646e61 ; undefined
ffff000000091024:	20746f6e 	.inst	0x20746f6e ; undefined
ffff000000091028:	69206e69 	stgp	x9, x27, [x19, #-1024]
ffff00000009102c:	21656c64 	.inst	0x21656c64 ; undefined
	...
ffff000000091038:	745b0a0d 	.inst	0x745b0a0d ; undefined
ffff00000009103c:	61657268 	.inst	0x61657268 ; undefined
ffff000000091040:	69205d64 	stgp	x4, x23, [x11, #-1024]
ffff000000091044:	206f746e 	.inst	0x206f746e ; undefined
ffff000000091048:	656c6469 	fnmls	z9.h, p1/m, z3.h, z12.h
ffff00000009104c:	73617420 	.inst	0x73617420 ; undefined
ffff000000091050:	0000006b 	udf	#107
ffff000000091054:	00000000 	udf	#0

ffff000000091058 <pool_sizes>:
ffff000000091058:	00000010 	udf	#16
ffff00000009105c:	00000020 	udf	#32
ffff000000091060:	00000030 	udf	#48
ffff000000091064:	00000060 	udf	#96
ffff000000091068:	00000400 	udf	#1024
ffff00000009106c:	00000000 	udf	#0

ffff000000091070 <pool_slots>:
ffff000000091070:	00000100 	udf	#256
ffff000000091074:	00000080 	udf	#128
ffff000000091078:	00000055 	udf	#85
ffff00000009107c:	0000002a 	udf	#42
ffff000000091080:	00000004 	udf	#4
ffff000000091084:	00000000 	udf	#0
ffff000000091088:	665b0a0d 	.inst	0x665b0a0d ; undefined
ffff00000009108c:	205d6f6f 	.inst	0x205d6f6f ; undefined
ffff000000091090:	65726854 	fnmls	z20.h, p2/m, z2.h, z18.h
ffff000000091094:	69206461 	stgp	x1, x25, [x3, #-1024]
ffff000000091098:	00203a64 	.inst	0x00203a64 ; NYI
ffff00000009109c:	00000000 	udf	#0
ffff0000000910a0:	0023202c 	.inst	0x0023202c ; NYI
ffff0000000910a4:	00000000 	udf	#0

ffff0000000910a8 <pool_sizes>:
ffff0000000910a8:	00000010 	udf	#16
ffff0000000910ac:	00000020 	udf	#32
ffff0000000910b0:	00000030 	udf	#48
ffff0000000910b4:	00000060 	udf	#96
ffff0000000910b8:	00000400 	udf	#1024
ffff0000000910bc:	00000000 	udf	#0

ffff0000000910c0 <pool_slots>:
ffff0000000910c0:	00000100 	udf	#256
ffff0000000910c4:	00000080 	udf	#128
ffff0000000910c8:	00000055 	udf	#85
ffff0000000910cc:	0000002a 	udf	#42
ffff0000000910d0:	00000004 	udf	#4
ffff0000000910d4:	00000000 	udf	#0
ffff0000000910d8:	745b0a0d 	.inst	0x745b0a0d ; undefined
ffff0000000910dc:	72656d69 	.inst	0x72656d69 ; undefined
ffff0000000910e0:	6573205d 	fmls	z29.h, p0/m, z2.h, z19.h
ffff0000000910e4:	78632074 	ldeorlh	w3, w20, [x3]
ffff0000000910e8:	20777374 	.inst	0x20777374 ; undefined
ffff0000000910ec:	69726570 	ldpsw	x16, x25, [x11, #-112]
ffff0000000910f0:	203a646f 	.inst	0x203a646f ; undefined
ffff0000000910f4:	45524f43 	uaddwt	z3.h, z26.h, z18.b
ffff0000000910f8:	4552465f 	saddwt	z31.h, z18.h, z18.b
ffff0000000910fc:	00003d51 	udf	#15697
ffff000000091100:	6e69202c 	usubl2	v12.4s, v1.8h, v9.8h
ffff000000091104:	76726574 	.inst	0x76726574 ; undefined
ffff000000091108:	745f6c61 	.inst	0x745f6c61 ; undefined
ffff00000009110c:	3d6b6369 	ldr	b9, [x27, #2776]
	...
ffff000000091118:	6974202c 	ldpsw	x12, x8, [x1, #-96]
ffff00000009111c:	756f656d 	.inst	0x756f656d ; undefined
ffff000000091120:	736d5f74 	.inst	0x736d5f74 ; undefined
ffff000000091124:	0000003d 	udf	#61
ffff000000091128:	65657270 	fnmls	z16.h, p4/m, z19.h, z5.h
ffff00000009112c:	5f74706d 	sqdmlsl	s13, h3, v4.h[3]
ffff000000091130:	6c6c6163 	ldnp	d3, d24, [x11, #-320]
ffff000000091134:	6b636162 	.inst	0x6b636162 ; undefined
	...
ffff000000091140:	455b0a0d 	uaddlb	z13.h, z16.b, z27.b
ffff000000091144:	524f5252 	.inst	0x524f5252 ; undefined
ffff000000091148:	6f4e205d 	umlal2	v29.4s, v2.8h, v14.h[0]
ffff00000009114c:	726f6d20 	.inst	0x726f6d20 ; undefined
ffff000000091150:	69742065 	ldpsw	x5, x8, [x3, #-96]
ffff000000091154:	2072656d 	.inst	0x2072656d ; undefined
ffff000000091158:	746f6c73 	.inst	0x746f6c73 ; undefined
ffff00000009115c:	00000073 	udf	#115
ffff000000091160:	656d6974 	fnmls	z20.h, p2/m, z11.h, z13.h
ffff000000091164:	5f74756f 	sqshl	d15, d11, #52
ffff000000091168:	6c6c6163 	ldnp	d3, d24, [x11, #-320]
ffff00000009116c:	6b636162 	.inst	0x6b636162 ; undefined
ffff000000091170:	676f6c5f 	.inst	0x676f6c5f ; undefined
ffff000000091174:	00000000 	udf	#0
ffff000000091178:	656b6177 	fnmls	z23.h, p0/m, z11.h, z11.h
ffff00000009117c:	635f7075 	.inst	0x635f7075 ; undefined
ffff000000091180:	626c6c61 	.inst	0x626c6c61 ; undefined
ffff000000091184:	006b6361 	.inst	0x006b6361 ; undefined
ffff000000091188:	745b0a0d 	.inst	0x745b0a0d ; undefined
ffff00000009118c:	72656d69 	.inst	0x72656d69 ; undefined
ffff000000091190:	6553205d 	.inst	0x6553205d ; undefined
ffff000000091194:	646e6f63 	.inst	0x646e6f63 ; undefined
ffff000000091198:	66612073 	.inst	0x66612073 ; undefined
ffff00000009119c:	20726574 	.inst	0x20726574 ; undefined
ffff0000000911a0:	746f6f62 	.inst	0x746f6f62 ; undefined
ffff0000000911a4:	3a676e69 	.inst	0x3a676e69 ; undefined
ffff0000000911a8:	00000020 	udf	#32
ffff0000000911ac:	00000000 	udf	#0

ffff0000000911b0 <pool_sizes>:
ffff0000000911b0:	00000010 	udf	#16
ffff0000000911b4:	00000020 	udf	#32
ffff0000000911b8:	00000030 	udf	#48
ffff0000000911bc:	00000060 	udf	#96
ffff0000000911c0:	00000400 	udf	#1024
ffff0000000911c4:	00000000 	udf	#0

ffff0000000911c8 <pool_slots>:
ffff0000000911c8:	00000100 	udf	#256
ffff0000000911cc:	00000080 	udf	#128
ffff0000000911d0:	00000055 	udf	#85
ffff0000000911d4:	0000002a 	udf	#42
ffff0000000911d8:	00000004 	udf	#4
ffff0000000911dc:	00000000 	udf	#0
ffff0000000911e0:	505b0a0d 	adr	x13, ffff000000147322 <__heap_start+0xb1322>
ffff0000000911e4:	43494e41 	.inst	0x43494e41 ; undefined
ffff0000000911e8:	6177205d 	.inst	0x6177205d ; undefined
ffff0000000911ec:	29287469 	stp	w9, w29, [x3, #-192]
ffff0000000911f0:	6e69202c 	usubl2	v12.4s, v1.8h, v9.8h
ffff0000000911f4:	696c6176 	ldpsw	x22, x24, [x11, #-160]
ffff0000000911f8:	68742064 	.inst	0x68742064 ; undefined
ffff0000000911fc:	64617265 	.inst	0x64617265 ; undefined
ffff000000091200:	0000745f 	udf	#29791
ffff000000091204:	00000000 	udf	#0
ffff000000091208:	505b0a0d 	adr	x13, ffff00000014734a <__heap_start+0xb134a>
ffff00000009120c:	43494e41 	.inst	0x43494e41 ; undefined
ffff000000091210:	6177205d 	.inst	0x6177205d ; undefined
ffff000000091214:	29287469 	stp	w9, w29, [x3, #-192]
ffff000000091218:	766e6920 	.inst	0x766e6920 ; undefined
ffff00000009121c:	64696c61 	.inst	0x64696c61 ; undefined
ffff000000091220:	65687420 	fnmls	z0.h, p5/m, z1.h, z8.h
ffff000000091224:	20646172 	.inst	0x20646172 ; undefined
ffff000000091228:	74617473 	.inst	0x74617473 ; undefined
ffff00000009122c:	202c7375 	.inst	0x202c7375 ; undefined
ffff000000091230:	733e2d74 	.inst	0x733e2d74 ; undefined
ffff000000091234:	75746174 	.inst	0x75746174 ; undefined
ffff000000091238:	3d202073 	str	b19, [x3, #2056]
ffff00000009123c:	00000020 	udf	#32
ffff000000091240:	6974202c 	ldpsw	x12, x8, [x1, #-96]
ffff000000091244:	203d2064 	.inst	0x203d2064 ; undefined
	...
ffff000000091250:	505b0a0d 	adr	x13, ffff000000147392 <__heap_start+0xb1392>
ffff000000091254:	43494e41 	.inst	0x43494e41 ; undefined
ffff000000091258:	6973205d 	ldpsw	x29, x8, [x2, #-104]
ffff00000009125c:	6c616e67 	ldnp	d7, d27, [x19, #-496]
ffff000000091260:	77202928 	.inst	0x77202928 ; undefined
ffff000000091264:	20656b6f 	.inst	0x20656b6f ; undefined
ffff000000091268:	6e207075 	uabdl2	v21.8h, v3.16b, v0.16b
ffff00000009126c:	772d6e6f 	.inst	0x772d6e6f ; undefined
ffff000000091270:	69746961 	ldpsw	x1, x26, [x11, #-96]
ffff000000091274:	7420676e 	.inst	0x7420676e ; undefined
ffff000000091278:	61657268 	.inst	0x61657268 ; undefined
ffff00000009127c:	69742064 	ldpsw	x4, x8, [x3, #-96]
ffff000000091280:	00003d64 	udf	#15716
ffff000000091284:	00000000 	udf	#0
ffff000000091288:	2d74202c 	ldp	s12, s8, [x1, #-96]
ffff00000009128c:	6174733e 	.inst	0x6174733e ; undefined
ffff000000091290:	3d737574 	ldr	b20, [x11, #3293]
	...

Disassembly of section .eh_frame:

ffff000000091298 <.eh_frame>:
ffff000000091298:	00000010 	udf	#16
ffff00000009129c:	00000000 	udf	#0
ffff0000000912a0:	00527a01 	.inst	0x00527a01 ; undefined
ffff0000000912a4:	011e7804 	.inst	0x011e7804 ; undefined
ffff0000000912a8:	001f0c1b 	.inst	0x001f0c1b ; undefined
ffff0000000912ac:	0000001c 	udf	#28
ffff0000000912b0:	00000018 	udf	#24
ffff0000000912b4:	fffeee64 	.inst	0xfffeee64 ; undefined
ffff0000000912b8:	0000008c 	udf	#140
ffff0000000912bc:	300e4100 	adr	x0, ffff0000000adadd <__heap_start+0x17add>
ffff0000000912c0:	059e069d 	mov	z29.s, p14/z, #52
ffff0000000912c4:	0eddde61 	.inst	0x0eddde61 ; undefined
ffff0000000912c8:	00000000 	udf	#0
ffff0000000912cc:	00000014 	udf	#20
ffff0000000912d0:	00000038 	udf	#56
ffff0000000912d4:	fffeeed0 	.inst	0xfffeeed0 ; undefined
ffff0000000912d8:	0000001c 	udf	#28
ffff0000000912dc:	100e4100 	adr	x0, ffff0000000adafc <__heap_start+0x17afc>
ffff0000000912e0:	00000e45 	udf	#3653
ffff0000000912e4:	00000014 	udf	#20
ffff0000000912e8:	00000050 	udf	#80
ffff0000000912ec:	fffeeed4 	.inst	0xfffeeed4 ; undefined
ffff0000000912f0:	0000001c 	udf	#28
ffff0000000912f4:	100e4100 	adr	x0, ffff0000000adb14 <__heap_start+0x17b14>
ffff0000000912f8:	00000e45 	udf	#3653
ffff0000000912fc:	00000014 	udf	#20
ffff000000091300:	00000068 	udf	#104
ffff000000091304:	fffeeed8 	.inst	0xfffeeed8 ; undefined
ffff000000091308:	00000024 	udf	#36
ffff00000009130c:	100e4100 	adr	x0, ffff0000000adb2c <__heap_start+0x17b2c>
ffff000000091310:	00000e47 	udf	#3655
ffff000000091314:	00000014 	udf	#20
ffff000000091318:	00000080 	udf	#128
ffff00000009131c:	fffeeee4 	.inst	0xfffeeee4 ; undefined
ffff000000091320:	00000068 	udf	#104
ffff000000091324:	200e4100 	.inst	0x200e4100 ; undefined
ffff000000091328:	00000e58 	udf	#3672
ffff00000009132c:	0000001c 	udf	#28
ffff000000091330:	00000098 	udf	#152
ffff000000091334:	fffeef34 	.inst	0xfffeef34 ; undefined
ffff000000091338:	00000040 	udf	#64
ffff00000009133c:	300e4100 	adr	x0, ffff0000000adb5d <__heap_start+0x17b5d>
ffff000000091340:	059e069d 	mov	z29.s, p14/z, #52
ffff000000091344:	0eddde4e 	.inst	0x0eddde4e ; undefined
ffff000000091348:	00000000 	udf	#0
ffff00000009134c:	0000001c 	udf	#28
ffff000000091350:	000000b8 	udf	#184
ffff000000091354:	fffeef54 	.inst	0xfffeef54 ; undefined
ffff000000091358:	000000dc 	udf	#220
ffff00000009135c:	400e4100 	.inst	0x400e4100 ; undefined
ffff000000091360:	079e089d 	.inst	0x079e089d ; undefined
ffff000000091364:	0eddde75 	.inst	0x0eddde75 ; undefined
ffff000000091368:	00000000 	udf	#0
ffff00000009136c:	00000014 	udf	#20
ffff000000091370:	000000d8 	udf	#216
ffff000000091374:	fffef010 	.inst	0xfffef010 ; undefined
ffff000000091378:	000000a4 	udf	#164
ffff00000009137c:	200e4100 	.inst	0x200e4100 ; undefined
ffff000000091380:	00000e67 	udf	#3687
ffff000000091384:	0000001c 	udf	#28
ffff000000091388:	000000f0 	udf	#240
ffff00000009138c:	fffef09c 	.inst	0xfffef09c ; undefined
ffff000000091390:	00000104 	udf	#260
ffff000000091394:	300e4100 	adr	x0, ffff0000000adbb5 <__heap_start+0x17bb5>
ffff000000091398:	059e069d 	mov	z29.s, p14/z, #52
ffff00000009139c:	0eddde7f 	.inst	0x0eddde7f ; undefined
ffff0000000913a0:	00000000 	udf	#0
ffff0000000913a4:	0000001c 	udf	#28
ffff0000000913a8:	00000110 	udf	#272
ffff0000000913ac:	fffef180 	.inst	0xfffef180 ; undefined
ffff0000000913b0:	00000190 	udf	#400
ffff0000000913b4:	400e4100 	.inst	0x400e4100 ; undefined
ffff0000000913b8:	079e089d 	.inst	0x079e089d ; undefined
ffff0000000913bc:	ddde6202 	.inst	0xddde6202 ; undefined
ffff0000000913c0:	0000000e 	udf	#14
ffff0000000913c4:	0000001c 	udf	#28
ffff0000000913c8:	00000130 	udf	#304
ffff0000000913cc:	fffef2f0 	.inst	0xfffef2f0 ; undefined
ffff0000000913d0:	000002a8 	udf	#680
ffff0000000913d4:	500e4100 	adr	x0, ffff0000000adbf6 <__heap_start+0x17bf6>
ffff0000000913d8:	099e0a9d 	.inst	0x099e0a9d ; undefined
ffff0000000913dc:	dddea802 	.inst	0xdddea802 ; undefined
ffff0000000913e0:	0000000e 	udf	#14
ffff0000000913e4:	0000001c 	udf	#28
ffff0000000913e8:	00000150 	udf	#336
ffff0000000913ec:	fffef578 	.inst	0xfffef578 ; undefined
ffff0000000913f0:	000001f4 	udf	#500
ffff0000000913f4:	400e4100 	.inst	0x400e4100 ; undefined
ffff0000000913f8:	079e089d 	.inst	0x079e089d ; undefined
ffff0000000913fc:	ddde7b02 	.inst	0xddde7b02 ; undefined
ffff000000091400:	0000000e 	udf	#14
ffff000000091404:	0000001c 	udf	#28
ffff000000091408:	00000170 	udf	#368
ffff00000009140c:	fffef74c 	.inst	0xfffef74c ; undefined
ffff000000091410:	000001c4 	udf	#452
ffff000000091414:	300e4100 	adr	x0, ffff0000000adc35 <__heap_start+0x17c35>
ffff000000091418:	059e069d 	mov	z29.s, p14/z, #52
ffff00000009141c:	ddde6f02 	.inst	0xddde6f02 ; undefined
ffff000000091420:	0000000e 	udf	#14
ffff000000091424:	00000014 	udf	#20
ffff000000091428:	00000190 	udf	#400
ffff00000009142c:	fffef8f0 	.inst	0xfffef8f0 ; undefined
ffff000000091430:	00000040 	udf	#64
ffff000000091434:	100e4100 	adr	x0, ffff0000000adc54 <__heap_start+0x17c54>
ffff000000091438:	00000e4e 	udf	#3662
ffff00000009143c:	0000001c 	udf	#28
ffff000000091440:	000001a8 	udf	#424
ffff000000091444:	fffef918 	.inst	0xfffef918 ; undefined
ffff000000091448:	00000250 	udf	#592
ffff00000009144c:	500e4100 	adr	x0, ffff0000000adc6e <__heap_start+0x17c6e>
ffff000000091450:	099e0a9d 	.inst	0x099e0a9d ; undefined
ffff000000091454:	ddde9202 	.inst	0xddde9202 ; undefined
ffff000000091458:	0000000e 	udf	#14
ffff00000009145c:	0000001c 	udf	#28
ffff000000091460:	000001c8 	udf	#456
ffff000000091464:	fffefb48 	.inst	0xfffefb48 ; undefined
ffff000000091468:	0000003c 	udf	#60
ffff00000009146c:	200e4100 	.inst	0x200e4100 ; undefined
ffff000000091470:	039e049d 	.inst	0x039e049d ; undefined
ffff000000091474:	0eddde4d 	.inst	0x0eddde4d ; undefined
ffff000000091478:	00000000 	udf	#0
ffff00000009147c:	0000001c 	udf	#28
ffff000000091480:	000001e8 	udf	#488
ffff000000091484:	fffefb64 	.inst	0xfffefb64 ; undefined
ffff000000091488:	000000c8 	udf	#200
ffff00000009148c:	200e4100 	.inst	0x200e4100 ; undefined
ffff000000091490:	039e049d 	.inst	0x039e049d ; undefined
ffff000000091494:	0eddde70 	.inst	0x0eddde70 ; undefined
ffff000000091498:	00000000 	udf	#0
ffff00000009149c:	00000020 	udf	#32
ffff0000000914a0:	00000208 	udf	#520
ffff0000000914a4:	fffefc0c 	.inst	0xfffefc0c ; undefined
ffff0000000914a8:	000002f8 	udf	#760
ffff0000000914ac:	500e4100 	adr	x0, ffff0000000adcce <__heap_start+0x17cce>
ffff0000000914b0:	099e0a9d 	.inst	0x099e0a9d ; undefined
ffff0000000914b4:	02089342 	.inst	0x02089342 ; undefined
ffff0000000914b8:	d3dddeba 	.inst	0xd3dddeba ; undefined
ffff0000000914bc:	0000000e 	udf	#14
ffff0000000914c0:	0000001c 	udf	#28
ffff0000000914c4:	0000022c 	udf	#556
ffff0000000914c8:	fffefee0 	.inst	0xfffefee0 ; undefined
ffff0000000914cc:	000000cc 	udf	#204
ffff0000000914d0:	400e4100 	.inst	0x400e4100 ; undefined
ffff0000000914d4:	079e089d 	.inst	0x079e089d ; undefined
ffff0000000914d8:	0eddde71 	.inst	0x0eddde71 ; undefined
ffff0000000914dc:	00000000 	udf	#0
ffff0000000914e0:	00000014 	udf	#20
ffff0000000914e4:	0000024c 	udf	#588
ffff0000000914e8:	fffeff8c 	.inst	0xfffeff8c ; undefined
ffff0000000914ec:	0000012c 	udf	#300
ffff0000000914f0:	200e4100 	.inst	0x200e4100 ; undefined
ffff0000000914f4:	000e4902 	.inst	0x000e4902 ; undefined
ffff0000000914f8:	0000001c 	udf	#28
ffff0000000914fc:	00000264 	udf	#612
ffff000000091500:	ffff00a0 	.inst	0xffff00a0 ; undefined
ffff000000091504:	00000150 	udf	#336
ffff000000091508:	400e4100 	.inst	0x400e4100 ; undefined
ffff00000009150c:	079e089d 	.inst	0x079e089d ; undefined
ffff000000091510:	ddde5202 	.inst	0xddde5202 ; undefined
ffff000000091514:	0000000e 	udf	#14
ffff000000091518:	0000001c 	udf	#28
ffff00000009151c:	00000284 	udf	#644
ffff000000091520:	ffff01d0 	.inst	0xffff01d0 ; undefined
ffff000000091524:	00000060 	udf	#96
ffff000000091528:	300e4100 	adr	x0, ffff0000000add49 <__heap_start+0x17d49>
ffff00000009152c:	059e069d 	mov	z29.s, p14/z, #52
ffff000000091530:	0eddde56 	.inst	0x0eddde56 ; undefined
ffff000000091534:	00000000 	udf	#0
ffff000000091538:	0000001c 	udf	#28
ffff00000009153c:	000002a4 	udf	#676
ffff000000091540:	ffff0210 	.inst	0xffff0210 ; undefined
ffff000000091544:	00000170 	udf	#368
ffff000000091548:	400e4100 	.inst	0x400e4100 ; undefined
ffff00000009154c:	079e089d 	.inst	0x079e089d ; undefined
ffff000000091550:	ddde5a02 	.inst	0xddde5a02 ; undefined
ffff000000091554:	0000000e 	udf	#14
ffff000000091558:	0000001c 	udf	#28
ffff00000009155c:	000002c4 	udf	#708
ffff000000091560:	ffff0360 	.inst	0xffff0360 ; undefined
ffff000000091564:	000001ec 	udf	#492
ffff000000091568:	600e4100 	.inst	0x600e4100 ; undefined
ffff00000009156c:	0b9e0c9d 	add	w29, w4, w30, asr #3
ffff000000091570:	ddde7902 	.inst	0xddde7902 ; undefined
ffff000000091574:	0000000e 	udf	#14
ffff000000091578:	0000001c 	udf	#28
ffff00000009157c:	000002e4 	udf	#740
ffff000000091580:	ffff052c 	.inst	0xffff052c ; undefined
ffff000000091584:	000001a0 	udf	#416
ffff000000091588:	500e4100 	adr	x0, ffff0000000addaa <__heap_start+0x17daa>
ffff00000009158c:	099e0a9d 	.inst	0x099e0a9d ; undefined
ffff000000091590:	ddde6602 	.inst	0xddde6602 ; undefined
ffff000000091594:	0000000e 	udf	#14
ffff000000091598:	0000001c 	udf	#28
ffff00000009159c:	00000304 	udf	#772
ffff0000000915a0:	ffff06ac 	.inst	0xffff06ac ; undefined
ffff0000000915a4:	0000045c 	udf	#1116
ffff0000000915a8:	b00e4100 	adrp	x0, ffff00001c8b2000 <__heap_start+0x1c81c000>
ffff0000000915ac:	9e169d01 	.inst	0x9e169d01 ; undefined
ffff0000000915b0:	01150315 	.inst	0x01150315 ; undefined
ffff0000000915b4:	000eddde 	.inst	0x000eddde ; undefined
ffff0000000915b8:	0000001c 	udf	#28
ffff0000000915bc:	00000324 	udf	#804
ffff0000000915c0:	ffff0ae8 	.inst	0xffff0ae8 ; undefined
ffff0000000915c4:	00000114 	udf	#276
ffff0000000915c8:	300e4100 	adr	x0, ffff0000000adde9 <__heap_start+0x17de9>
ffff0000000915cc:	059e069d 	mov	z29.s, p14/z, #52
ffff0000000915d0:	ddde4302 	.inst	0xddde4302 ; undefined
ffff0000000915d4:	0000000e 	udf	#14
ffff0000000915d8:	00000014 	udf	#20
ffff0000000915dc:	00000344 	udf	#836
ffff0000000915e0:	ffff0bdc 	.inst	0xffff0bdc ; undefined
ffff0000000915e4:	00000180 	udf	#384
ffff0000000915e8:	300e4100 	adr	x0, ffff0000000ade09 <__heap_start+0x17e09>
ffff0000000915ec:	000e5e02 	.inst	0x000e5e02 ; undefined
ffff0000000915f0:	0000001c 	udf	#28
ffff0000000915f4:	0000035c 	udf	#860
ffff0000000915f8:	ffff0d44 	.inst	0xffff0d44 ; undefined
ffff0000000915fc:	0000022c 	udf	#556
ffff000000091600:	800e4100 	.inst	0x800e4100 ; undefined
ffff000000091604:	9e109d01 	.inst	0x9e109d01 ; undefined
ffff000000091608:	de89020f 	.inst	0xde89020f ; undefined
ffff00000009160c:	00000edd 	udf	#3805
ffff000000091610:	0000001c 	udf	#28
ffff000000091614:	0000037c 	udf	#892
ffff000000091618:	ffff0f50 	.inst	0xffff0f50 ; undefined
ffff00000009161c:	00000228 	udf	#552
ffff000000091620:	300e4100 	adr	x0, ffff0000000ade41 <__heap_start+0x17e41>
ffff000000091624:	059e069d 	mov	z29.s, p14/z, #52
ffff000000091628:	ddde8802 	.inst	0xddde8802 ; undefined
ffff00000009162c:	0000000e 	udf	#14
ffff000000091630:	00000014 	udf	#20
ffff000000091634:	0000039c 	udf	#924
ffff000000091638:	ffff1158 	.inst	0xffff1158 ; undefined
ffff00000009163c:	00000058 	udf	#88
ffff000000091640:	200e4100 	.inst	0x200e4100 ; undefined
ffff000000091644:	00000e54 	udf	#3668
ffff000000091648:	0000001c 	udf	#28
ffff00000009164c:	000003b4 	udf	#948
ffff000000091650:	ffff1198 	.inst	0xffff1198 ; undefined
ffff000000091654:	0000048c 	udf	#1164
ffff000000091658:	500e4100 	adr	x0, ffff0000000ade7a <__heap_start+0x17e7a>
ffff00000009165c:	099e0a9d 	.inst	0x099e0a9d ; undefined
ffff000000091660:	de012103 	.inst	0xde012103 ; undefined
ffff000000091664:	00000edd 	udf	#3805
ffff000000091668:	0000001c 	udf	#28
ffff00000009166c:	000003d4 	udf	#980
ffff000000091670:	ffff1604 	.inst	0xffff1604 ; undefined
ffff000000091674:	00000244 	udf	#580
ffff000000091678:	600e4100 	.inst	0x600e4100 ; undefined
ffff00000009167c:	0b9e0c9d 	add	w29, w4, w30, asr #3
ffff000000091680:	ddde8f02 	.inst	0xddde8f02 ; undefined
ffff000000091684:	0000000e 	udf	#14
ffff000000091688:	0000001c 	udf	#28
ffff00000009168c:	000003f4 	udf	#1012
ffff000000091690:	ffff1828 	.inst	0xffff1828 ; undefined
ffff000000091694:	00000108 	udf	#264
ffff000000091698:	200e4100 	.inst	0x200e4100 ; undefined
ffff00000009169c:	039e049d 	.inst	0x039e049d ; undefined
ffff0000000916a0:	ddde4002 	.inst	0xddde4002 ; undefined
ffff0000000916a4:	0000000e 	udf	#14
ffff0000000916a8:	00000010 	udf	#16
ffff0000000916ac:	00000414 	udf	#1044
ffff0000000916b0:	ffff1910 	.inst	0xffff1910 ; undefined
ffff0000000916b4:	00000010 	udf	#16
ffff0000000916b8:	00000000 	udf	#0
ffff0000000916bc:	00000010 	udf	#16
ffff0000000916c0:	00000428 	udf	#1064
ffff0000000916c4:	ffff190c 	.inst	0xffff190c ; undefined
ffff0000000916c8:	00000008 	udf	#8
ffff0000000916cc:	00000000 	udf	#0
ffff0000000916d0:	00000010 	udf	#16
ffff0000000916d4:	0000043c 	udf	#1084
ffff0000000916d8:	ffff1900 	.inst	0xffff1900 ; undefined
ffff0000000916dc:	0000000c 	udf	#12
ffff0000000916e0:	00000000 	udf	#0
ffff0000000916e4:	00000010 	udf	#16
ffff0000000916e8:	00000450 	udf	#1104
ffff0000000916ec:	ffff18f8 	.inst	0xffff18f8 ; undefined
ffff0000000916f0:	0000000c 	udf	#12
ffff0000000916f4:	00000000 	udf	#0
ffff0000000916f8:	0000001c 	udf	#28
ffff0000000916fc:	00000464 	udf	#1124
ffff000000091700:	ffff18f0 	.inst	0xffff18f0 ; undefined
ffff000000091704:	000001d0 	udf	#464
ffff000000091708:	200e4100 	.inst	0x200e4100 ; undefined
ffff00000009170c:	039e049d 	.inst	0x039e049d ; undefined
ffff000000091710:	ddde7202 	.inst	0xddde7202 ; undefined
ffff000000091714:	0000000e 	udf	#14
ffff000000091718:	00000014 	udf	#20
ffff00000009171c:	00000484 	udf	#1156
ffff000000091720:	ffff1aa0 	.inst	0xffff1aa0 ; undefined
ffff000000091724:	00000354 	udf	#852
ffff000000091728:	300e4100 	adr	x0, ffff0000000adf49 <__heap_start+0x17f49>
ffff00000009172c:	059e069d 	mov	z29.s, p14/z, #52
ffff000000091730:	00000014 	udf	#20
ffff000000091734:	0000049c 	udf	#1180
ffff000000091738:	ffff1ddc 	.inst	0xffff1ddc ; undefined
ffff00000009173c:	0000036c 	udf	#876
ffff000000091740:	400e4100 	.inst	0x400e4100 ; undefined
ffff000000091744:	079e089d 	.inst	0x079e089d ; undefined
ffff000000091748:	0000001c 	udf	#28
ffff00000009174c:	000004b4 	udf	#1204
ffff000000091750:	ffff2130 	.inst	0xffff2130 ; undefined
ffff000000091754:	000001bc 	udf	#444
ffff000000091758:	500e4100 	adr	x0, ffff0000000adf7a <__heap_start+0x17f7a>
ffff00000009175c:	099e0a9d 	.inst	0x099e0a9d ; undefined
ffff000000091760:	ddde6d02 	.inst	0xddde6d02 ; undefined
ffff000000091764:	0000000e 	udf	#14
ffff000000091768:	0000001c 	udf	#28
ffff00000009176c:	000004d4 	udf	#1236
ffff000000091770:	ffff22cc 	.inst	0xffff22cc ; undefined
ffff000000091774:	000000e0 	udf	#224
ffff000000091778:	200e4100 	.inst	0x200e4100 ; undefined
ffff00000009177c:	039e049d 	.inst	0x039e049d ; undefined
ffff000000091780:	0eddde76 	.inst	0x0eddde76 ; undefined
ffff000000091784:	00000000 	udf	#0
ffff000000091788:	0000001c 	udf	#28
ffff00000009178c:	000004f4 	udf	#1268
ffff000000091790:	ffff238c 	.inst	0xffff238c ; undefined
ffff000000091794:	000000d4 	udf	#212
ffff000000091798:	200e4100 	.inst	0x200e4100 ; undefined
ffff00000009179c:	039e049d 	.inst	0x039e049d ; undefined
ffff0000000917a0:	0eddde73 	.inst	0x0eddde73 ; undefined
ffff0000000917a4:	00000000 	udf	#0
ffff0000000917a8:	00000014 	udf	#20
ffff0000000917ac:	00000514 	udf	#1300
ffff0000000917b0:	ffff2440 	.inst	0xffff2440 ; undefined
ffff0000000917b4:	000000a4 	udf	#164
ffff0000000917b8:	200e4100 	.inst	0x200e4100 ; undefined
ffff0000000917bc:	00000e67 	udf	#3687
ffff0000000917c0:	0000001c 	udf	#28
ffff0000000917c4:	0000052c 	udf	#1324
ffff0000000917c8:	ffff24cc 	.inst	0xffff24cc ; undefined
ffff0000000917cc:	000000f4 	udf	#244
ffff0000000917d0:	a00e4100 	.inst	0xa00e4100 ; undefined
ffff0000000917d4:	9e149d01 	.inst	0x9e149d01 ; undefined
ffff0000000917d8:	ddde7b13 	.inst	0xddde7b13 ; undefined
ffff0000000917dc:	0000000e 	udf	#14
ffff0000000917e0:	0000001c 	udf	#28
ffff0000000917e4:	0000054c 	udf	#1356
ffff0000000917e8:	ffff25a0 	.inst	0xffff25a0 ; undefined
ffff0000000917ec:	00000094 	udf	#148
ffff0000000917f0:	a00e4100 	.inst	0xa00e4100 ; undefined
ffff0000000917f4:	9e149d01 	.inst	0x9e149d01 ; undefined
ffff0000000917f8:	ddde6313 	.inst	0xddde6313 ; undefined
ffff0000000917fc:	0000000e 	udf	#14
ffff000000091800:	0000001c 	udf	#28
ffff000000091804:	0000056c 	udf	#1388
ffff000000091808:	ffff2614 	.inst	0xffff2614 ; undefined
ffff00000009180c:	00000214 	udf	#532
ffff000000091810:	c00e4100 	.inst	0xc00e4100 ; undefined
ffff000000091814:	9e189d01 	fcvtzs	x1, s8, #25
ffff000000091818:	de830217 	.inst	0xde830217 ; undefined
ffff00000009181c:	00000edd 	udf	#3805
ffff000000091820:	00000014 	udf	#20
ffff000000091824:	0000058c 	udf	#1420
ffff000000091828:	ffff2808 	.inst	0xffff2808 ; undefined
ffff00000009182c:	00000060 	udf	#96
ffff000000091830:	300e4100 	adr	x0, ffff0000000ae051 <__heap_start+0x18051>
ffff000000091834:	00000e56 	udf	#3670
ffff000000091838:	0000001c 	udf	#28
ffff00000009183c:	000005a4 	udf	#1444
ffff000000091840:	ffff2850 	.inst	0xffff2850 ; undefined
ffff000000091844:	000002d8 	udf	#728
ffff000000091848:	b00e4100 	adrp	x0, ffff00001c8b2000 <__heap_start+0x1c81c000>
ffff00000009184c:	9e169d01 	.inst	0x9e169d01 ; undefined
ffff000000091850:	deb40215 	.inst	0xdeb40215 ; undefined
ffff000000091854:	00000edd 	udf	#3805
ffff000000091858:	0000001c 	udf	#28
ffff00000009185c:	000005c4 	udf	#1476
ffff000000091860:	ffff2b08 	.inst	0xffff2b08 ; undefined
ffff000000091864:	000002b4 	udf	#692
ffff000000091868:	d00e4100 	adrp	x0, ffff00001c8b3000 <__heap_start+0x1c81d000>
ffff00000009186c:	9e1a9d01 	.inst	0x9e1a9d01 ; undefined
ffff000000091870:	deab0219 	.inst	0xdeab0219 ; undefined
ffff000000091874:	00000edd 	udf	#3805
ffff000000091878:	0000001c 	udf	#28
ffff00000009187c:	000005e4 	udf	#1508
ffff000000091880:	ffff2d9c 	.inst	0xffff2d9c ; undefined
ffff000000091884:	000000a8 	udf	#168
ffff000000091888:	300e4100 	adr	x0, ffff0000000ae0a9 <__heap_start+0x180a9>
ffff00000009188c:	059e069d 	mov	z29.s, p14/z, #52
ffff000000091890:	0eddde68 	.inst	0x0eddde68 ; undefined
ffff000000091894:	00000000 	udf	#0
ffff000000091898:	0000001c 	udf	#28
ffff00000009189c:	00000604 	udf	#1540
ffff0000000918a0:	ffff2e24 	.inst	0xffff2e24 ; undefined
ffff0000000918a4:	0000002c 	udf	#44
ffff0000000918a8:	200e4100 	.inst	0x200e4100 ; undefined
ffff0000000918ac:	039e049d 	.inst	0x039e049d ; undefined
ffff0000000918b0:	0eddde49 	.inst	0x0eddde49 ; undefined
ffff0000000918b4:	00000000 	udf	#0
ffff0000000918b8:	0000001c 	udf	#28
ffff0000000918bc:	00000624 	udf	#1572
ffff0000000918c0:	ffff2e30 	.inst	0xffff2e30 ; undefined
ffff0000000918c4:	0000012c 	udf	#300
ffff0000000918c8:	400e4100 	.inst	0x400e4100 ; undefined
ffff0000000918cc:	079e089d 	.inst	0x079e089d ; undefined
ffff0000000918d0:	ddde4902 	.inst	0xddde4902 ; undefined
ffff0000000918d4:	0000000e 	udf	#14
ffff0000000918d8:	0000001c 	udf	#28
ffff0000000918dc:	00000644 	udf	#1604
ffff0000000918e0:	ffff2f3c 	.inst	0xffff2f3c ; undefined
ffff0000000918e4:	00000278 	udf	#632
ffff0000000918e8:	100e4100 	adr	x0, ffff0000000ae108 <__heap_start+0x18108>
ffff0000000918ec:	019e029d 	.inst	0x019e029d ; undefined
ffff0000000918f0:	ddde9c02 	.inst	0xddde9c02 ; undefined
ffff0000000918f4:	0000000e 	udf	#14
ffff0000000918f8:	0000001c 	udf	#28
ffff0000000918fc:	00000664 	udf	#1636
ffff000000091900:	ffff3194 	.inst	0xffff3194 ; undefined
ffff000000091904:	00000058 	udf	#88
ffff000000091908:	100e4100 	adr	x0, ffff0000000ae128 <__heap_start+0x18128>
ffff00000009190c:	019e029d 	.inst	0x019e029d ; undefined
ffff000000091910:	0eddde54 	.inst	0x0eddde54 ; undefined
ffff000000091914:	00000000 	udf	#0
ffff000000091918:	00000020 	udf	#32
ffff00000009191c:	00000684 	udf	#1668
ffff000000091920:	ffff31cc 	.inst	0xffff31cc ; undefined
ffff000000091924:	00000644 	udf	#1604
ffff000000091928:	d00e4100 	adrp	x0, ffff00001c8b3000 <__heap_start+0x1c81d000>
ffff00000009192c:	4a9d4104 	eor	w4, w8, w29, asr #16
ffff000000091930:	8e03499e 	.inst	0x8e03499e ; undefined
ffff000000091934:	0ededd01 	.inst	0x0ededd01 ; undefined
ffff000000091938:	00000000 	udf	#0
ffff00000009193c:	00000020 	udf	#32
ffff000000091940:	000006a8 	udf	#1704
ffff000000091944:	ffff37ec 	.inst	0xffff37ec ; undefined
ffff000000091948:	000000e4 	udf	#228
ffff00000009194c:	300e4100 	adr	x0, ffff0000000ae16d <__heap_start+0x1816d>
ffff000000091950:	059e069d 	mov	z29.s, p14/z, #52
ffff000000091954:	75049342 	.inst	0x75049342 ; undefined
ffff000000091958:	0ed3ddde 	.inst	0x0ed3ddde ; undefined
ffff00000009195c:	00000000 	udf	#0
ffff000000091960:	0000001c 	udf	#28
ffff000000091964:	000006cc 	udf	#1740
ffff000000091968:	ffff38ac 	.inst	0xffff38ac ; undefined
ffff00000009196c:	000000c0 	udf	#192
ffff000000091970:	500e4100 	adr	x0, ffff0000000ae192 <__heap_start+0x18192>
ffff000000091974:	099e0a9d 	.inst	0x099e0a9d ; undefined
ffff000000091978:	0eddde6e 	.inst	0x0eddde6e ; undefined
ffff00000009197c:	00000000 	udf	#0
ffff000000091980:	0000001c 	udf	#28
ffff000000091984:	000006ec 	udf	#1772
ffff000000091988:	ffff394c 	.inst	0xffff394c ; undefined
ffff00000009198c:	00000060 	udf	#96
ffff000000091990:	300e4100 	adr	x0, ffff0000000ae1b1 <__heap_start+0x181b1>
ffff000000091994:	059e069d 	mov	z29.s, p14/z, #52
ffff000000091998:	0eddde56 	.inst	0x0eddde56 ; undefined
ffff00000009199c:	00000000 	udf	#0
ffff0000000919a0:	0000001c 	udf	#28
ffff0000000919a4:	0000070c 	udf	#1804
ffff0000000919a8:	ffff398c 	.inst	0xffff398c ; undefined
ffff0000000919ac:	00000138 	udf	#312
ffff0000000919b0:	300e4100 	adr	x0, ffff0000000ae1d1 <__heap_start+0x181d1>
ffff0000000919b4:	059e069d 	mov	z29.s, p14/z, #52
ffff0000000919b8:	ddde4c02 	.inst	0xddde4c02 ; undefined
ffff0000000919bc:	0000000e 	udf	#14
ffff0000000919c0:	0000001c 	udf	#28
ffff0000000919c4:	0000072c 	udf	#1836
ffff0000000919c8:	ffff3aa4 	.inst	0xffff3aa4 ; undefined
ffff0000000919cc:	000000f8 	udf	#248
ffff0000000919d0:	400e4100 	.inst	0x400e4100 ; undefined
ffff0000000919d4:	079e089d 	.inst	0x079e089d ; undefined
ffff0000000919d8:	0eddde7c 	.inst	0x0eddde7c ; undefined
ffff0000000919dc:	00000000 	udf	#0
ffff0000000919e0:	0000001c 	udf	#28
ffff0000000919e4:	0000074c 	udf	#1868
ffff0000000919e8:	ffff3b7c 	.inst	0xffff3b7c ; undefined
ffff0000000919ec:	000000b4 	udf	#180
ffff0000000919f0:	300e4100 	adr	x0, ffff0000000ae211 <__heap_start+0x18211>
ffff0000000919f4:	059e069d 	mov	z29.s, p14/z, #52
ffff0000000919f8:	0eddde6b 	.inst	0x0eddde6b ; undefined
ffff0000000919fc:	00000000 	udf	#0
ffff000000091a00:	0000001c 	udf	#28
ffff000000091a04:	0000076c 	udf	#1900
ffff000000091a08:	ffff3c10 	.inst	0xffff3c10 ; undefined
ffff000000091a0c:	00000104 	udf	#260
ffff000000091a10:	200e4100 	.inst	0x200e4100 ; undefined
ffff000000091a14:	039e049d 	.inst	0x039e049d ; undefined
ffff000000091a18:	0eddde7f 	.inst	0x0eddde7f ; undefined
ffff000000091a1c:	00000000 	udf	#0
ffff000000091a20:	0000001c 	udf	#28
ffff000000091a24:	0000078c 	udf	#1932
ffff000000091a28:	ffff3cf4 	.inst	0xffff3cf4 ; undefined
ffff000000091a2c:	00000160 	udf	#352
ffff000000091a30:	500e4100 	adr	x0, ffff0000000ae252 <__heap_start+0x18252>
ffff000000091a34:	099e0a9d 	.inst	0x099e0a9d ; undefined
ffff000000091a38:	ddde5602 	.inst	0xddde5602 ; undefined
ffff000000091a3c:	0000000e 	udf	#14
ffff000000091a40:	00000020 	udf	#32
ffff000000091a44:	000007ac 	udf	#1964
ffff000000091a48:	ffff3e34 	.inst	0xffff3e34 ; undefined
ffff000000091a4c:	000000fc 	udf	#252
ffff000000091a50:	800e4100 	.inst	0x800e4100 ; undefined
ffff000000091a54:	b09d4113 	adrp	x19, fffeffff3a8b2000 <_kernel_start-0xc57ce000>
ffff000000091a58:	02af9e02 	.inst	0x02af9e02 ; undefined
ffff000000091a5c:	0ededd7c 	.inst	0x0ededd7c ; undefined
ffff000000091a60:	00000000 	udf	#0
ffff000000091a64:	0000001c 	udf	#28
ffff000000091a68:	000007d0 	udf	#2000
ffff000000091a6c:	ffff3f0c 	.inst	0xffff3f0c ; undefined
ffff000000091a70:	00000098 	udf	#152
ffff000000091a74:	300e4100 	adr	x0, ffff0000000ae295 <__heap_start+0x18295>
ffff000000091a78:	059e069d 	mov	z29.s, p14/z, #52
ffff000000091a7c:	0eddde64 	.inst	0x0eddde64 ; undefined
ffff000000091a80:	00000000 	udf	#0
ffff000000091a84:	0000001c 	udf	#28
ffff000000091a88:	000007f0 	udf	#2032
ffff000000091a8c:	ffff3f84 	.inst	0xffff3f84 ; undefined
ffff000000091a90:	0000017c 	udf	#380
ffff000000091a94:	500e4100 	adr	x0, ffff0000000ae2b6 <__heap_start+0x182b6>
ffff000000091a98:	099e0a9d 	.inst	0x099e0a9d ; undefined
ffff000000091a9c:	ddde5d02 	.inst	0xddde5d02 ; undefined
ffff000000091aa0:	0000000e 	udf	#14
ffff000000091aa4:	00000020 	udf	#32
ffff000000091aa8:	00000810 	udf	#2064
ffff000000091aac:	ffff40e0 	.inst	0xffff40e0 ; undefined
ffff000000091ab0:	00000274 	udf	#628
ffff000000091ab4:	800e4200 	.inst	0x800e4200 ; undefined
ffff000000091ab8:	e09d4126 	ld1w	{za1h.s[w14, 2]}, p0/z, [x9, x29, lsl #2]
ffff000000091abc:	04df9e04 	.inst	0x04df9e04 ; undefined
ffff000000091ac0:	dedd9902 	.inst	0xdedd9902 ; undefined
ffff000000091ac4:	0000000e 	udf	#14
ffff000000091ac8:	00000010 	udf	#16
ffff000000091acc:	00000834 	udf	#2100
ffff000000091ad0:	ffff4330 	.inst	0xffff4330 ; undefined
ffff000000091ad4:	0000000c 	udf	#12
ffff000000091ad8:	00000000 	udf	#0
ffff000000091adc:	00000010 	udf	#16
ffff000000091ae0:	00000848 	udf	#2120
ffff000000091ae4:	ffff4328 	.inst	0xffff4328 ; undefined
ffff000000091ae8:	0000000c 	udf	#12
ffff000000091aec:	00000000 	udf	#0
ffff000000091af0:	00000018 	udf	#24
ffff000000091af4:	0000085c 	udf	#2140
ffff000000091af8:	ffff4320 	.inst	0xffff4320 ; undefined
ffff000000091afc:	000000a4 	udf	#164
ffff000000091b00:	100e4100 	adr	x0, ffff0000000ae320 <__heap_start+0x18320>
ffff000000091b04:	d3670293 	ubfiz	x19, x20, #25, #1
ffff000000091b08:	0000000e 	udf	#14
ffff000000091b0c:	00000014 	udf	#20
ffff000000091b10:	00000878 	udf	#2168
ffff000000091b14:	ffff43a8 	.inst	0xffff43a8 ; undefined
ffff000000091b18:	00000088 	udf	#136
ffff000000091b1c:	100e4100 	adr	x0, ffff0000000ae33c <__heap_start+0x1833c>
ffff000000091b20:	00000e60 	udf	#3680
ffff000000091b24:	00000014 	udf	#20
ffff000000091b28:	00000890 	udf	#2192
ffff000000091b2c:	ffff4418 	.inst	0xffff4418 ; undefined
ffff000000091b30:	000000a8 	udf	#168
ffff000000091b34:	100e4100 	adr	x0, ffff0000000ae354 <__heap_start+0x18354>
ffff000000091b38:	00000e68 	udf	#3688
ffff000000091b3c:	0000001c 	udf	#28
ffff000000091b40:	000008a8 	udf	#2216
ffff000000091b44:	ffff44a8 	.inst	0xffff44a8 ; undefined
ffff000000091b48:	000001d4 	udf	#468
ffff000000091b4c:	200e4100 	.inst	0x200e4100 ; undefined
ffff000000091b50:	039e049d 	.inst	0x039e049d ; undefined
ffff000000091b54:	ddde7302 	.inst	0xddde7302 ; undefined
ffff000000091b58:	0000000e 	udf	#14
ffff000000091b5c:	0000001c 	udf	#28
ffff000000091b60:	000008c8 	udf	#2248
ffff000000091b64:	ffff465c 	.inst	0xffff465c ; undefined
ffff000000091b68:	00000180 	udf	#384
ffff000000091b6c:	200e4100 	.inst	0x200e4100 ; undefined
ffff000000091b70:	039e049d 	.inst	0x039e049d ; undefined
ffff000000091b74:	ddde5e02 	.inst	0xddde5e02 ; undefined
ffff000000091b78:	0000000e 	udf	#14
ffff000000091b7c:	0000001c 	udf	#28
ffff000000091b80:	000008e8 	udf	#2280
ffff000000091b84:	ffff47bc 	.inst	0xffff47bc ; undefined
ffff000000091b88:	000000c8 	udf	#200
ffff000000091b8c:	200e4100 	.inst	0x200e4100 ; undefined
ffff000000091b90:	039e049d 	.inst	0x039e049d ; undefined
ffff000000091b94:	0eddde70 	.inst	0x0eddde70 ; undefined
ffff000000091b98:	00000000 	udf	#0
ffff000000091b9c:	0000001c 	udf	#28
ffff000000091ba0:	00000908 	udf	#2312
ffff000000091ba4:	ffff4864 	.inst	0xffff4864 ; undefined
ffff000000091ba8:	00000088 	udf	#136
ffff000000091bac:	200e4100 	.inst	0x200e4100 ; undefined
ffff000000091bb0:	039e049d 	.inst	0x039e049d ; undefined
ffff000000091bb4:	0eddde60 	.inst	0x0eddde60 ; undefined
ffff000000091bb8:	00000000 	udf	#0
ffff000000091bbc:	0000001c 	udf	#28
ffff000000091bc0:	00000928 	udf	#2344
ffff000000091bc4:	ffff48cc 	.inst	0xffff48cc ; undefined
ffff000000091bc8:	000000cc 	udf	#204
ffff000000091bcc:	300e4100 	adr	x0, ffff0000000ae3ed <__heap_start+0x183ed>
ffff000000091bd0:	059e069d 	mov	z29.s, p14/z, #52
ffff000000091bd4:	0eddde71 	.inst	0x0eddde71 ; undefined
ffff000000091bd8:	00000000 	udf	#0
ffff000000091bdc:	0000001c 	udf	#28
ffff000000091be0:	00000948 	udf	#2376
ffff000000091be4:	ffff4978 	.inst	0xffff4978 ; undefined
ffff000000091be8:	00000110 	udf	#272
ffff000000091bec:	300e4100 	adr	x0, ffff0000000ae40d <__heap_start+0x1840d>
ffff000000091bf0:	059e069d 	mov	z29.s, p14/z, #52
ffff000000091bf4:	ddde4202 	.inst	0xddde4202 ; undefined
ffff000000091bf8:	0000000e 	udf	#14
ffff000000091bfc:	0000001c 	udf	#28
ffff000000091c00:	00000968 	udf	#2408
ffff000000091c04:	ffff4a68 	.inst	0xffff4a68 ; undefined
ffff000000091c08:	0000005c 	udf	#92
ffff000000091c0c:	300e4100 	adr	x0, ffff0000000ae42d <__heap_start+0x1842d>
ffff000000091c10:	059e069d 	mov	z29.s, p14/z, #52
ffff000000091c14:	0eddde55 	.inst	0x0eddde55 ; undefined
ffff000000091c18:	00000000 	udf	#0
ffff000000091c1c:	00000010 	udf	#16
ffff000000091c20:	00000988 	udf	#2440
ffff000000091c24:	ffff4aa4 	.inst	0xffff4aa4 ; undefined
ffff000000091c28:	0000004c 	udf	#76
ffff000000091c2c:	00000000 	udf	#0
ffff000000091c30:	00000014 	udf	#20
ffff000000091c34:	0000099c 	udf	#2460
ffff000000091c38:	ffff4adc 	.inst	0xffff4adc ; undefined
ffff000000091c3c:	0000005c 	udf	#92
ffff000000091c40:	100e4100 	adr	x0, ffff0000000ae460 <__heap_start+0x18460>
ffff000000091c44:	00000e55 	udf	#3669
ffff000000091c48:	00000014 	udf	#20
ffff000000091c4c:	000009b4 	udf	#2484
ffff000000091c50:	ffff4b20 	.inst	0xffff4b20 ; undefined
ffff000000091c54:	00000070 	udf	#112
ffff000000091c58:	100e4100 	adr	x0, ffff0000000ae478 <__heap_start+0x18478>
ffff000000091c5c:	00000e5a 	udf	#3674
ffff000000091c60:	0000001c 	udf	#28
ffff000000091c64:	000009cc 	udf	#2508
ffff000000091c68:	ffff4b78 	.inst	0xffff4b78 ; undefined
ffff000000091c6c:	000000dc 	udf	#220
ffff000000091c70:	300e4100 	adr	x0, ffff0000000ae491 <__heap_start+0x18491>
ffff000000091c74:	059e069d 	mov	z29.s, p14/z, #52
ffff000000091c78:	0eddde75 	.inst	0x0eddde75 ; undefined
ffff000000091c7c:	00000000 	udf	#0
ffff000000091c80:	0000001c 	udf	#28
ffff000000091c84:	000009ec 	udf	#2540
ffff000000091c88:	ffff4c34 	.inst	0xffff4c34 ; undefined
ffff000000091c8c:	0000005c 	udf	#92
ffff000000091c90:	200e4100 	.inst	0x200e4100 ; undefined
ffff000000091c94:	039e049d 	.inst	0x039e049d ; undefined
ffff000000091c98:	0eddde55 	.inst	0x0eddde55 ; undefined
ffff000000091c9c:	00000000 	udf	#0
ffff000000091ca0:	00000014 	udf	#20
ffff000000091ca4:	00000a0c 	udf	#2572
ffff000000091ca8:	ffff4c70 	.inst	0xffff4c70 ; undefined
ffff000000091cac:	0000017c 	udf	#380
ffff000000091cb0:	200e4100 	.inst	0x200e4100 ; undefined
ffff000000091cb4:	000e5d02 	.inst	0x000e5d02 ; undefined
ffff000000091cb8:	00000014 	udf	#20
ffff000000091cbc:	00000a24 	udf	#2596
ffff000000091cc0:	ffff4dd4 	.inst	0xffff4dd4 ; undefined
ffff000000091cc4:	00000100 	udf	#256
ffff000000091cc8:	200e4100 	.inst	0x200e4100 ; undefined
ffff000000091ccc:	00000e7e 	udf	#3710
ffff000000091cd0:	0000001c 	udf	#28
ffff000000091cd4:	00000a3c 	udf	#2620
ffff000000091cd8:	ffff4ebc 	.inst	0xffff4ebc ; undefined
ffff000000091cdc:	00000030 	udf	#48
ffff000000091ce0:	300e4100 	adr	x0, ffff0000000ae501 <__heap_start+0x18501>
ffff000000091ce4:	059e069d 	mov	z29.s, p14/z, #52
ffff000000091ce8:	0eddde4a 	.inst	0x0eddde4a ; undefined
ffff000000091cec:	00000000 	udf	#0
ffff000000091cf0:	0000001c 	udf	#28
ffff000000091cf4:	00000a5c 	udf	#2652
ffff000000091cf8:	ffff4ecc 	.inst	0xffff4ecc ; undefined
ffff000000091cfc:	00000030 	udf	#48
ffff000000091d00:	300e4100 	adr	x0, ffff0000000ae521 <__heap_start+0x18521>
ffff000000091d04:	059e069d 	mov	z29.s, p14/z, #52
ffff000000091d08:	0eddde4a 	.inst	0x0eddde4a ; undefined
ffff000000091d0c:	00000000 	udf	#0
ffff000000091d10:	00000014 	udf	#20
ffff000000091d14:	00000a7c 	udf	#2684
ffff000000091d18:	ffff4edc 	.inst	0xffff4edc ; undefined
ffff000000091d1c:	00000130 	udf	#304
ffff000000091d20:	200e4100 	.inst	0x200e4100 ; undefined
ffff000000091d24:	000e4a02 	.inst	0x000e4a02 ; undefined
ffff000000091d28:	0000001c 	udf	#28
ffff000000091d2c:	00000a94 	udf	#2708
ffff000000091d30:	ffff4ff4 	.inst	0xffff4ff4 ; undefined
ffff000000091d34:	00000030 	udf	#48
ffff000000091d38:	400e4100 	.inst	0x400e4100 ; undefined
ffff000000091d3c:	079e089d 	.inst	0x079e089d ; undefined
ffff000000091d40:	0eddde4a 	.inst	0x0eddde4a ; undefined
ffff000000091d44:	00000000 	udf	#0
ffff000000091d48:	00000014 	udf	#20
ffff000000091d4c:	00000ab4 	udf	#2740
ffff000000091d50:	ffff5004 	.inst	0xffff5004 ; undefined
ffff000000091d54:	0000005c 	udf	#92
ffff000000091d58:	100e4100 	adr	x0, ffff0000000ae578 <__heap_start+0x18578>
ffff000000091d5c:	00000e55 	udf	#3669
ffff000000091d60:	00000014 	udf	#20
ffff000000091d64:	00000acc 	udf	#2764
ffff000000091d68:	ffff5048 	.inst	0xffff5048 ; undefined
ffff000000091d6c:	0000004c 	udf	#76
ffff000000091d70:	100e4100 	adr	x0, ffff0000000ae590 <__heap_start+0x18590>
ffff000000091d74:	00000e51 	udf	#3665
ffff000000091d78:	0000001c 	udf	#28
ffff000000091d7c:	00000ae4 	udf	#2788
ffff000000091d80:	ffff507c 	.inst	0xffff507c ; undefined
ffff000000091d84:	0000005c 	udf	#92
ffff000000091d88:	200e4100 	.inst	0x200e4100 ; undefined
ffff000000091d8c:	039e049d 	.inst	0x039e049d ; undefined
ffff000000091d90:	0eddde55 	.inst	0x0eddde55 ; undefined
ffff000000091d94:	00000000 	udf	#0
ffff000000091d98:	0000001c 	udf	#28
ffff000000091d9c:	00000b04 	udf	#2820
ffff000000091da0:	ffff50b8 	.inst	0xffff50b8 ; undefined
ffff000000091da4:	00000030 	udf	#48
ffff000000091da8:	300e4100 	adr	x0, ffff0000000ae5c9 <__heap_start+0x185c9>
ffff000000091dac:	059e069d 	mov	z29.s, p14/z, #52
ffff000000091db0:	0eddde4a 	.inst	0x0eddde4a ; undefined
ffff000000091db4:	00000000 	udf	#0
ffff000000091db8:	0000001c 	udf	#28
ffff000000091dbc:	00000b24 	udf	#2852
ffff000000091dc0:	ffff50c8 	.inst	0xffff50c8 ; undefined
ffff000000091dc4:	00000030 	udf	#48
ffff000000091dc8:	300e4100 	adr	x0, ffff0000000ae5e9 <__heap_start+0x185e9>
ffff000000091dcc:	059e069d 	mov	z29.s, p14/z, #52
ffff000000091dd0:	0eddde4a 	.inst	0x0eddde4a ; undefined
ffff000000091dd4:	00000000 	udf	#0
ffff000000091dd8:	0000001c 	udf	#28
ffff000000091ddc:	00000b44 	udf	#2884
ffff000000091de0:	ffff50d8 	.inst	0xffff50d8 ; undefined
ffff000000091de4:	00000030 	udf	#48
ffff000000091de8:	400e4100 	.inst	0x400e4100 ; undefined
ffff000000091dec:	079e089d 	.inst	0x079e089d ; undefined
ffff000000091df0:	0eddde4a 	.inst	0x0eddde4a ; undefined
ffff000000091df4:	00000000 	udf	#0
ffff000000091df8:	0000001c 	udf	#28
ffff000000091dfc:	00000b64 	udf	#2916
ffff000000091e00:	ffff50e8 	.inst	0xffff50e8 ; undefined
ffff000000091e04:	00000180 	udf	#384
ffff000000091e08:	600e4100 	.inst	0x600e4100 ; undefined
ffff000000091e0c:	0b9e0c9d 	add	w29, w4, w30, asr #3
ffff000000091e10:	ddde5e02 	.inst	0xddde5e02 ; undefined
ffff000000091e14:	0000000e 	udf	#14
ffff000000091e18:	0000001c 	udf	#28
ffff000000091e1c:	00000b84 	udf	#2948
ffff000000091e20:	ffff5248 	.inst	0xffff5248 ; undefined
ffff000000091e24:	000001b8 	udf	#440
ffff000000091e28:	600e4100 	.inst	0x600e4100 ; undefined
ffff000000091e2c:	0b9e0c9d 	add	w29, w4, w30, asr #3
ffff000000091e30:	ddde6c02 	.inst	0xddde6c02 ; undefined
ffff000000091e34:	0000000e 	udf	#14
ffff000000091e38:	0000001c 	udf	#28
ffff000000091e3c:	00000ba4 	udf	#2980
ffff000000091e40:	ffff53e0 	.inst	0xffff53e0 ; undefined
ffff000000091e44:	0000012c 	udf	#300
ffff000000091e48:	600e4100 	.inst	0x600e4100 ; undefined
ffff000000091e4c:	0b9e0c9d 	add	w29, w4, w30, asr #3
ffff000000091e50:	ddde4902 	.inst	0xddde4902 ; undefined
ffff000000091e54:	0000000e 	udf	#14
ffff000000091e58:	00000014 	udf	#20
ffff000000091e5c:	00000bc4 	udf	#3012
ffff000000091e60:	ffff54ec 	.inst	0xffff54ec ; undefined
ffff000000091e64:	0000002c 	udf	#44
ffff000000091e68:	100e4100 	adr	x0, ffff0000000ae688 <__heap_start+0x18688>
ffff000000091e6c:	00000e49 	udf	#3657
ffff000000091e70:	00000014 	udf	#20
ffff000000091e74:	00000bdc 	udf	#3036
ffff000000091e78:	ffff5500 	.inst	0xffff5500 ; undefined
ffff000000091e7c:	00000030 	udf	#48
ffff000000091e80:	100e4100 	adr	x0, ffff0000000ae6a0 <__heap_start+0x186a0>
ffff000000091e84:	00000e4a 	udf	#3658
ffff000000091e88:	0000001c 	udf	#28
ffff000000091e8c:	00000bf4 	udf	#3060
ffff000000091e90:	ffff5518 	.inst	0xffff5518 ; undefined
ffff000000091e94:	000001b8 	udf	#440
ffff000000091e98:	800e4100 	.inst	0x800e4100 ; undefined
ffff000000091e9c:	9e109d01 	.inst	0x9e109d01 ; undefined
ffff000000091ea0:	de6c020f 	.inst	0xde6c020f ; undefined
ffff000000091ea4:	00000edd 	udf	#3805
ffff000000091ea8:	0000001c 	udf	#28
ffff000000091eac:	00000c14 	udf	#3092
ffff000000091eb0:	ffff56b0 	.inst	0xffff56b0 ; undefined
ffff000000091eb4:	00000148 	udf	#328
ffff000000091eb8:	500e4100 	adr	x0, ffff0000000ae6da <__heap_start+0x186da>
ffff000000091ebc:	099e0a9d 	.inst	0x099e0a9d ; undefined
ffff000000091ec0:	ddde5002 	.inst	0xddde5002 ; undefined
ffff000000091ec4:	0000000e 	udf	#14
ffff000000091ec8:	0000001c 	udf	#28
ffff000000091ecc:	00000c34 	udf	#3124
ffff000000091ed0:	ffff57d8 	.inst	0xffff57d8 ; undefined
ffff000000091ed4:	000001cc 	udf	#460
ffff000000091ed8:	600e4100 	.inst	0x600e4100 ; undefined
ffff000000091edc:	0b9e0c9d 	add	w29, w4, w30, asr #3
ffff000000091ee0:	ddde7102 	.inst	0xddde7102 ; undefined
ffff000000091ee4:	0000000e 	udf	#14
ffff000000091ee8:	0000001c 	udf	#28
ffff000000091eec:	00000c54 	udf	#3156
ffff000000091ef0:	ffff5984 	.inst	0xffff5984 ; undefined
ffff000000091ef4:	000000a4 	udf	#164
ffff000000091ef8:	400e4100 	.inst	0x400e4100 ; undefined
ffff000000091efc:	079e089d 	.inst	0x079e089d ; undefined
ffff000000091f00:	0eddde67 	.inst	0x0eddde67 ; undefined
ffff000000091f04:	00000000 	udf	#0
ffff000000091f08:	0000001c 	udf	#28
ffff000000091f0c:	00000c74 	udf	#3188
ffff000000091f10:	ffff5a08 	.inst	0xffff5a08 ; undefined
ffff000000091f14:	000001d4 	udf	#468
ffff000000091f18:	600e4100 	.inst	0x600e4100 ; undefined
ffff000000091f1c:	0b9e0c9d 	add	w29, w4, w30, asr #3
ffff000000091f20:	ddde7302 	.inst	0xddde7302 ; undefined
ffff000000091f24:	0000000e 	udf	#14
ffff000000091f28:	00000014 	udf	#20
ffff000000091f2c:	00000c94 	udf	#3220
ffff000000091f30:	ffff5bbc 	.inst	0xffff5bbc ; undefined
ffff000000091f34:	0000002c 	udf	#44
ffff000000091f38:	200e4100 	.inst	0x200e4100 ; undefined
ffff000000091f3c:	00000e49 	udf	#3657
ffff000000091f40:	0000001c 	udf	#28
ffff000000091f44:	00000cac 	udf	#3244
ffff000000091f48:	ffff5bd0 	.inst	0xffff5bd0 ; undefined
ffff000000091f4c:	00000050 	udf	#80
ffff000000091f50:	200e4100 	.inst	0x200e4100 ; undefined
ffff000000091f54:	039e049d 	.inst	0x039e049d ; undefined
ffff000000091f58:	0eddde52 	.inst	0x0eddde52 ; undefined
ffff000000091f5c:	00000000 	udf	#0
ffff000000091f60:	0000001c 	udf	#28
ffff000000091f64:	00000ccc 	udf	#3276
ffff000000091f68:	ffff5c00 	.inst	0xffff5c00 ; undefined
ffff000000091f6c:	00000350 	udf	#848
ffff000000091f70:	300e4100 	adr	x0, ffff0000000ae791 <__heap_start+0x18791>
ffff000000091f74:	059e069d 	mov	z29.s, p14/z, #52
ffff000000091f78:	ddded202 	.inst	0xddded202 ; undefined
ffff000000091f7c:	0000000e 	udf	#14
ffff000000091f80:	0000001c 	udf	#28
ffff000000091f84:	00000cec 	udf	#3308
ffff000000091f88:	ffff5f30 	.inst	0xffff5f30 ; undefined
ffff000000091f8c:	000000b0 	udf	#176
ffff000000091f90:	300e4100 	adr	x0, ffff0000000ae7b1 <__heap_start+0x187b1>
ffff000000091f94:	059e069d 	mov	z29.s, p14/z, #52
ffff000000091f98:	0eddde6a 	.inst	0x0eddde6a ; undefined
ffff000000091f9c:	00000000 	udf	#0
ffff000000091fa0:	00000014 	udf	#20
ffff000000091fa4:	00000d0c 	udf	#3340
ffff000000091fa8:	ffff5fc0 	.inst	0xffff5fc0 ; undefined
ffff000000091fac:	00000010 	udf	#16
	...
ffff000000091fb8:	0000001c 	udf	#28
ffff000000091fbc:	00000d24 	udf	#3364
ffff000000091fc0:	ffff5fb8 	.inst	0xffff5fb8 ; undefined
ffff000000091fc4:	00000098 	udf	#152
ffff000000091fc8:	600e4100 	.inst	0x600e4100 ; undefined
ffff000000091fcc:	0b9e0c9d 	add	w29, w4, w30, asr #3
ffff000000091fd0:	0eddde64 	.inst	0x0eddde64 ; undefined
ffff000000091fd4:	00000000 	udf	#0
ffff000000091fd8:	0000001c 	udf	#28
ffff000000091fdc:	00000d44 	udf	#3396
ffff000000091fe0:	ffff6030 	.inst	0xffff6030 ; undefined
ffff000000091fe4:	00000098 	udf	#152
ffff000000091fe8:	600e4100 	.inst	0x600e4100 ; undefined
ffff000000091fec:	0b9e0c9d 	add	w29, w4, w30, asr #3
ffff000000091ff0:	0eddde64 	.inst	0x0eddde64 ; undefined
ffff000000091ff4:	00000000 	udf	#0
ffff000000091ff8:	00000020 	udf	#32
ffff000000091ffc:	00000d64 	udf	#3428
ffff000000092000:	ffff60a8 	.inst	0xffff60a8 ; undefined
ffff000000092004:	0000067c 	udf	#1660
ffff000000092008:	d00e4100 	adrp	x0, ffff00001c8b4000 <__heap_start+0x1c81e000>
ffff00000009200c:	9e2a9d02 	.inst	0x9e2a9d02 ; undefined
ffff000000092010:	28934229 	stp	w9, w16, [x17], #152
ffff000000092014:	de019b03 	.inst	0xde019b03 ; undefined
ffff000000092018:	000ed3dd 	.inst	0x000ed3dd ; undefined
ffff00000009201c:	00000014 	udf	#20
ffff000000092020:	00000d88 	udf	#3464
ffff000000092024:	ffff6700 	.inst	0xffff6700 ; undefined
ffff000000092028:	00000020 	udf	#32
ffff00000009202c:	100e4100 	adr	x0, ffff0000000ae84c <__heap_start+0x1884c>
ffff000000092030:	00000e46 	udf	#3654
ffff000000092034:	00000014 	udf	#20
ffff000000092038:	00000da0 	udf	#3488
ffff00000009203c:	ffff6708 	.inst	0xffff6708 ; undefined
ffff000000092040:	00000038 	udf	#56
ffff000000092044:	200e4100 	.inst	0x200e4100 ; undefined
ffff000000092048:	00000e4c 	udf	#3660
ffff00000009204c:	00000014 	udf	#20
ffff000000092050:	00000db8 	udf	#3512
ffff000000092054:	ffff6728 	.inst	0xffff6728 ; undefined
ffff000000092058:	00000038 	udf	#56
ffff00000009205c:	200e4100 	.inst	0x200e4100 ; undefined
ffff000000092060:	00000e4c 	udf	#3660
ffff000000092064:	0000001c 	udf	#28
ffff000000092068:	00000dd0 	udf	#3536
ffff00000009206c:	ffff6748 	.inst	0xffff6748 ; undefined
ffff000000092070:	00000048 	udf	#72
ffff000000092074:	300e4100 	adr	x0, ffff0000000ae895 <__heap_start+0x18895>
ffff000000092078:	059e069d 	mov	z29.s, p14/z, #52
ffff00000009207c:	0eddde50 	.inst	0x0eddde50 ; undefined
ffff000000092080:	00000000 	udf	#0
ffff000000092084:	00000014 	udf	#20
ffff000000092088:	00000df0 	udf	#3568
ffff00000009208c:	ffff6770 	.inst	0xffff6770 ; undefined
ffff000000092090:	00000020 	udf	#32
ffff000000092094:	100e4100 	adr	x0, ffff0000000ae8b4 <__heap_start+0x188b4>
ffff000000092098:	00000e46 	udf	#3654
ffff00000009209c:	00000010 	udf	#16
ffff0000000920a0:	00000e08 	udf	#3592
ffff0000000920a4:	ffff6778 	.inst	0xffff6778 ; undefined
ffff0000000920a8:	00000010 	udf	#16
ffff0000000920ac:	00000000 	udf	#0
ffff0000000920b0:	0000001c 	udf	#28
ffff0000000920b4:	00000e1c 	udf	#3612
ffff0000000920b8:	ffff6774 	.inst	0xffff6774 ; undefined
ffff0000000920bc:	00000048 	udf	#72
ffff0000000920c0:	300e4100 	adr	x0, ffff0000000ae8e1 <__heap_start+0x188e1>
ffff0000000920c4:	059e069d 	mov	z29.s, p14/z, #52
ffff0000000920c8:	0eddde50 	.inst	0x0eddde50 ; undefined
ffff0000000920cc:	00000000 	udf	#0
ffff0000000920d0:	00000014 	udf	#20
ffff0000000920d4:	00000e3c 	udf	#3644
ffff0000000920d8:	ffff679c 	.inst	0xffff679c ; undefined
ffff0000000920dc:	00000024 	udf	#36
ffff0000000920e0:	100e4100 	adr	x0, ffff0000000ae900 <__heap_start+0x18900>
ffff0000000920e4:	00000e47 	udf	#3655
ffff0000000920e8:	00000014 	udf	#20
ffff0000000920ec:	00000e54 	udf	#3668
ffff0000000920f0:	ffff67a8 	.inst	0xffff67a8 ; undefined
ffff0000000920f4:	00000030 	udf	#48
ffff0000000920f8:	100e4100 	adr	x0, ffff0000000ae918 <__heap_start+0x18918>
ffff0000000920fc:	00000e4a 	udf	#3658
ffff000000092100:	00000014 	udf	#20
ffff000000092104:	00000e6c 	udf	#3692
ffff000000092108:	ffff67c0 	.inst	0xffff67c0 ; undefined
ffff00000009210c:	00000030 	udf	#48
ffff000000092110:	100e4100 	adr	x0, ffff0000000ae930 <__heap_start+0x18930>
ffff000000092114:	00000e4a 	udf	#3658
ffff000000092118:	00000014 	udf	#20
ffff00000009211c:	00000e84 	udf	#3716
ffff000000092120:	ffff67d8 	.inst	0xffff67d8 ; undefined
ffff000000092124:	00000010 	udf	#16
	...
ffff000000092130:	00000010 	udf	#16
ffff000000092134:	00000e9c 	udf	#3740
ffff000000092138:	ffff67d0 	.inst	0xffff67d0 ; undefined
ffff00000009213c:	0000000c 	udf	#12
ffff000000092140:	00000000 	udf	#0
ffff000000092144:	00000010 	udf	#16
ffff000000092148:	00000eb0 	udf	#3760
ffff00000009214c:	ffff67c8 	.inst	0xffff67c8 ; undefined
ffff000000092150:	0000000c 	udf	#12
ffff000000092154:	00000000 	udf	#0
ffff000000092158:	00000014 	udf	#20
ffff00000009215c:	00000ec4 	udf	#3780
ffff000000092160:	ffff67c0 	.inst	0xffff67c0 ; undefined
ffff000000092164:	000000b4 	udf	#180
ffff000000092168:	200e4100 	.inst	0x200e4100 ; undefined
ffff00000009216c:	00000e6b 	udf	#3691
ffff000000092170:	0000001c 	udf	#28
ffff000000092174:	00000edc 	udf	#3804
ffff000000092178:	ffff685c 	.inst	0xffff685c ; undefined
ffff00000009217c:	000000f4 	udf	#244
ffff000000092180:	300e4100 	adr	x0, ffff0000000ae9a1 <__heap_start+0x189a1>
ffff000000092184:	059e069d 	mov	z29.s, p14/z, #52
ffff000000092188:	0eddde7b 	.inst	0x0eddde7b ; undefined
ffff00000009218c:	00000000 	udf	#0
ffff000000092190:	00000014 	udf	#20
ffff000000092194:	00000efc 	udf	#3836
ffff000000092198:	ffff6930 	.inst	0xffff6930 ; undefined
ffff00000009219c:	00000058 	udf	#88
ffff0000000921a0:	200e4100 	.inst	0x200e4100 ; undefined
ffff0000000921a4:	00000e54 	udf	#3668
ffff0000000921a8:	0000001c 	udf	#28
ffff0000000921ac:	00000f14 	udf	#3860
ffff0000000921b0:	ffff6970 	.inst	0xffff6970 ; undefined
ffff0000000921b4:	000000c0 	udf	#192
ffff0000000921b8:	400e4100 	.inst	0x400e4100 ; undefined
ffff0000000921bc:	079e089d 	.inst	0x079e089d ; undefined
ffff0000000921c0:	0eddde6e 	.inst	0x0eddde6e ; undefined
ffff0000000921c4:	00000000 	udf	#0
ffff0000000921c8:	0000001c 	udf	#28
ffff0000000921cc:	00000f34 	udf	#3892
ffff0000000921d0:	ffff6a10 	.inst	0xffff6a10 ; undefined
ffff0000000921d4:	000000d4 	udf	#212
ffff0000000921d8:	200e4100 	.inst	0x200e4100 ; undefined
ffff0000000921dc:	039e049d 	.inst	0x039e049d ; undefined
ffff0000000921e0:	0eddde73 	.inst	0x0eddde73 ; undefined
ffff0000000921e4:	00000000 	udf	#0
ffff0000000921e8:	00000014 	udf	#20
ffff0000000921ec:	00000f54 	udf	#3924
ffff0000000921f0:	ffff6ac4 	.inst	0xffff6ac4 ; undefined
ffff0000000921f4:	0000001c 	udf	#28
ffff0000000921f8:	100e4100 	adr	x0, ffff0000000aea18 <__heap_start+0x18a18>
ffff0000000921fc:	019e029d 	.inst	0x019e029d ; undefined
ffff000000092200:	00000014 	udf	#20
ffff000000092204:	00000f6c 	udf	#3948
ffff000000092208:	ffff6ac8 	.inst	0xffff6ac8 ; undefined
ffff00000009220c:	0000001c 	udf	#28
ffff000000092210:	100e4100 	adr	x0, ffff0000000aea30 <__heap_start+0x18a30>
ffff000000092214:	019e029d 	.inst	0x019e029d ; undefined
ffff000000092218:	0000001c 	udf	#28
ffff00000009221c:	00000f84 	udf	#3972
ffff000000092220:	ffff6acc 	.inst	0xffff6acc ; undefined
ffff000000092224:	000000b8 	udf	#184
ffff000000092228:	200e4100 	.inst	0x200e4100 ; undefined
ffff00000009222c:	039e049d 	.inst	0x039e049d ; undefined
ffff000000092230:	0eddde6c 	.inst	0x0eddde6c ; undefined
ffff000000092234:	00000000 	udf	#0
ffff000000092238:	00000020 	udf	#32
ffff00000009223c:	00000fa4 	udf	#4004
ffff000000092240:	ffff6b64 	.inst	0xffff6b64 ; undefined
ffff000000092244:	00000244 	udf	#580
ffff000000092248:	400e4100 	.inst	0x400e4100 ; undefined
ffff00000009224c:	079e089d 	.inst	0x079e089d ; undefined
ffff000000092250:	02069342 	.inst	0x02069342 ; undefined
ffff000000092254:	d3ddde8d 	.inst	0xd3ddde8d ; undefined
ffff000000092258:	0000000e 	udf	#14
ffff00000009225c:	0000001c 	udf	#28
ffff000000092260:	00000fc8 	udf	#4040
ffff000000092264:	ffff6d84 	.inst	0xffff6d84 ; undefined
ffff000000092268:	00000394 	udf	#916
ffff00000009226c:	500e4100 	adr	x0, ffff0000000aea8e <__heap_start+0x18a8e>
ffff000000092270:	099e0a9d 	.inst	0x099e0a9d ; undefined
ffff000000092274:	dddee302 	.inst	0xdddee302 ; undefined
ffff000000092278:	0000000e 	udf	#14
ffff00000009227c:	0000001c 	udf	#28
ffff000000092280:	00000fe8 	udf	#4072
ffff000000092284:	ffff70f8 	.inst	0xffff70f8 ; undefined
ffff000000092288:	00000070 	udf	#112
ffff00000009228c:	400e4100 	.inst	0x400e4100 ; undefined
ffff000000092290:	079e089d 	.inst	0x079e089d ; undefined
ffff000000092294:	0eddde5a 	.inst	0x0eddde5a ; undefined
ffff000000092298:	00000000 	udf	#0
ffff00000009229c:	0000001c 	udf	#28
ffff0000000922a0:	00001008 	udf	#4104
ffff0000000922a4:	ffff7148 	.inst	0xffff7148 ; undefined
ffff0000000922a8:	00000358 	udf	#856
ffff0000000922ac:	700e4100 	adr	x0, ffff0000000aeacf <__heap_start+0x18acf>
ffff0000000922b0:	0d9e0e9d 	st1	{v29.b}[3], [x20], x30
ffff0000000922b4:	ddded402 	.inst	0xddded402 ; undefined
ffff0000000922b8:	0000000e 	udf	#14
ffff0000000922bc:	0000001c 	udf	#28
ffff0000000922c0:	00001028 	udf	#4136
ffff0000000922c4:	ffff7480 	.inst	0xffff7480 ; undefined
ffff0000000922c8:	00000048 	udf	#72
ffff0000000922cc:	200e4100 	.inst	0x200e4100 ; undefined
ffff0000000922d0:	039e049d 	.inst	0x039e049d ; undefined
ffff0000000922d4:	0eddde50 	.inst	0x0eddde50 ; undefined
ffff0000000922d8:	00000000 	udf	#0
ffff0000000922dc:	0000001c 	udf	#28
ffff0000000922e0:	00001048 	udf	#4168
ffff0000000922e4:	ffff74a8 	.inst	0xffff74a8 ; undefined
ffff0000000922e8:	00000140 	udf	#320
ffff0000000922ec:	400e4100 	.inst	0x400e4100 ; undefined
ffff0000000922f0:	079e089d 	.inst	0x079e089d ; undefined
ffff0000000922f4:	ddde4e02 	.inst	0xddde4e02 ; undefined
ffff0000000922f8:	0000000e 	udf	#14
ffff0000000922fc:	0000001c 	udf	#28
ffff000000092300:	00001068 	udf	#4200
ffff000000092304:	ffff75c8 	.inst	0xffff75c8 ; undefined
ffff000000092308:	0000006c 	udf	#108
ffff00000009230c:	300e4100 	adr	x0, ffff0000000aeb2d <__heap_start+0x18b2d>
ffff000000092310:	059e069d 	mov	z29.s, p14/z, #52
ffff000000092314:	0eddde59 	.inst	0x0eddde59 ; undefined
ffff000000092318:	00000000 	udf	#0
ffff00000009231c:	0000001c 	udf	#28
ffff000000092320:	00001088 	udf	#4232
ffff000000092324:	ffff7614 	.inst	0xffff7614 ; undefined
ffff000000092328:	0000005c 	udf	#92
ffff00000009232c:	300e4100 	adr	x0, ffff0000000aeb4d <__heap_start+0x18b4d>
ffff000000092330:	059e069d 	mov	z29.s, p14/z, #52
ffff000000092334:	0eddde55 	.inst	0x0eddde55 ; undefined
ffff000000092338:	00000000 	udf	#0
ffff00000009233c:	00000014 	udf	#20
ffff000000092340:	000010a8 	udf	#4264
ffff000000092344:	ffff7650 	.inst	0xffff7650 ; undefined
ffff000000092348:	00000078 	udf	#120
ffff00000009234c:	100e4100 	adr	x0, ffff0000000aeb6c <__heap_start+0x18b6c>
ffff000000092350:	00000e5c 	udf	#3676
ffff000000092354:	0000001c 	udf	#28
ffff000000092358:	000010c0 	udf	#4288
ffff00000009235c:	ffff76b0 	.inst	0xffff76b0 ; undefined
ffff000000092360:	0000039c 	udf	#924
ffff000000092364:	500e4100 	adr	x0, ffff0000000aeb86 <__heap_start+0x18b86>
ffff000000092368:	099e0a9d 	.inst	0x099e0a9d ; undefined
ffff00000009236c:	dddee502 	.inst	0xdddee502 ; undefined
ffff000000092370:	0000000e 	udf	#14
ffff000000092374:	0000001c 	udf	#28
ffff000000092378:	000010e0 	udf	#4320
ffff00000009237c:	ffff7a2c 	.inst	0xffff7a2c ; undefined
ffff000000092380:	00000308 	udf	#776
ffff000000092384:	400e4100 	.inst	0x400e4100 ; undefined
ffff000000092388:	079e089d 	.inst	0x079e089d ; undefined
ffff00000009238c:	dddec002 	.inst	0xdddec002 ; undefined
ffff000000092390:	0000000e 	udf	#14
ffff000000092394:	0000001c 	udf	#28
ffff000000092398:	00001100 	udf	#4352
ffff00000009239c:	ffff7d14 	.inst	0xffff7d14 ; undefined
ffff0000000923a0:	000000a8 	udf	#168
ffff0000000923a4:	300e4100 	adr	x0, ffff0000000aebc5 <__heap_start+0x18bc5>
ffff0000000923a8:	059e069d 	mov	z29.s, p14/z, #52
ffff0000000923ac:	0eddde68 	.inst	0x0eddde68 ; undefined
ffff0000000923b0:	00000000 	udf	#0
ffff0000000923b4:	0000001c 	udf	#28
ffff0000000923b8:	00001120 	udf	#4384
ffff0000000923bc:	ffff7d9c 	.inst	0xffff7d9c ; undefined
ffff0000000923c0:	0000002c 	udf	#44
ffff0000000923c4:	200e4100 	.inst	0x200e4100 ; undefined
ffff0000000923c8:	039e049d 	.inst	0x039e049d ; undefined
ffff0000000923cc:	0eddde49 	.inst	0x0eddde49 ; undefined
ffff0000000923d0:	00000000 	udf	#0
ffff0000000923d4:	00000014 	udf	#20
ffff0000000923d8:	00001140 	udf	#4416
ffff0000000923dc:	ffff7da8 	.inst	0xffff7da8 ; undefined
ffff0000000923e0:	00000024 	udf	#36
ffff0000000923e4:	100e4100 	adr	x0, ffff0000000aec04 <__heap_start+0x18c04>
ffff0000000923e8:	019e029d 	.inst	0x019e029d ; undefined
ffff0000000923ec:	00000020 	udf	#32
ffff0000000923f0:	00001158 	udf	#4440
ffff0000000923f4:	ffff7db4 	.inst	0xffff7db4 ; undefined
ffff0000000923f8:	0000014c 	udf	#332
ffff0000000923fc:	300e4100 	adr	x0, ffff0000000aec1d <__heap_start+0x18c1d>
ffff000000092400:	059e069d 	mov	z29.s, p14/z, #52
ffff000000092404:	ddde5102 	.inst	0xddde5102 ; undefined
ffff000000092408:	0000000e 	udf	#14
ffff00000009240c:	00000000 	udf	#0
ffff000000092410:	0000001c 	udf	#28
ffff000000092414:	0000117c 	udf	#4476
ffff000000092418:	ffff7edc 	.inst	0xffff7edc ; undefined
ffff00000009241c:	0000006c 	udf	#108
ffff000000092420:	200e4100 	.inst	0x200e4100 ; undefined
ffff000000092424:	039e049d 	.inst	0x039e049d ; undefined
ffff000000092428:	0eddde59 	.inst	0x0eddde59 ; undefined
ffff00000009242c:	00000000 	udf	#0
ffff000000092430:	0000001c 	udf	#28
ffff000000092434:	0000119c 	udf	#4508
ffff000000092438:	ffff7f28 	.inst	0xffff7f28 ; undefined
ffff00000009243c:	00000064 	udf	#100
ffff000000092440:	200e4100 	.inst	0x200e4100 ; undefined
ffff000000092444:	039e049d 	.inst	0x039e049d ; undefined
ffff000000092448:	0eddde57 	.inst	0x0eddde57 ; undefined
ffff00000009244c:	00000000 	udf	#0
ffff000000092450:	00000010 	udf	#16
ffff000000092454:	000011bc 	udf	#4540
ffff000000092458:	ffff7f6c 	.inst	0xffff7f6c ; undefined
ffff00000009245c:	0000000c 	udf	#12
ffff000000092460:	00000000 	udf	#0
ffff000000092464:	00000010 	udf	#16
ffff000000092468:	000011d0 	udf	#4560
ffff00000009246c:	ffff7f64 	.inst	0xffff7f64 ; undefined
ffff000000092470:	0000000c 	udf	#12
ffff000000092474:	00000000 	udf	#0
ffff000000092478:	00000014 	udf	#20
ffff00000009247c:	000011e4 	udf	#4580
ffff000000092480:	ffff7f5c 	.inst	0xffff7f5c ; undefined
ffff000000092484:	00000018 	udf	#24
ffff000000092488:	100e4100 	adr	x0, ffff0000000aeca8 <__heap_start+0x18ca8>
ffff00000009248c:	00000e44 	udf	#3652
ffff000000092490:	00000014 	udf	#20
ffff000000092494:	000011fc 	udf	#4604
ffff000000092498:	ffff7f5c 	.inst	0xffff7f5c ; undefined
ffff00000009249c:	00000018 	udf	#24
ffff0000000924a0:	100e4100 	adr	x0, ffff0000000aecc0 <__heap_start+0x18cc0>
ffff0000000924a4:	00000e44 	udf	#3652
ffff0000000924a8:	00000014 	udf	#20
ffff0000000924ac:	00001214 	udf	#4628
ffff0000000924b0:	ffff7f5c 	.inst	0xffff7f5c ; undefined
ffff0000000924b4:	0000008c 	udf	#140
ffff0000000924b8:	300e4100 	adr	x0, ffff0000000aecd9 <__heap_start+0x18cd9>
ffff0000000924bc:	00000e61 	udf	#3681
ffff0000000924c0:	00000014 	udf	#20
ffff0000000924c4:	0000122c 	udf	#4652
ffff0000000924c8:	ffff7fd0 	.inst	0xffff7fd0 ; undefined
ffff0000000924cc:	0000006c 	udf	#108
ffff0000000924d0:	100e4100 	adr	x0, ffff0000000aecf0 <__heap_start+0x18cf0>
ffff0000000924d4:	00000e59 	udf	#3673
ffff0000000924d8:	0000001c 	udf	#28
ffff0000000924dc:	00001244 	udf	#4676
ffff0000000924e0:	ffff8024 	.inst	0xffff8024 ; undefined
ffff0000000924e4:	000000b4 	udf	#180
ffff0000000924e8:	300e4100 	adr	x0, ffff0000000aed09 <__heap_start+0x18d09>
ffff0000000924ec:	059e069d 	mov	z29.s, p14/z, #52
ffff0000000924f0:	0eddde6b 	.inst	0x0eddde6b ; undefined
ffff0000000924f4:	00000000 	udf	#0
ffff0000000924f8:	0000001c 	udf	#28
ffff0000000924fc:	00001264 	udf	#4708
ffff000000092500:	ffff80b8 	.inst	0xffff80b8 ; undefined
ffff000000092504:	00000430 	udf	#1072
ffff000000092508:	800e4100 	.inst	0x800e4100 ; undefined
ffff00000009250c:	9e109d01 	.inst	0x9e109d01 ; undefined
ffff000000092510:	010a030f 	.inst	0x010a030f ; undefined
ffff000000092514:	000eddde 	.inst	0x000eddde ; undefined
ffff000000092518:	0000001c 	udf	#28
ffff00000009251c:	00001284 	udf	#4740
ffff000000092520:	ffff84c8 	.inst	0xffff84c8 ; undefined
ffff000000092524:	0000005c 	udf	#92
ffff000000092528:	300e4100 	adr	x0, ffff0000000aed49 <__heap_start+0x18d49>
ffff00000009252c:	059e069d 	mov	z29.s, p14/z, #52
ffff000000092530:	0eddde55 	.inst	0x0eddde55 ; undefined
ffff000000092534:	00000000 	udf	#0
ffff000000092538:	0000001c 	udf	#28
ffff00000009253c:	000012a4 	udf	#4772
ffff000000092540:	ffff8504 	.inst	0xffff8504 ; undefined
ffff000000092544:	00000184 	udf	#388
ffff000000092548:	300e4100 	adr	x0, ffff0000000aed69 <__heap_start+0x18d69>
ffff00000009254c:	059e069d 	mov	z29.s, p14/z, #52
ffff000000092550:	ddde5f02 	.inst	0xddde5f02 ; undefined
ffff000000092554:	0000000e 	udf	#14
ffff000000092558:	00000014 	udf	#20
ffff00000009255c:	000012c4 	udf	#4804
ffff000000092560:	ffff8668 	.inst	0xffff8668 ; undefined
ffff000000092564:	00000038 	udf	#56
ffff000000092568:	100e4100 	adr	x0, ffff0000000aed88 <__heap_start+0x18d88>
ffff00000009256c:	00000e4c 	udf	#3660
ffff000000092570:	00000014 	udf	#20
ffff000000092574:	000012dc 	udf	#4828
ffff000000092578:	ffff8688 	.inst	0xffff8688 ; undefined
ffff00000009257c:	00000018 	udf	#24
ffff000000092580:	100e4100 	adr	x0, ffff0000000aeda0 <__heap_start+0x18da0>
ffff000000092584:	00000e44 	udf	#3652
ffff000000092588:	00000014 	udf	#20
ffff00000009258c:	000012f4 	udf	#4852
ffff000000092590:	ffff8688 	.inst	0xffff8688 ; undefined
ffff000000092594:	00000060 	udf	#96
ffff000000092598:	300e4100 	adr	x0, ffff0000000aedb9 <__heap_start+0x18db9>
ffff00000009259c:	00000e56 	udf	#3670
ffff0000000925a0:	00000014 	udf	#20
ffff0000000925a4:	0000130c 	udf	#4876
ffff0000000925a8:	ffff86d0 	.inst	0xffff86d0 ; undefined
ffff0000000925ac:	00000074 	udf	#116
ffff0000000925b0:	400e4100 	.inst	0x400e4100 ; undefined
ffff0000000925b4:	00000e5b 	udf	#3675
ffff0000000925b8:	00000014 	udf	#20
ffff0000000925bc:	00001324 	udf	#4900
ffff0000000925c0:	ffff872c 	.inst	0xffff872c ; undefined
ffff0000000925c4:	000000a4 	udf	#164
ffff0000000925c8:	400e4100 	.inst	0x400e4100 ; undefined
ffff0000000925cc:	00000e67 	udf	#3687
ffff0000000925d0:	00000014 	udf	#20
ffff0000000925d4:	0000133c 	udf	#4924
ffff0000000925d8:	ffff87b8 	.inst	0xffff87b8 ; undefined
ffff0000000925dc:	00000040 	udf	#64
ffff0000000925e0:	200e4100 	.inst	0x200e4100 ; undefined
ffff0000000925e4:	00000e4e 	udf	#3662
ffff0000000925e8:	00000014 	udf	#20
ffff0000000925ec:	00001354 	udf	#4948
ffff0000000925f0:	ffff87e0 	.inst	0xffff87e0 ; undefined
ffff0000000925f4:	00000074 	udf	#116
ffff0000000925f8:	200e4100 	.inst	0x200e4100 ; undefined
ffff0000000925fc:	00000e5b 	udf	#3675
ffff000000092600:	00000014 	udf	#20
ffff000000092604:	0000136c 	udf	#4972
ffff000000092608:	ffff883c 	.inst	0xffff883c ; undefined
ffff00000009260c:	000000b4 	udf	#180
ffff000000092610:	300e4100 	adr	x0, ffff0000000aee31 <__heap_start+0x18e31>
ffff000000092614:	00000e6b 	udf	#3691
ffff000000092618:	00000014 	udf	#20
ffff00000009261c:	00001384 	udf	#4996
ffff000000092620:	ffff88d8 	.inst	0xffff88d8 ; undefined
ffff000000092624:	0000026c 	udf	#620
ffff000000092628:	300e4100 	adr	x0, ffff0000000aee49 <__heap_start+0x18e49>
ffff00000009262c:	000e9902 	.inst	0x000e9902 ; undefined
ffff000000092630:	00000014 	udf	#20
ffff000000092634:	0000139c 	udf	#5020
ffff000000092638:	ffff8b2c 	.inst	0xffff8b2c ; undefined
ffff00000009263c:	00000268 	udf	#616
ffff000000092640:	300e4100 	adr	x0, ffff0000000aee61 <__heap_start+0x18e61>
ffff000000092644:	000e9802 	.inst	0x000e9802 ; undefined
ffff000000092648:	00000014 	udf	#20
ffff00000009264c:	000013b4 	udf	#5044
ffff000000092650:	ffff8d7c 	.inst	0xffff8d7c ; undefined
ffff000000092654:	00000150 	udf	#336
ffff000000092658:	200e4100 	.inst	0x200e4100 ; undefined
ffff00000009265c:	000e5202 	.inst	0x000e5202 ; undefined
ffff000000092660:	00000014 	udf	#20
ffff000000092664:	000013cc 	udf	#5068
ffff000000092668:	ffff8eb4 	.inst	0xffff8eb4 ; undefined
ffff00000009266c:	0000001c 	udf	#28
ffff000000092670:	100e4100 	adr	x0, ffff0000000aee90 <__heap_start+0x18e90>
ffff000000092674:	00000e45 	udf	#3653
ffff000000092678:	00000010 	udf	#16
ffff00000009267c:	000013e4 	udf	#5092
ffff000000092680:	ffff8eb8 	.inst	0xffff8eb8 ; undefined
ffff000000092684:	0000000c 	udf	#12
ffff000000092688:	00000000 	udf	#0
ffff00000009268c:	00000010 	udf	#16
ffff000000092690:	000013f8 	udf	#5112
ffff000000092694:	ffff8eb0 	.inst	0xffff8eb0 ; undefined
ffff000000092698:	0000000c 	udf	#12
ffff00000009269c:	00000000 	udf	#0
ffff0000000926a0:	00000014 	udf	#20
ffff0000000926a4:	0000140c 	udf	#5132
ffff0000000926a8:	ffff8ea8 	.inst	0xffff8ea8 ; undefined
ffff0000000926ac:	0000002c 	udf	#44
ffff0000000926b0:	100e4100 	adr	x0, ffff0000000aeed0 <__heap_start+0x18ed0>
ffff0000000926b4:	00000e49 	udf	#3657
ffff0000000926b8:	0000001c 	udf	#28
ffff0000000926bc:	00001424 	udf	#5156
ffff0000000926c0:	ffff8ebc 	.inst	0xffff8ebc ; undefined
ffff0000000926c4:	00000064 	udf	#100
ffff0000000926c8:	300e4100 	adr	x0, ffff0000000aeee9 <__heap_start+0x18ee9>
ffff0000000926cc:	059e069d 	mov	z29.s, p14/z, #52
ffff0000000926d0:	0eddde57 	.inst	0x0eddde57 ; undefined
ffff0000000926d4:	00000000 	udf	#0
ffff0000000926d8:	0000001c 	udf	#28
ffff0000000926dc:	00001444 	udf	#5188
ffff0000000926e0:	ffff8f00 	.inst	0xffff8f00 ; undefined
ffff0000000926e4:	00000140 	udf	#320
ffff0000000926e8:	300e4100 	adr	x0, ffff0000000aef09 <__heap_start+0x18f09>
ffff0000000926ec:	059e069d 	mov	z29.s, p14/z, #52
ffff0000000926f0:	ddde4e02 	.inst	0xddde4e02 ; undefined
ffff0000000926f4:	0000000e 	udf	#14
ffff0000000926f8:	0000001c 	udf	#28
ffff0000000926fc:	00001464 	udf	#5220
ffff000000092700:	ffff9020 	.inst	0xffff9020 ; undefined
ffff000000092704:	00000144 	udf	#324
ffff000000092708:	300e4100 	adr	x0, ffff0000000aef29 <__heap_start+0x18f29>
ffff00000009270c:	059e069d 	mov	z29.s, p14/z, #52
ffff000000092710:	ddde4f02 	.inst	0xddde4f02 ; undefined
ffff000000092714:	0000000e 	udf	#14
ffff000000092718:	0000001c 	udf	#28
ffff00000009271c:	00001484 	udf	#5252
ffff000000092720:	ffff9144 	.inst	0xffff9144 ; undefined
ffff000000092724:	00000050 	udf	#80
ffff000000092728:	200e4100 	.inst	0x200e4100 ; undefined
ffff00000009272c:	039e049d 	.inst	0x039e049d ; undefined
ffff000000092730:	0eddde52 	.inst	0x0eddde52 ; undefined
ffff000000092734:	00000000 	udf	#0

Disassembly of section .data:

ffff000000092738 <current_priority>:
ffff000000092738:	000003e7 	udf	#999

ffff00000009273c <next_tid>:
ffff00000009273c:	00000001 	udf	#1

ffff000000092740 <cxtsw_timeout_ms>:
ffff000000092740:	000000c8 	udf	#200

Disassembly of section .got:

ffff000000092748 <_GLOBAL_OFFSET_TABLE_>:
	...
ffff000000092750:	00093460 	.inst	0x00093460 ; undefined
ffff000000092754:	ffff0000 	.inst	0xffff0000 ; undefined
ffff000000092758:	00093490 	.inst	0x00093490 ; undefined
ffff00000009275c:	ffff0000 	.inst	0xffff0000 ; undefined
ffff000000092760:	00093228 	.inst	0x00093228 ; undefined
ffff000000092764:	ffff0000 	.inst	0xffff0000 ; undefined
ffff000000092768:	00093480 	.inst	0x00093480 ; undefined
ffff00000009276c:	ffff0000 	.inst	0xffff0000 ; undefined
ffff000000092770:	00086340 	.inst	0x00086340 ; undefined
ffff000000092774:	ffff0000 	.inst	0xffff0000 ; undefined
ffff000000092778:	00093488 	.inst	0x00093488 ; undefined
ffff00000009277c:	ffff0000 	.inst	0xffff0000 ; undefined
ffff000000092780:	00093478 	.inst	0x00093478 ; undefined
ffff000000092784:	ffff0000 	.inst	0xffff0000 ; undefined
ffff000000092788:	000928e0 	.inst	0x000928e0 ; undefined
ffff00000009278c:	ffff0000 	.inst	0xffff0000 ; undefined
ffff000000092790:	00093470 	.inst	0x00093470 ; undefined
ffff000000092794:	ffff0000 	.inst	0xffff0000 ; undefined
ffff000000092798:	00093218 	.inst	0x00093218 ; undefined
ffff00000009279c:	ffff0000 	.inst	0xffff0000 ; undefined
ffff0000000927a0:	0008a360 	.inst	0x0008a360 ; undefined
ffff0000000927a4:	ffff0000 	.inst	0xffff0000 ; undefined
ffff0000000927a8:	00093468 	.inst	0x00093468 ; undefined
ffff0000000927ac:	ffff0000 	.inst	0xffff0000 ; undefined
ffff0000000927b0:	000928f8 	.inst	0x000928f8 ; undefined
ffff0000000927b4:	ffff0000 	.inst	0xffff0000 ; undefined
ffff0000000927b8:	00093498 	.inst	0x00093498 ; undefined
ffff0000000927bc:	ffff0000 	.inst	0xffff0000 ; undefined
ffff0000000927c0:	000934b0 	.inst	0x000934b0 ; undefined
ffff0000000927c4:	ffff0000 	.inst	0xffff0000 ; undefined
ffff0000000927c8:	0008a184 	.inst	0x0008a184 ; undefined
ffff0000000927cc:	ffff0000 	.inst	0xffff0000 ; undefined
ffff0000000927d0:	000820a8 	.inst	0x000820a8 ; undefined
ffff0000000927d4:	ffff0000 	.inst	0xffff0000 ; undefined
ffff0000000927d8:	0008aa44 	.inst	0x0008aa44 ; undefined
ffff0000000927dc:	ffff0000 	.inst	0xffff0000 ; undefined
ffff0000000927e0:	00092900 	.inst	0x00092900 ; undefined
ffff0000000927e4:	ffff0000 	.inst	0xffff0000 ; undefined
ffff0000000927e8:	000928e8 	.inst	0x000928e8 ; undefined
ffff0000000927ec:	ffff0000 	.inst	0xffff0000 ; undefined
ffff0000000927f0:	00093238 	.inst	0x00093238 ; undefined
ffff0000000927f4:	ffff0000 	.inst	0xffff0000 ; undefined
ffff0000000927f8:	00092738 	.inst	0x00092738 ; undefined
ffff0000000927fc:	ffff0000 	.inst	0xffff0000 ; undefined
ffff000000092800:	000928f0 	.inst	0x000928f0 ; undefined
ffff000000092804:	ffff0000 	.inst	0xffff0000 ; undefined
ffff000000092808:	000861c0 	.inst	0x000861c0 ; undefined
ffff00000009280c:	ffff0000 	.inst	0xffff0000 ; undefined
ffff000000092810:	000888f8 	.inst	0x000888f8 ; undefined
ffff000000092814:	ffff0000 	.inst	0xffff0000 ; undefined
ffff000000092818:	00093458 	.inst	0x00093458 ; undefined
ffff00000009281c:	ffff0000 	.inst	0xffff0000 ; undefined
ffff000000092820:	00093210 	.inst	0x00093210 ; undefined
ffff000000092824:	ffff0000 	.inst	0xffff0000 ; undefined
ffff000000092828:	0009345c 	.inst	0x0009345c ; undefined
ffff00000009282c:	ffff0000 	.inst	0xffff0000 ; undefined
ffff000000092830:	00092740 	.inst	0x00092740 ; undefined
ffff000000092834:	ffff0000 	.inst	0xffff0000 ; undefined

Disassembly of section .got.plt:

ffff000000092838 <.got.plt>:
	...

Disassembly of section .data.rel.local:

ffff000000092850 <entry_error_messages>:
ffff000000092850:	0008e6a0 	.inst	0x0008e6a0 ; undefined
ffff000000092854:	ffff0000 	.inst	0xffff0000 ; undefined
ffff000000092858:	0008e6b8 	.inst	0x0008e6b8 ; undefined
ffff00000009285c:	ffff0000 	.inst	0xffff0000 ; undefined
ffff000000092860:	0008e6d0 	.inst	0x0008e6d0 ; undefined
ffff000000092864:	ffff0000 	.inst	0xffff0000 ; undefined
ffff000000092868:	0008e6e8 	.inst	0x0008e6e8 ; undefined
ffff00000009286c:	ffff0000 	.inst	0xffff0000 ; undefined
ffff000000092870:	0008e700 	.inst	0x0008e700 ; undefined
ffff000000092874:	ffff0000 	.inst	0xffff0000 ; undefined
ffff000000092878:	0008e718 	.inst	0x0008e718 ; undefined
ffff00000009287c:	ffff0000 	.inst	0xffff0000 ; undefined
ffff000000092880:	0008e730 	.inst	0x0008e730 ; undefined
ffff000000092884:	ffff0000 	.inst	0xffff0000 ; undefined
ffff000000092888:	0008e748 	.inst	0x0008e748 ; undefined
ffff00000009288c:	ffff0000 	.inst	0xffff0000 ; undefined
ffff000000092890:	0008e760 	.inst	0x0008e760 ; undefined
ffff000000092894:	ffff0000 	.inst	0xffff0000 ; undefined
ffff000000092898:	0008e778 	.inst	0x0008e778 ; undefined
ffff00000009289c:	ffff0000 	.inst	0xffff0000 ; undefined
ffff0000000928a0:	0008e790 	.inst	0x0008e790 ; undefined
ffff0000000928a4:	ffff0000 	.inst	0xffff0000 ; undefined
ffff0000000928a8:	0008e7a8 	.inst	0x0008e7a8 ; undefined
ffff0000000928ac:	ffff0000 	.inst	0xffff0000 ; undefined
ffff0000000928b0:	0008e7c0 	.inst	0x0008e7c0 ; undefined
ffff0000000928b4:	ffff0000 	.inst	0xffff0000 ; undefined
ffff0000000928b8:	0008e7d8 	.inst	0x0008e7d8 ; undefined
ffff0000000928bc:	ffff0000 	.inst	0xffff0000 ; undefined
ffff0000000928c0:	0008e7f0 	.inst	0x0008e7f0 ; undefined
ffff0000000928c4:	ffff0000 	.inst	0xffff0000 ; undefined
ffff0000000928c8:	0008e808 	.inst	0x0008e808 ; undefined
ffff0000000928cc:	ffff0000 	.inst	0xffff0000 ; undefined

Disassembly of section .data.rel:

ffff0000000928d0 <heap_start_addr>:
ffff0000000928d0:	00096000 	.inst	0x00096000 ; undefined
ffff0000000928d4:	ffff0000 	.inst	0xffff0000 ; undefined

Disassembly of section .bss:

ffff0000000928d8 <DEVTREE_CPIO_BASE>:
	...

ffff0000000928e0 <initrd_start_addr>:
	...

ffff0000000928e8 <initrd_end_addr>:
	...

ffff0000000928f0 <dtb_start_addr>:
	...

ffff0000000928f8 <dtb_end_addr>:
	...

ffff000000092900 <executing_task>:
	...

ffff000000092908 <task_pool>:
	...

ffff000000093108 <task_used>:
	...

ffff000000093208 <task_queue>:
	...

ffff000000093210 <mem_base>:
	...

ffff000000093218 <mem_size>:
	...

ffff000000093220 <uart_interrupt_enabled>:
	...

ffff000000093228 <uart_rx_lock>:
	...

ffff000000093238 <uart_tx_lock>:
	...

ffff000000093248 <read_buf>:
	...

ffff000000093348 <write_buf>:
	...

ffff000000093448 <read_buf_start>:
ffff000000093448:	00000000 	udf	#0

ffff00000009344c <read_buf_end>:
ffff00000009344c:	00000000 	udf	#0

ffff000000093450 <write_buf_start>:
ffff000000093450:	00000000 	udf	#0

ffff000000093454 <write_buf_end>:
ffff000000093454:	00000000 	udf	#0

ffff000000093458 <TOTAL_PAGES>:
ffff000000093458:	00000000 	udf	#0

ffff00000009345c <MAX_ORDER>:
ffff00000009345c:	00000000 	udf	#0

ffff000000093460 <MAX_NODES>:
	...

ffff000000093468 <BASE_ADDR>:
	...

ffff000000093470 <buddy_tree>:
	...

ffff000000093478 <page_order_map>:
	...

ffff000000093480 <pools>:
	...

ffff000000093488 <chunk_pages>:
	...

ffff000000093490 <page_belong_pool>:
	...

ffff000000093498 <chunk_bitmaps>:
	...

ffff0000000934a0 <startup_alloc_base>:
	...

ffff0000000934a8 <startup_alloc_end>:
	...

ffff0000000934b0 <ready_queue>:
	...

ffff0000000935b0 <cur_thread>:
	...

ffff0000000935b8 <timer_msg_pool>:
	...

ffff0000000945b8 <timer_event_used>:
	...

ffff0000000946b8 <timer_event_pool>:
	...

ffff0000000950b8 <timer_queue>:
	...

Disassembly of section .comment:

0000000000000000 <__heap_start-0xffff000000096000>:
   0:	3a434347 	ccmn	w26, w3, #0x7, mi  // mi = first
   4:	62552820 	.inst	0x62552820 ; undefined
   8:	75746e75 	.inst	0x75746e75 ; undefined
   c:	2e313120 	usubw	v0.8h, v9.8h, v17.8b
  10:	2d302e34 	stp	s20, s11, [x17, #-128]
  14:	75627531 	.inst	0x75627531 ; undefined
  18:	3175746e 	adds	w14, w3, #0xd5d, lsl #12
  1c:	2e32327e 	usubw	v30.8h, v19.8h, v18.8b
  20:	20293430 	.inst	0x20293430 ; undefined
  24:	342e3131 	cbz	w17, 5c648 <_kernel_start-0xffff0000000239b8>
  28:	Address 0x0000000000000028 is out of bounds.

